SF:/home/irahardianto/works/projects/pathfinder/crates/pathfinder-common/src/config.rs
FN:301,_RNCNvNtNtCs9lqQblHgTDM_17pathfinder_common6config5testss_36test_load_invalid_json_returns_error0B7_
FN:291,_RNCNvNtNtCs9lqQblHgTDM_17pathfinder_common6config5testss_41test_load_missing_config_returns_defaults0B7_
FN:241,_RNvNtNtCs9lqQblHgTDM_17pathfinder_common6config5testss_19test_default_config
FN:251,_RNvNtNtCs9lqQblHgTDM_17pathfinder_common6config5testss_27test_config_deserialization
FN:281,_RNvNtNtCs9lqQblHgTDM_17pathfinder_common6config5testss_33test_partial_config_uses_defaults
FN:301,_RNvNtNtCs9lqQblHgTDM_17pathfinder_common6config5testss_36test_load_invalid_json_returns_error
FN:291,_RNvNtNtCs9lqQblHgTDM_17pathfinder_common6config5testss_41test_load_missing_config_returns_defaults
FN:74,_RNCNCNvMs_NtCs9lqQblHgTDM_17pathfinder_common6configNtB8_16PathfinderConfig4load00Ba_
FN:80,_RNCNCNvMs_NtCs9lqQblHgTDM_17pathfinder_common6configNtB8_16PathfinderConfig4load0s_0Ba_
FN:62,_RNCNvMs_NtCs9lqQblHgTDM_17pathfinder_common6configNtB6_16PathfinderConfig4load0B8_
FN:62,_RNvMs_NtCs9lqQblHgTDM_17pathfinder_common6configNtB4_16PathfinderConfig4load
FN:206,_RNvNtCs9lqQblHgTDM_17pathfinder_common6config17default_log_level
FN:222,_RNvNtCs9lqQblHgTDM_17pathfinder_common6config18default_max_tokens
FN:218,_RNvNtCs9lqQblHgTDM_17pathfinder_common6config19default_filter_mode
FN:214,_RNvNtCs9lqQblHgTDM_17pathfinder_common6config19default_max_results
FN:210,_RNvNtCs9lqQblHgTDM_17pathfinder_common6config20default_idle_timeout
FN:226,_RNvNtCs9lqQblHgTDM_17pathfinder_common6config20default_token_method
FN:230,_RNvNtCs9lqQblHgTDM_17pathfinder_common6config24default_validation_scope
FN:42,_RNvXNtCs9lqQblHgTDM_17pathfinder_common6configNtB2_16PathfinderConfigNtNtCsgEmfK2I1SDS_4core7default7Default7default
FN:143,_RNvXs0_NtCs9lqQblHgTDM_17pathfinder_common6configNtB5_12SearchConfigNtNtCsgEmfK2I1SDS_4core7default7Default7default
FN:164,_RNvXs1_NtCs9lqQblHgTDM_17pathfinder_common6configNtB5_13RepoMapConfigNtNtCsgEmfK2I1SDS_4core7default7Default7default
FN:181,_RNvXs2_NtCs9lqQblHgTDM_17pathfinder_common6configNtB5_16ValidationConfigNtNtCsgEmfK2I1SDS_4core7default7Default7default
FN:62,_RNvMs_NtCsuZExG01YC8_17pathfinder_common6configNtB4_16PathfinderConfig4load
FN:206,_RNvNtCsuZExG01YC8_17pathfinder_common6config17default_log_level
FN:222,_RNvNtCsuZExG01YC8_17pathfinder_common6config18default_max_tokens
FN:218,_RNvNtCsuZExG01YC8_17pathfinder_common6config19default_filter_mode
FN:214,_RNvNtCsuZExG01YC8_17pathfinder_common6config19default_max_results
FN:210,_RNvNtCsuZExG01YC8_17pathfinder_common6config20default_idle_timeout
FN:226,_RNvNtCsuZExG01YC8_17pathfinder_common6config20default_token_method
FN:230,_RNvNtCsuZExG01YC8_17pathfinder_common6config24default_validation_scope
FN:42,_RNvXNtCsuZExG01YC8_17pathfinder_common6configNtB2_16PathfinderConfigNtNtCsgEmfK2I1SDS_4core7default7Default7default
FN:143,_RNvXs0_NtCsuZExG01YC8_17pathfinder_common6configNtB5_12SearchConfigNtNtCsgEmfK2I1SDS_4core7default7Default7default
FN:164,_RNvXs1_NtCsuZExG01YC8_17pathfinder_common6configNtB5_13RepoMapConfigNtNtCsgEmfK2I1SDS_4core7default7Default7default
FN:181,_RNvXs2_NtCsuZExG01YC8_17pathfinder_common6configNtB5_16ValidationConfigNtNtCsgEmfK2I1SDS_4core7default7Default7default
FN:74,_RNCNCNvMs_NtCsuZExG01YC8_17pathfinder_common6configNtB8_16PathfinderConfig4load00Cs7Fw43FPylcK_14pathfinder_mcp
FN:80,_RNCNCNvMs_NtCsuZExG01YC8_17pathfinder_common6configNtB8_16PathfinderConfig4load0s_0Cs7Fw43FPylcK_14pathfinder_mcp
FN:62,_RNCNvMs_NtCsuZExG01YC8_17pathfinder_common6configNtB6_16PathfinderConfig4load0Cs7Fw43FPylcK_14pathfinder_mcp
FN:74,_RNCNCNvMs_NtCsuZExG01YC8_17pathfinder_common6configNtB8_16PathfinderConfig4load00CsaBz7PZGcJGm_14pathfinder_mcp
FN:80,_RNCNCNvMs_NtCsuZExG01YC8_17pathfinder_common6configNtB8_16PathfinderConfig4load0s_0CsaBz7PZGcJGm_14pathfinder_mcp
FN:62,_RNCNvMs_NtCsuZExG01YC8_17pathfinder_common6configNtB6_16PathfinderConfig4load0CsaBz7PZGcJGm_14pathfinder_mcp
FNDA:1,_RNCNvNtNtCs9lqQblHgTDM_17pathfinder_common6config5testss_36test_load_invalid_json_returns_error0B7_
FNDA:1,_RNCNvNtNtCs9lqQblHgTDM_17pathfinder_common6config5testss_41test_load_missing_config_returns_defaults0B7_
FNDA:1,_RNvNtNtCs9lqQblHgTDM_17pathfinder_common6config5testss_19test_default_config
FNDA:1,_RNvNtNtCs9lqQblHgTDM_17pathfinder_common6config5testss_27test_config_deserialization
FNDA:1,_RNvNtNtCs9lqQblHgTDM_17pathfinder_common6config5testss_33test_partial_config_uses_defaults
FNDA:1,_RNvNtNtCs9lqQblHgTDM_17pathfinder_common6config5testss_36test_load_invalid_json_returns_error
FNDA:1,_RNvNtNtCs9lqQblHgTDM_17pathfinder_common6config5testss_41test_load_missing_config_returns_defaults
FNDA:0,_RNCNCNvMs_NtCs9lqQblHgTDM_17pathfinder_common6configNtB8_16PathfinderConfig4load00Ba_
FNDA:1,_RNCNCNvMs_NtCs9lqQblHgTDM_17pathfinder_common6configNtB8_16PathfinderConfig4load0s_0Ba_
FNDA:2,_RNCNvMs_NtCs9lqQblHgTDM_17pathfinder_common6configNtB6_16PathfinderConfig4load0B8_
FNDA:2,_RNvMs_NtCs9lqQblHgTDM_17pathfinder_common6configNtB4_16PathfinderConfig4load
FNDA:2,_RNvNtCs9lqQblHgTDM_17pathfinder_common6config17default_log_level
FNDA:4,_RNvNtCs9lqQblHgTDM_17pathfinder_common6config18default_max_tokens
FNDA:4,_RNvNtCs9lqQblHgTDM_17pathfinder_common6config19default_filter_mode
FNDA:3,_RNvNtCs9lqQblHgTDM_17pathfinder_common6config19default_max_results
FNDA:0,_RNvNtCs9lqQblHgTDM_17pathfinder_common6config20default_idle_timeout
FNDA:4,_RNvNtCs9lqQblHgTDM_17pathfinder_common6config20default_token_method
FNDA:4,_RNvNtCs9lqQblHgTDM_17pathfinder_common6config24default_validation_scope
FNDA:2,_RNvXNtCs9lqQblHgTDM_17pathfinder_common6configNtB2_16PathfinderConfigNtNtCsgEmfK2I1SDS_4core7default7Default7default
FNDA:3,_RNvXs0_NtCs9lqQblHgTDM_17pathfinder_common6configNtB5_12SearchConfigNtNtCsgEmfK2I1SDS_4core7default7Default7default
FNDA:4,_RNvXs1_NtCs9lqQblHgTDM_17pathfinder_common6configNtB5_13RepoMapConfigNtNtCsgEmfK2I1SDS_4core7default7Default7default
FNDA:4,_RNvXs2_NtCs9lqQblHgTDM_17pathfinder_common6configNtB5_16ValidationConfigNtNtCsgEmfK2I1SDS_4core7default7Default7default
FNDA:0,_RNvMs_NtCsuZExG01YC8_17pathfinder_common6configNtB4_16PathfinderConfig4load
FNDA:187,_RNvNtCsuZExG01YC8_17pathfinder_common6config17default_log_level
FNDA:187,_RNvNtCsuZExG01YC8_17pathfinder_common6config18default_max_tokens
FNDA:187,_RNvNtCsuZExG01YC8_17pathfinder_common6config19default_filter_mode
FNDA:187,_RNvNtCsuZExG01YC8_17pathfinder_common6config19default_max_results
FNDA:0,_RNvNtCsuZExG01YC8_17pathfinder_common6config20default_idle_timeout
FNDA:187,_RNvNtCsuZExG01YC8_17pathfinder_common6config20default_token_method
FNDA:187,_RNvNtCsuZExG01YC8_17pathfinder_common6config24default_validation_scope
FNDA:187,_RNvXNtCsuZExG01YC8_17pathfinder_common6configNtB2_16PathfinderConfigNtNtCsgEmfK2I1SDS_4core7default7Default7default
FNDA:187,_RNvXs0_NtCsuZExG01YC8_17pathfinder_common6configNtB5_12SearchConfigNtNtCsgEmfK2I1SDS_4core7default7Default7default
FNDA:187,_RNvXs1_NtCsuZExG01YC8_17pathfinder_common6configNtB5_13RepoMapConfigNtNtCsgEmfK2I1SDS_4core7default7Default7default
FNDA:187,_RNvXs2_NtCsuZExG01YC8_17pathfinder_common6configNtB5_16ValidationConfigNtNtCsgEmfK2I1SDS_4core7default7Default7default
FNDA:0,_RNCNCNvMs_NtCsuZExG01YC8_17pathfinder_common6configNtB8_16PathfinderConfig4load00Cs7Fw43FPylcK_14pathfinder_mcp
FNDA:0,_RNCNCNvMs_NtCsuZExG01YC8_17pathfinder_common6configNtB8_16PathfinderConfig4load0s_0Cs7Fw43FPylcK_14pathfinder_mcp
FNDA:0,_RNCNvMs_NtCsuZExG01YC8_17pathfinder_common6configNtB6_16PathfinderConfig4load0Cs7Fw43FPylcK_14pathfinder_mcp
FNDA:0,_RNCNCNvMs_NtCsuZExG01YC8_17pathfinder_common6configNtB8_16PathfinderConfig4load00CsaBz7PZGcJGm_14pathfinder_mcp
FNDA:0,_RNCNCNvMs_NtCsuZExG01YC8_17pathfinder_common6configNtB8_16PathfinderConfig4load0s_0CsaBz7PZGcJGm_14pathfinder_mcp
FNDA:0,_RNCNvMs_NtCsuZExG01YC8_17pathfinder_common6configNtB6_16PathfinderConfig4load0CsaBz7PZGcJGm_14pathfinder_mcp
FNF:22
FNH:20
DA:42,189
DA:43,189
DA:44,189
DA:45,189
DA:46,189
DA:47,189
DA:48,189
DA:49,189
DA:50,189
DA:51,189
DA:62,2
DA:63,2
DA:65,2
DA:66,1
DA:67,1
DA:68,1
DA:70,1
DA:71,1
DA:72,1
DA:73,1
DA:74,0
DA:75,0
DA:76,0
DA:78,0
DA:79,1
DA:80,1
DA:81,1
DA:82,1
DA:84,0
DA:85,0
DA:86,2
DA:143,190
DA:144,190
DA:145,190
DA:146,190
DA:147,190
DA:148,190
DA:164,191
DA:165,191
DA:166,191
DA:167,191
DA:168,191
DA:169,191
DA:181,191
DA:182,191
DA:183,191
DA:184,191
DA:185,191
DA:206,189
DA:207,189
DA:208,189
DA:210,0
DA:211,0
DA:212,0
DA:214,190
DA:215,190
DA:216,190
DA:218,191
DA:219,191
DA:220,191
DA:222,191
DA:223,191
DA:224,191
DA:226,191
DA:227,191
DA:228,191
DA:230,191
DA:231,191
DA:232,191
DA:241,1
DA:242,1
DA:243,1
DA:244,1
DA:245,1
DA:246,1
DA:247,1
DA:248,1
DA:251,1
DA:252,1
DA:253,1
DA:254,1
DA:255,1
DA:256,1
DA:257,1
DA:258,1
DA:259,1
DA:260,1
DA:261,1
DA:262,1
DA:263,1
DA:264,1
DA:265,1
DA:266,1
DA:267,1
DA:268,1
DA:270,1
DA:271,1
DA:272,1
DA:273,1
DA:275,1
DA:276,1
DA:277,1
DA:278,1
DA:281,1
DA:282,1
DA:283,1
DA:284,1
DA:286,1
DA:287,1
DA:288,1
DA:291,1
DA:292,1
DA:293,1
DA:294,1
DA:295,1
DA:296,1
DA:298,1
DA:301,1
DA:302,1
DA:303,1
DA:304,1
DA:306,1
DA:307,1
DA:308,1
DA:310,1
DA:311,1
BRF:0
BRH:0
LF:133
LH:123
end_of_record
SF:/home/irahardianto/works/projects/pathfinder/crates/pathfinder-common/src/error.rs
FN:140,_RNvMNtCs9lqQblHgTDM_17pathfinder_common5errorNtB2_15PathfinderError10error_code
FN:253,_RNvMNtCs9lqQblHgTDM_17pathfinder_common5errorNtB2_15PathfinderError10to_details
FN:244,_RNvMNtCs9lqQblHgTDM_17pathfinder_common5errorNtB2_15PathfinderError17to_error_response
FN:170,_RNvMNtCs9lqQblHgTDM_17pathfinder_common5errorNtB2_15PathfinderError4hint
FN:354,_RNvNtCs9lqQblHgTDM_17pathfinder_common5error21compute_lines_changed
FN:500,_RNCNvNtNtCs9lqQblHgTDM_17pathfinder_common5error5testss_45test_all_error_codes_are_screaming_snake_case0B7_
FN:392,_RNvNtNtCs9lqQblHgTDM_17pathfinder_common5error5testss_23test_error_code_mapping
FN:716,_RNvNtNtCs9lqQblHgTDM_17pathfinder_common5error5testss_25test_path_traversal_error
FN:538,_RNvNtNtCs9lqQblHgTDM_17pathfinder_common5error5testss_32test_compute_lines_changed_mixed
FN:406,_RNvNtNtCs9lqQblHgTDM_17pathfinder_common5error5testss_33test_error_response_serialization
FN:546,_RNvNtNtCs9lqQblHgTDM_17pathfinder_common5error5testss_36test_compute_lines_changed_identical
FN:559,_RNvNtNtCs9lqQblHgTDM_17pathfinder_common5error5testss_37test_version_mismatch_hint_is_present
FN:522,_RNvNtNtCs9lqQblHgTDM_17pathfinder_common5error5testss_38test_compute_lines_changed_lines_added
FN:655,_RNvNtNtCs9lqQblHgTDM_17pathfinder_common5error5testss_38test_hint_serialized_in_error_response
FN:605,_RNvNtNtCs9lqQblHgTDM_17pathfinder_common5error5testss_40test_access_denied_hint_mentions_sandbox
FN:530,_RNvNtNtCs9lqQblHgTDM_17pathfinder_common5error5testss_40test_compute_lines_changed_lines_removed
FN:573,_RNvNtNtCs9lqQblHgTDM_17pathfinder_common5error5testss_43test_symbol_not_found_hint_with_suggestions
FN:696,_RNvNtNtCs9lqQblHgTDM_17pathfinder_common5error5testss_43test_text_not_found_hint_with_closest_match
FN:552,_RNvNtNtCs9lqQblHgTDM_17pathfinder_common5error5testss_44test_compute_lines_changed_empty_to_nonempty
FN:643,_RNvNtNtCs9lqQblHgTDM_17pathfinder_common5error5testss_44test_match_not_found_hint_mentions_read_file
FN:430,_RNvNtNtCs9lqQblHgTDM_17pathfinder_common5error5testss_45test_all_error_codes_are_screaming_snake_case
FN:590,_RNvNtNtCs9lqQblHgTDM_17pathfinder_common5error5testss_46test_symbol_not_found_hint_without_suggestions
FN:675,_RNvNtNtCs9lqQblHgTDM_17pathfinder_common5error5testss_46test_text_not_found_hint_mentions_context_line
FN:630,_RNvNtNtCs9lqQblHgTDM_17pathfinder_common5error5testss_48test_validation_failed_hint_mentions_ignore_flag
FN:507,_RNvNtNtCs9lqQblHgTDM_17pathfinder_common5error5testss_50test_symbol_not_found_details_include_did_you_mean
FN:618,_RNvNtNtCs9lqQblHgTDM_17pathfinder_common5error5testss_50test_unsupported_language_hint_mentions_write_file
FN:140,_RNvMNtCsuZExG01YC8_17pathfinder_common5errorNtB2_15PathfinderError10error_code
FN:253,_RNvMNtCsuZExG01YC8_17pathfinder_common5errorNtB2_15PathfinderError10to_details
FN:244,_RNvMNtCsuZExG01YC8_17pathfinder_common5errorNtB2_15PathfinderError17to_error_response
FN:170,_RNvMNtCsuZExG01YC8_17pathfinder_common5errorNtB2_15PathfinderError4hint
FN:354,_RNvNtCsuZExG01YC8_17pathfinder_common5error21compute_lines_changed
FNDA:28,_RNvMNtCs9lqQblHgTDM_17pathfinder_common5errorNtB2_15PathfinderError10error_code
FNDA:5,_RNvMNtCs9lqQblHgTDM_17pathfinder_common5errorNtB2_15PathfinderError10to_details
FNDA:5,_RNvMNtCs9lqQblHgTDM_17pathfinder_common5errorNtB2_15PathfinderError17to_error_response
FNDA:15,_RNvMNtCs9lqQblHgTDM_17pathfinder_common5errorNtB2_15PathfinderError4hint
FNDA:5,_RNvNtCs9lqQblHgTDM_17pathfinder_common5error21compute_lines_changed
FNDA:292,_RNCNvNtNtCs9lqQblHgTDM_17pathfinder_common5error5testss_45test_all_error_codes_are_screaming_snake_case0B7_
FNDA:1,_RNvNtNtCs9lqQblHgTDM_17pathfinder_common5error5testss_23test_error_code_mapping
FNDA:1,_RNvNtNtCs9lqQblHgTDM_17pathfinder_common5error5testss_25test_path_traversal_error
FNDA:1,_RNvNtNtCs9lqQblHgTDM_17pathfinder_common5error5testss_32test_compute_lines_changed_mixed
FNDA:1,_RNvNtNtCs9lqQblHgTDM_17pathfinder_common5error5testss_33test_error_response_serialization
FNDA:1,_RNvNtNtCs9lqQblHgTDM_17pathfinder_common5error5testss_36test_compute_lines_changed_identical
FNDA:1,_RNvNtNtCs9lqQblHgTDM_17pathfinder_common5error5testss_37test_version_mismatch_hint_is_present
FNDA:1,_RNvNtNtCs9lqQblHgTDM_17pathfinder_common5error5testss_38test_compute_lines_changed_lines_added
FNDA:1,_RNvNtNtCs9lqQblHgTDM_17pathfinder_common5error5testss_38test_hint_serialized_in_error_response
FNDA:1,_RNvNtNtCs9lqQblHgTDM_17pathfinder_common5error5testss_40test_access_denied_hint_mentions_sandbox
FNDA:1,_RNvNtNtCs9lqQblHgTDM_17pathfinder_common5error5testss_40test_compute_lines_changed_lines_removed
FNDA:1,_RNvNtNtCs9lqQblHgTDM_17pathfinder_common5error5testss_43test_symbol_not_found_hint_with_suggestions
FNDA:1,_RNvNtNtCs9lqQblHgTDM_17pathfinder_common5error5testss_43test_text_not_found_hint_with_closest_match
FNDA:1,_RNvNtNtCs9lqQblHgTDM_17pathfinder_common5error5testss_44test_compute_lines_changed_empty_to_nonempty
FNDA:1,_RNvNtNtCs9lqQblHgTDM_17pathfinder_common5error5testss_44test_match_not_found_hint_mentions_read_file
FNDA:1,_RNvNtNtCs9lqQblHgTDM_17pathfinder_common5error5testss_45test_all_error_codes_are_screaming_snake_case
FNDA:1,_RNvNtNtCs9lqQblHgTDM_17pathfinder_common5error5testss_46test_symbol_not_found_hint_without_suggestions
FNDA:1,_RNvNtNtCs9lqQblHgTDM_17pathfinder_common5error5testss_46test_text_not_found_hint_mentions_context_line
FNDA:1,_RNvNtNtCs9lqQblHgTDM_17pathfinder_common5error5testss_48test_validation_failed_hint_mentions_ignore_flag
FNDA:1,_RNvNtNtCs9lqQblHgTDM_17pathfinder_common5error5testss_50test_symbol_not_found_details_include_did_you_mean
FNDA:1,_RNvNtNtCs9lqQblHgTDM_17pathfinder_common5error5testss_50test_unsupported_language_hint_mentions_write_file
FNDA:217,_RNvMNtCsuZExG01YC8_17pathfinder_common5errorNtB2_15PathfinderError10error_code
FNDA:108,_RNvMNtCsuZExG01YC8_17pathfinder_common5errorNtB2_15PathfinderError10to_details
FNDA:108,_RNvMNtCsuZExG01YC8_17pathfinder_common5errorNtB2_15PathfinderError17to_error_response
FNDA:108,_RNvMNtCsuZExG01YC8_17pathfinder_common5errorNtB2_15PathfinderError4hint
FNDA:0,_RNvNtCsuZExG01YC8_17pathfinder_common5error21compute_lines_changed
FNF:26
FNH:26
DA:140,245
DA:141,245
DA:142,22
DA:143,9
DA:144,19
DA:145,5
DA:146,26
DA:147,13
DA:148,13
DA:149,9
DA:150,5
DA:151,30
DA:152,5
DA:153,5
DA:154,5
DA:155,26
DA:156,5
DA:157,9
DA:158,9
DA:159,11
DA:160,17
DA:161,2
DA:163,245
DA:170,123
DA:171,123
DA:172,11
DA:173,11
DA:174,5
DA:176,6
DA:177,6
DA:178,6
DA:179,6
DA:182,13
DA:183,13
DA:184,0
DA:186,13
DA:189,14
DA:190,14
DA:191,14
DA:192,14
DA:193,14
DA:195,15
DA:197,3
DA:198,3
DA:199,3
DA:200,3
DA:201,10
DA:202,10
DA:203,10
DA:204,10
DA:205,7
DA:206,7
DA:207,7
DA:208,7
DA:209,7
DA:210,5
DA:211,5
DA:212,5
DA:213,5
DA:214,5
DA:215,4
DA:216,4
DA:217,4
DA:218,4
DA:219,7
DA:220,7
DA:224,7
DA:225,2
DA:227,5
DA:230,8
DA:231,8
DA:232,8
DA:233,8
DA:234,2
DA:235,2
DA:236,2
DA:237,2
DA:238,24
DA:240,123
DA:244,113
DA:245,113
DA:246,113
DA:247,113
DA:248,113
DA:249,113
DA:250,113
DA:251,113
DA:253,113
DA:254,113
DA:255,9
DA:256,9
DA:258,2
DA:259,2
DA:262,13
DA:263,13
DA:266,13
DA:267,13
DA:268,13
DA:272,6
DA:274,6
DA:276,4
DA:277,4
DA:279,14
DA:280,14
DA:282,2
DA:283,2
DA:285,8
DA:286,8
DA:289,13
DA:290,13
DA:293,13
DA:294,13
DA:295,6
DA:296,7
DA:297,13
DA:298,0
DA:299,13
DA:300,13
DA:303,5
DA:304,5
DA:305,5
DA:306,5
DA:307,5
DA:309,5
DA:310,5
DA:311,5
DA:312,5
DA:313,5
DA:314,2
DA:315,3
DA:316,5
DA:317,1
DA:318,4
DA:319,5
DA:322,1
DA:323,1
DA:325,1
DA:327,36
DA:329,113
DA:354,5
DA:355,5
DA:356,5
DA:357,5
DA:358,5
DA:359,5
DA:360,5
DA:392,1
DA:393,1
DA:394,1
DA:395,1
DA:396,1
DA:398,1
DA:399,1
DA:400,1
DA:401,1
DA:402,1
DA:403,1
DA:406,1
DA:407,1
DA:408,1
DA:409,1
DA:410,1
DA:411,1
DA:412,1
DA:414,1
DA:415,1
DA:416,1
DA:417,1
DA:418,1
DA:423,1
DA:424,1
DA:425,1
DA:426,1
DA:427,1
DA:430,1
DA:431,1
DA:432,1
DA:433,1
DA:434,1
DA:435,1
DA:436,1
DA:437,1
DA:438,1
DA:439,1
DA:440,1
DA:441,1
DA:442,1
DA:443,1
DA:444,1
DA:445,1
DA:446,1
DA:447,1
DA:448,1
DA:449,1
DA:450,1
DA:451,1
DA:452,1
DA:453,1
DA:454,1
DA:455,1
DA:456,1
DA:457,1
DA:458,1
DA:459,1
DA:460,1
DA:461,1
DA:462,1
DA:463,1
DA:464,1
DA:465,1
DA:466,1
DA:467,1
DA:468,1
DA:469,1
DA:470,1
DA:471,1
DA:472,1
DA:473,1
DA:474,1
DA:475,1
DA:476,1
DA:477,1
DA:478,1
DA:479,1
DA:480,1
DA:481,1
DA:482,1
DA:483,1
DA:484,1
DA:485,1
DA:486,1
DA:487,1
DA:488,1
DA:489,1
DA:490,1
DA:491,1
DA:492,1
DA:493,1
DA:494,1
DA:497,19
DA:498,19
DA:499,19
DA:500,292
DA:504,1
DA:507,1
DA:508,1
DA:509,1
DA:510,1
DA:511,1
DA:512,1
DA:513,1
DA:514,1
DA:515,1
DA:516,1
DA:517,1
DA:522,1
DA:524,1
DA:525,1
DA:526,1
DA:527,1
DA:530,1
DA:532,1
DA:533,1
DA:534,1
DA:535,1
DA:538,1
DA:540,1
DA:541,1
DA:542,1
DA:543,1
DA:546,1
DA:547,1
DA:548,1
DA:549,1
DA:552,1
DA:553,1
DA:554,1
DA:559,1
DA:560,1
DA:561,1
DA:562,1
DA:563,1
DA:564,1
DA:565,1
DA:566,1
DA:567,1
DA:570,1
DA:573,1
DA:574,1
DA:575,1
DA:576,1
DA:577,1
DA:578,1
DA:579,1
DA:580,1
DA:583,1
DA:584,1
DA:587,1
DA:590,1
DA:591,1
DA:592,1
DA:593,1
DA:594,1
DA:595,1
DA:596,1
DA:597,1
DA:598,1
DA:599,1
DA:602,1
DA:605,1
DA:606,1
DA:607,1
DA:608,1
DA:609,1
DA:610,1
DA:611,1
DA:612,1
DA:615,1
DA:618,1
DA:619,1
DA:620,1
DA:621,1
DA:622,1
DA:623,1
DA:624,1
DA:627,1
DA:630,1
DA:631,1
DA:632,1
DA:633,1
DA:634,1
DA:635,1
DA:636,1
DA:637,1
DA:640,1
DA:643,1
DA:644,1
DA:645,1
DA:646,1
DA:647,1
DA:648,1
DA:649,1
DA:652,1
DA:655,1
DA:656,1
DA:657,1
DA:658,1
DA:659,1
DA:660,1
DA:661,1
DA:662,1
DA:663,1
DA:664,1
DA:667,1
DA:668,1
DA:669,1
DA:672,1
DA:675,1
DA:676,1
DA:677,1
DA:678,1
DA:679,1
DA:680,1
DA:681,1
DA:682,1
DA:683,1
DA:684,1
DA:685,1
DA:686,1
DA:689,1
DA:690,1
DA:693,1
DA:696,1
DA:697,1
DA:698,1
DA:699,1
DA:700,1
DA:701,1
DA:702,1
DA:703,1
DA:704,1
DA:705,1
DA:706,1
DA:707,1
DA:708,1
DA:711,1
DA:712,1
DA:713,1
DA:716,1
DA:717,1
DA:718,1
DA:719,1
DA:720,1
DA:722,1
DA:723,1
DA:724,1
DA:725,1
DA:729,1
DA:730,1
DA:731,1
DA:732,1
DA:733,1
BRF:0
BRH:0
LF:403
LH:392
end_of_record
SF:/home/irahardianto/works/projects/pathfinder/crates/pathfinder-common/src/file_watcher.rs
FN:135,_RNCNvNtCs9lqQblHgTDM_17pathfinder_common12file_watcher9hash_file0B5_
FN:171,_RNvNtNtCs9lqQblHgTDM_17pathfinder_common12file_watcher5testss_30test_hash_file_produces_sha256
FN:203,_RNvNtNtCs9lqQblHgTDM_17pathfinder_common12file_watcher5testss_36test_hash_file_missing_returns_error
FN:211,_RNvNtNtCs9lqQblHgTDM_17pathfinder_common12file_watcher5testss_39test_in_memory_source_drains_all_events
FN:236,_RNvNtNtCs9lqQblHgTDM_17pathfinder_common12file_watcher5testss_41test_in_memory_source_drain_is_idempotent
FN:186,_RNvNtNtCs9lqQblHgTDM_17pathfinder_common12file_watcher5testss_47test_hash_file_different_content_different_hash
FN:171,_RNCNvNtNtCs9lqQblHgTDM_17pathfinder_common12file_watcher5testss_30test_hash_file_produces_sha2560B7_
FN:203,_RNCNvNtNtCs9lqQblHgTDM_17pathfinder_common12file_watcher5testss_36test_hash_file_missing_returns_error0B7_
FN:211,_RNCNvNtNtCs9lqQblHgTDM_17pathfinder_common12file_watcher5testss_39test_in_memory_source_drains_all_events0B7_
FN:236,_RNCNvNtNtCs9lqQblHgTDM_17pathfinder_common12file_watcher5testss_41test_in_memory_source_drain_is_idempotent0B7_
FN:186,_RNCNvNtNtCs9lqQblHgTDM_17pathfinder_common12file_watcher5testss_47test_hash_file_different_content_different_hash0B7_
FN:111,_RNvMs_NtCs9lqQblHgTDM_17pathfinder_common12file_watcherNtB4_23InMemoryFileEventSource3new
FN:135,_RNvNtCs9lqQblHgTDM_17pathfinder_common12file_watcher9hash_file
FN:117,_RNvXs0_NtCs9lqQblHgTDM_17pathfinder_common12file_watcherNtB5_23InMemoryFileEventSourceNtB5_15FileEventSource5drain
FN:42,_RNCNvMNtCs9lqQblHgTDM_17pathfinder_common12file_watcherNtB4_11FileWatcher5start0B6_
FN:37,_RNvMNtCs9lqQblHgTDM_17pathfinder_common12file_watcherNtB2_11FileWatcher5start
FN:37,_RNvMNtCsuZExG01YC8_17pathfinder_common12file_watcherNtB2_11FileWatcher5start
FN:111,_RNvMs_NtCsuZExG01YC8_17pathfinder_common12file_watcherNtB4_23InMemoryFileEventSource3new
FN:135,_RNvNtCsuZExG01YC8_17pathfinder_common12file_watcher9hash_file
FN:117,_RNvXs0_NtCsuZExG01YC8_17pathfinder_common12file_watcherNtB5_23InMemoryFileEventSourceNtB5_15FileEventSource5drain
FN:42,_RNCNvMNtCsuZExG01YC8_17pathfinder_common12file_watcherNtB4_11FileWatcher5start0B6_
FN:135,_RNCNvNtCsuZExG01YC8_17pathfinder_common12file_watcher9hash_file0B5_
FNDA:4,_RNCNvNtCs9lqQblHgTDM_17pathfinder_common12file_watcher9hash_file0B5_
FNDA:1,_RNvNtNtCs9lqQblHgTDM_17pathfinder_common12file_watcher5testss_30test_hash_file_produces_sha256
FNDA:1,_RNvNtNtCs9lqQblHgTDM_17pathfinder_common12file_watcher5testss_36test_hash_file_missing_returns_error
FNDA:1,_RNvNtNtCs9lqQblHgTDM_17pathfinder_common12file_watcher5testss_39test_in_memory_source_drains_all_events
FNDA:1,_RNvNtNtCs9lqQblHgTDM_17pathfinder_common12file_watcher5testss_41test_in_memory_source_drain_is_idempotent
FNDA:1,_RNvNtNtCs9lqQblHgTDM_17pathfinder_common12file_watcher5testss_47test_hash_file_different_content_different_hash
FNDA:1,_RNCNvNtNtCs9lqQblHgTDM_17pathfinder_common12file_watcher5testss_30test_hash_file_produces_sha2560B7_
FNDA:1,_RNCNvNtNtCs9lqQblHgTDM_17pathfinder_common12file_watcher5testss_36test_hash_file_missing_returns_error0B7_
FNDA:1,_RNCNvNtNtCs9lqQblHgTDM_17pathfinder_common12file_watcher5testss_39test_in_memory_source_drains_all_events0B7_
FNDA:1,_RNCNvNtNtCs9lqQblHgTDM_17pathfinder_common12file_watcher5testss_41test_in_memory_source_drain_is_idempotent0B7_
FNDA:1,_RNCNvNtNtCs9lqQblHgTDM_17pathfinder_common12file_watcher5testss_47test_hash_file_different_content_different_hash0B7_
FNDA:2,_RNvMs_NtCs9lqQblHgTDM_17pathfinder_common12file_watcherNtB4_23InMemoryFileEventSource3new
FNDA:4,_RNvNtCs9lqQblHgTDM_17pathfinder_common12file_watcher9hash_file
FNDA:3,_RNvXs0_NtCs9lqQblHgTDM_17pathfinder_common12file_watcherNtB5_23InMemoryFileEventSourceNtB5_15FileEventSource5drain
FNDA:0,_RNCNvMNtCs9lqQblHgTDM_17pathfinder_common12file_watcherNtB4_11FileWatcher5start0B6_
FNDA:0,_RNvMNtCs9lqQblHgTDM_17pathfinder_common12file_watcherNtB2_11FileWatcher5start
FNDA:0,_RNvMNtCsuZExG01YC8_17pathfinder_common12file_watcherNtB2_11FileWatcher5start
FNDA:0,_RNvMs_NtCsuZExG01YC8_17pathfinder_common12file_watcherNtB4_23InMemoryFileEventSource3new
FNDA:0,_RNvNtCsuZExG01YC8_17pathfinder_common12file_watcher9hash_file
FNDA:0,_RNvXs0_NtCsuZExG01YC8_17pathfinder_common12file_watcherNtB5_23InMemoryFileEventSourceNtB5_15FileEventSource5drain
FNDA:0,_RNCNvMNtCsuZExG01YC8_17pathfinder_common12file_watcherNtB4_11FileWatcher5start0B6_
FNDA:0,_RNCNvNtCsuZExG01YC8_17pathfinder_common12file_watcher9hash_file0B5_
FNF:16
FNH:14
DA:37,0
DA:38,0
DA:39,0
DA:40,0
DA:42,0
DA:43,0
DA:44,0
DA:45,0
DA:46,0
DA:47,0
DA:48,0
DA:49,0
DA:50,0
DA:52,0
DA:53,0
DA:54,0
DA:59,0
DA:60,0
DA:61,0
DA:64,0
DA:65,0
DA:68,0
DA:69,0
DA:72,0
DA:73,0
DA:75,0
DA:76,0
DA:77,0
DA:79,0
DA:80,0
DA:84,0
DA:85,0
DA:111,2
DA:112,2
DA:113,2
DA:117,3
DA:118,4
DA:119,4
DA:120,4
DA:121,4
DA:122,3
DA:135,4
DA:139,4
DA:140,3
DA:141,3
DA:144,6
DA:145,6
DA:146,3
DA:147,3
DA:148,3
DA:151,3
DA:152,3
DA:153,4
DA:171,1
DA:172,1
DA:173,1
DA:174,1
DA:175,1
DA:177,1
DA:178,1
DA:180,1
DA:182,1
DA:183,1
DA:186,1
DA:187,1
DA:188,1
DA:190,1
DA:191,1
DA:192,1
DA:193,1
DA:195,1
DA:196,1
DA:197,1
DA:199,1
DA:200,1
DA:203,1
DA:204,1
DA:205,1
DA:206,1
DA:211,1
DA:212,1
DA:213,1
DA:214,1
DA:215,1
DA:217,1
DA:219,1
DA:220,1
DA:223,1
DA:224,1
DA:225,1
DA:226,1
DA:227,1
DA:228,1
DA:229,1
DA:230,1
DA:231,1
DA:232,1
DA:233,1
DA:236,1
DA:238,1
DA:239,1
DA:241,1
DA:242,1
DA:243,1
DA:245,1
DA:246,1
DA:247,1
DA:248,1
DA:249,1
DA:250,1
BRF:0
BRH:0
LF:124
LH:91
end_of_record
SF:/home/irahardianto/works/projects/pathfinder/crates/pathfinder-common/src/git.rs
FN:64,_RINvNtCs9lqQblHgTDM_17pathfinder_common3git23get_changed_files_sinceNtNCNvNtB2_5testss_60test_get_changed_files_since_timeout_returns_timed_out_error013HangingRunnerEB4_
FN:64,_RINvNtCs9lqQblHgTDM_17pathfinder_common3git23get_changed_files_sinceNtNtB2_5tests13FakeGitRunnerEB4_
FN:68,_RNCINvNtCs9lqQblHgTDM_17pathfinder_common3git23get_changed_files_sinceNtNCNvNtB4_5testss_60test_get_changed_files_since_timeout_returns_timed_out_error013HangingRunnerE0B6_
FN:68,_RNCINvNtCs9lqQblHgTDM_17pathfinder_common3git23get_changed_files_sinceNtNtB4_5tests13FakeGitRunnerE0B6_
FN:78,_RNCNCINvNtCs9lqQblHgTDM_17pathfinder_common3git23get_changed_files_sinceNtNCNvNtB6_5testss_60test_get_changed_files_since_timeout_returns_timed_out_error013HangingRunnerE00B8_
FN:78,_RNCNCINvNtCs9lqQblHgTDM_17pathfinder_common3git23get_changed_files_sinceNtNtB6_5tests13FakeGitRunnerE00B8_
FN:125,_RNvMNtNtCs9lqQblHgTDM_17pathfinder_common3git5testsNtB2_13FakeGitRunner2ok
FN:131,_RNvMNtNtCs9lqQblHgTDM_17pathfinder_common3git5testsNtB2_13FakeGitRunner3err
FN:154,_RNvNtNtCs9lqQblHgTDM_17pathfinder_common3git5testss_42test_get_changed_files_since_parses_output
FN:237,_RNvNtNtCs9lqQblHgTDM_17pathfinder_common3git5testss_47test_get_changed_files_since_deduplicates_paths
FN:176,_RNvNtNtCs9lqQblHgTDM_17pathfinder_common3git5testss_48test_get_changed_files_since_ignores_blank_lines
FN:187,_RNvNtNtCs9lqQblHgTDM_17pathfinder_common3git5testss_52test_get_changed_files_since_propagates_runner_error
FN:166,_RNvNtNtCs9lqQblHgTDM_17pathfinder_common3git5testss_59test_get_changed_files_since_empty_output_returns_empty_set
FN:197,_RNvNtNtCs9lqQblHgTDM_17pathfinder_common3git5testss_60test_get_changed_files_since_timeout_returns_timed_out_error
FN:203,_RNvXNCNvNtNtCs9lqQblHgTDM_17pathfinder_common3git5testss_60test_get_changed_files_since_timeout_returns_timed_out_error0NtB2_13HangingRunnerNtB8_9GitRunner14diff_name_only
FN:137,_RNvXs_NtNtCs9lqQblHgTDM_17pathfinder_common3git5testsNtB4_13FakeGitRunnerNtB6_9GitRunner14diff_name_only
FN:154,_RNCNvNtNtCs9lqQblHgTDM_17pathfinder_common3git5testss_42test_get_changed_files_since_parses_output0B7_
FN:237,_RNCNvNtNtCs9lqQblHgTDM_17pathfinder_common3git5testss_47test_get_changed_files_since_deduplicates_paths0B7_
FN:176,_RNCNvNtNtCs9lqQblHgTDM_17pathfinder_common3git5testss_48test_get_changed_files_since_ignores_blank_lines0B7_
FN:187,_RNCNvNtNtCs9lqQblHgTDM_17pathfinder_common3git5testss_52test_get_changed_files_since_propagates_runner_error0B7_
FN:166,_RNCNvNtNtCs9lqQblHgTDM_17pathfinder_common3git5testss_59test_get_changed_files_since_empty_output_returns_empty_set0B7_
FN:197,_RNCNvNtNtCs9lqQblHgTDM_17pathfinder_common3git5testss_60test_get_changed_files_since_timeout_returns_timed_out_error0B7_
FN:207,_RNCNvXNCNvNtNtCs9lqQblHgTDM_17pathfinder_common3git5testss_60test_get_changed_files_since_timeout_returns_timed_out_error0NtB4_13HangingRunnerNtBa_9GitRunner14diff_name_only0Bc_
FN:141,_RNCNvXs_NtNtCs9lqQblHgTDM_17pathfinder_common3git5testsNtB6_13FakeGitRunnerNtB8_9GitRunner14diff_name_only0Ba_
FN:32,_RNCNvXNtCs9lqQblHgTDM_17pathfinder_common3gitNtB4_9SystemGitNtB4_9GitRunner14diff_name_only0B6_
FN:28,_RNvXNtCs9lqQblHgTDM_17pathfinder_common3gitNtB2_9SystemGitNtB2_9GitRunner14diff_name_only
FN:64,_RINvNtCsuZExG01YC8_17pathfinder_common3git23get_changed_files_sinceNtB2_9SystemGitECsb2XMseC3SKs_14pathfinder_lib
FN:68,_RNCINvNtCsuZExG01YC8_17pathfinder_common3git23get_changed_files_sinceNtB4_9SystemGitE0Csb2XMseC3SKs_14pathfinder_lib
FN:78,_RNCNCINvNtCsuZExG01YC8_17pathfinder_common3git23get_changed_files_sinceNtB6_9SystemGitE00Csb2XMseC3SKs_14pathfinder_lib
FN:32,_RNCNvXNtCsuZExG01YC8_17pathfinder_common3gitNtB4_9SystemGitNtB4_9GitRunner14diff_name_only0Csb2XMseC3SKs_14pathfinder_lib
FN:28,_RNvXNtCsuZExG01YC8_17pathfinder_common3gitNtB2_9SystemGitNtB2_9GitRunner14diff_name_only
FN:64,_RINvNtCsuZExG01YC8_17pathfinder_common3git23get_changed_files_sinceNtB2_9SystemGitECs7Fw43FPylcK_14pathfinder_mcp
FN:68,_RNCINvNtCsuZExG01YC8_17pathfinder_common3git23get_changed_files_sinceNtB4_9SystemGitE0Cs7Fw43FPylcK_14pathfinder_mcp
FN:78,_RNCNCINvNtCsuZExG01YC8_17pathfinder_common3git23get_changed_files_sinceNtB6_9SystemGitE00Cs7Fw43FPylcK_14pathfinder_mcp
FN:32,_RNCNvXNtCsuZExG01YC8_17pathfinder_common3gitNtB4_9SystemGitNtB4_9GitRunner14diff_name_only0Cs7Fw43FPylcK_14pathfinder_mcp
FN:64,_RINvNtCsuZExG01YC8_17pathfinder_common3git23get_changed_files_sinceNtB2_9SystemGitECsaBz7PZGcJGm_14pathfinder_mcp
FN:68,_RNCINvNtCsuZExG01YC8_17pathfinder_common3git23get_changed_files_sinceNtB4_9SystemGitE0CsaBz7PZGcJGm_14pathfinder_mcp
FN:78,_RNCNCINvNtCsuZExG01YC8_17pathfinder_common3git23get_changed_files_sinceNtB6_9SystemGitE00CsaBz7PZGcJGm_14pathfinder_mcp
FN:32,_RNCNvXNtCsuZExG01YC8_17pathfinder_common3gitNtB4_9SystemGitNtB4_9GitRunner14diff_name_only0CsaBz7PZGcJGm_14pathfinder_mcp
FN:64,_RINvNtCsuZExG01YC8_17pathfinder_common3git23get_changed_files_sinceNtB2_9SystemGitECs1vjPnMfgdgZ_14pathfinder_lib
FN:68,_RNCINvNtCsuZExG01YC8_17pathfinder_common3git23get_changed_files_sinceNtB4_9SystemGitE0Cs1vjPnMfgdgZ_14pathfinder_lib
FN:78,_RNCNCINvNtCsuZExG01YC8_17pathfinder_common3git23get_changed_files_sinceNtB6_9SystemGitE00Cs1vjPnMfgdgZ_14pathfinder_lib
FN:32,_RNCNvXNtCsuZExG01YC8_17pathfinder_common3gitNtB4_9SystemGitNtB4_9GitRunner14diff_name_only0Cs1vjPnMfgdgZ_14pathfinder_lib
FNDA:1,_RINvNtCs9lqQblHgTDM_17pathfinder_common3git23get_changed_files_sinceNtNCNvNtB2_5testss_60test_get_changed_files_since_timeout_returns_timed_out_error013HangingRunnerEB4_
FNDA:5,_RINvNtCs9lqQblHgTDM_17pathfinder_common3git23get_changed_files_sinceNtNtB2_5tests13FakeGitRunnerEB4_
FNDA:1,_RNCINvNtCs9lqQblHgTDM_17pathfinder_common3git23get_changed_files_sinceNtNCNvNtB4_5testss_60test_get_changed_files_since_timeout_returns_timed_out_error013HangingRunnerE0B6_
FNDA:5,_RNCINvNtCs9lqQblHgTDM_17pathfinder_common3git23get_changed_files_sinceNtNtB4_5tests13FakeGitRunnerE0B6_
FNDA:1,_RNCNCINvNtCs9lqQblHgTDM_17pathfinder_common3git23get_changed_files_sinceNtNCNvNtB6_5testss_60test_get_changed_files_since_timeout_returns_timed_out_error013HangingRunnerE00B8_
FNDA:0,_RNCNCINvNtCs9lqQblHgTDM_17pathfinder_common3git23get_changed_files_sinceNtNtB6_5tests13FakeGitRunnerE00B8_
FNDA:4,_RNvMNtNtCs9lqQblHgTDM_17pathfinder_common3git5testsNtB2_13FakeGitRunner2ok
FNDA:1,_RNvMNtNtCs9lqQblHgTDM_17pathfinder_common3git5testsNtB2_13FakeGitRunner3err
FNDA:1,_RNvNtNtCs9lqQblHgTDM_17pathfinder_common3git5testss_42test_get_changed_files_since_parses_output
FNDA:1,_RNvNtNtCs9lqQblHgTDM_17pathfinder_common3git5testss_47test_get_changed_files_since_deduplicates_paths
FNDA:1,_RNvNtNtCs9lqQblHgTDM_17pathfinder_common3git5testss_48test_get_changed_files_since_ignores_blank_lines
FNDA:1,_RNvNtNtCs9lqQblHgTDM_17pathfinder_common3git5testss_52test_get_changed_files_since_propagates_runner_error
FNDA:1,_RNvNtNtCs9lqQblHgTDM_17pathfinder_common3git5testss_59test_get_changed_files_since_empty_output_returns_empty_set
FNDA:1,_RNvNtNtCs9lqQblHgTDM_17pathfinder_common3git5testss_60test_get_changed_files_since_timeout_returns_timed_out_error
FNDA:1,_RNvXNCNvNtNtCs9lqQblHgTDM_17pathfinder_common3git5testss_60test_get_changed_files_since_timeout_returns_timed_out_error0NtB2_13HangingRunnerNtB8_9GitRunner14diff_name_only
FNDA:5,_RNvXs_NtNtCs9lqQblHgTDM_17pathfinder_common3git5testsNtB4_13FakeGitRunnerNtB6_9GitRunner14diff_name_only
FNDA:1,_RNCNvNtNtCs9lqQblHgTDM_17pathfinder_common3git5testss_42test_get_changed_files_since_parses_output0B7_
FNDA:1,_RNCNvNtNtCs9lqQblHgTDM_17pathfinder_common3git5testss_47test_get_changed_files_since_deduplicates_paths0B7_
FNDA:1,_RNCNvNtNtCs9lqQblHgTDM_17pathfinder_common3git5testss_48test_get_changed_files_since_ignores_blank_lines0B7_
FNDA:1,_RNCNvNtNtCs9lqQblHgTDM_17pathfinder_common3git5testss_52test_get_changed_files_since_propagates_runner_error0B7_
FNDA:1,_RNCNvNtNtCs9lqQblHgTDM_17pathfinder_common3git5testss_59test_get_changed_files_since_empty_output_returns_empty_set0B7_
FNDA:1,_RNCNvNtNtCs9lqQblHgTDM_17pathfinder_common3git5testss_60test_get_changed_files_since_timeout_returns_timed_out_error0B7_
FNDA:1,_RNCNvXNCNvNtNtCs9lqQblHgTDM_17pathfinder_common3git5testss_60test_get_changed_files_since_timeout_returns_timed_out_error0NtB4_13HangingRunnerNtBa_9GitRunner14diff_name_only0Bc_
FNDA:5,_RNCNvXs_NtNtCs9lqQblHgTDM_17pathfinder_common3git5testsNtB6_13FakeGitRunnerNtB8_9GitRunner14diff_name_only0Ba_
FNDA:0,_RNCNvXNtCs9lqQblHgTDM_17pathfinder_common3gitNtB4_9SystemGitNtB4_9GitRunner14diff_name_only0B6_
FNDA:0,_RNvXNtCs9lqQblHgTDM_17pathfinder_common3gitNtB2_9SystemGitNtB2_9GitRunner14diff_name_only
FNDA:0,_RINvNtCsuZExG01YC8_17pathfinder_common3git23get_changed_files_sinceNtB2_9SystemGitECsb2XMseC3SKs_14pathfinder_lib
FNDA:0,_RNCINvNtCsuZExG01YC8_17pathfinder_common3git23get_changed_files_sinceNtB4_9SystemGitE0Csb2XMseC3SKs_14pathfinder_lib
FNDA:0,_RNCNCINvNtCsuZExG01YC8_17pathfinder_common3git23get_changed_files_sinceNtB6_9SystemGitE00Csb2XMseC3SKs_14pathfinder_lib
FNDA:0,_RNCNvXNtCsuZExG01YC8_17pathfinder_common3gitNtB4_9SystemGitNtB4_9GitRunner14diff_name_only0Csb2XMseC3SKs_14pathfinder_lib
FNDA:0,_RNvXNtCsuZExG01YC8_17pathfinder_common3gitNtB2_9SystemGitNtB2_9GitRunner14diff_name_only
FNDA:0,_RINvNtCsuZExG01YC8_17pathfinder_common3git23get_changed_files_sinceNtB2_9SystemGitECs7Fw43FPylcK_14pathfinder_mcp
FNDA:0,_RNCINvNtCsuZExG01YC8_17pathfinder_common3git23get_changed_files_sinceNtB4_9SystemGitE0Cs7Fw43FPylcK_14pathfinder_mcp
FNDA:0,_RNCNCINvNtCsuZExG01YC8_17pathfinder_common3git23get_changed_files_sinceNtB6_9SystemGitE00Cs7Fw43FPylcK_14pathfinder_mcp
FNDA:0,_RNCNvXNtCsuZExG01YC8_17pathfinder_common3gitNtB4_9SystemGitNtB4_9GitRunner14diff_name_only0Cs7Fw43FPylcK_14pathfinder_mcp
FNDA:0,_RINvNtCsuZExG01YC8_17pathfinder_common3git23get_changed_files_sinceNtB2_9SystemGitECsaBz7PZGcJGm_14pathfinder_mcp
FNDA:0,_RNCINvNtCsuZExG01YC8_17pathfinder_common3git23get_changed_files_sinceNtB4_9SystemGitE0CsaBz7PZGcJGm_14pathfinder_mcp
FNDA:0,_RNCNCINvNtCsuZExG01YC8_17pathfinder_common3git23get_changed_files_sinceNtB6_9SystemGitE00CsaBz7PZGcJGm_14pathfinder_mcp
FNDA:0,_RNCNvXNtCsuZExG01YC8_17pathfinder_common3gitNtB4_9SystemGitNtB4_9GitRunner14diff_name_only0CsaBz7PZGcJGm_14pathfinder_mcp
FNDA:0,_RINvNtCsuZExG01YC8_17pathfinder_common3git23get_changed_files_sinceNtB2_9SystemGitECs1vjPnMfgdgZ_14pathfinder_lib
FNDA:0,_RNCINvNtCsuZExG01YC8_17pathfinder_common3git23get_changed_files_sinceNtB4_9SystemGitE0Cs1vjPnMfgdgZ_14pathfinder_lib
FNDA:0,_RNCNCINvNtCsuZExG01YC8_17pathfinder_common3git23get_changed_files_sinceNtB6_9SystemGitE00Cs1vjPnMfgdgZ_14pathfinder_lib
FNDA:0,_RNCNvXNtCsuZExG01YC8_17pathfinder_common3gitNtB4_9SystemGitNtB4_9GitRunner14diff_name_only0Cs1vjPnMfgdgZ_14pathfinder_lib
FNF:23
FNH:21
DA:28,0
DA:29,0
DA:30,0
DA:31,0
DA:32,0
DA:33,0
DA:34,0
DA:35,0
DA:36,0
DA:37,0
DA:39,0
DA:40,0
DA:41,0
DA:42,0
DA:43,0
DA:44,0
DA:46,0
DA:47,0
DA:64,6
DA:65,6
DA:66,6
DA:67,6
DA:68,6
DA:69,6
DA:72,0
DA:76,6
DA:77,6
DA:78,6
DA:79,1
DA:82,0
DA:85,1
DA:86,1
DA:87,1
DA:89,1
DA:91,4
DA:92,4
DA:93,8
DA:94,8
DA:95,6
DA:96,6
DA:99,4
DA:102,0
DA:106,4
DA:107,6
DA:125,4
DA:126,4
DA:127,4
DA:128,4
DA:129,4
DA:131,1
DA:132,1
DA:133,1
DA:137,5
DA:138,5
DA:139,5
DA:140,5
DA:141,5
DA:142,5
DA:143,4
DA:144,1
DA:146,5
DA:154,1
DA:155,1
DA:156,1
DA:157,1
DA:158,1
DA:160,1
DA:161,1
DA:162,1
DA:163,1
DA:166,1
DA:167,1
DA:168,1
DA:169,1
DA:170,1
DA:172,1
DA:173,1
DA:176,1
DA:178,1
DA:179,1
DA:180,1
DA:181,1
DA:183,1
DA:184,1
DA:187,1
DA:188,1
DA:189,1
DA:190,1
DA:191,1
DA:193,1
DA:194,1
DA:197,1
DA:203,1
DA:204,1
DA:205,1
DA:206,1
DA:207,1
DA:209,1
DA:210,0
DA:211,0
DA:215,1
DA:217,1
DA:218,1
DA:219,1
DA:222,1
DA:223,1
DA:224,1
DA:225,1
DA:230,1
DA:232,1
DA:233,1
DA:234,1
DA:237,1
DA:239,1
DA:240,1
DA:241,1
DA:242,1
DA:244,1
DA:245,1
BRF:0
BRH:0
LF:137
LH:113
end_of_record
SF:/home/irahardianto/works/projects/pathfinder/crates/pathfinder-common/src/indent.rs
FN:41,_RNCNvNtCs9lqQblHgTDM_17pathfinder_common6indent10min_indent0B5_
FN:42,_RNCNvNtCs9lqQblHgTDM_17pathfinder_common6indent10min_indents_0B5_
FN:65,_RNCNvNtCs9lqQblHgTDM_17pathfinder_common6indent6dedent0B5_
FN:89,_RNCNvNtCs9lqQblHgTDM_17pathfinder_common6indent8reindent0B5_
FN:39,_RNvNtCs9lqQblHgTDM_17pathfinder_common6indent10min_indent
FN:13,_RNvNtCs9lqQblHgTDM_17pathfinder_common6indent11expand_tabs
FN:114,_RNvNtCs9lqQblHgTDM_17pathfinder_common6indent20dedent_then_reindent
FN:58,_RNvNtCs9lqQblHgTDM_17pathfinder_common6indent6dedent
FN:82,_RNvNtCs9lqQblHgTDM_17pathfinder_common6indent8reindent
FN:169,_RNvNtNtCs9lqQblHgTDM_17pathfinder_common6indent5testss_22test_reindent_column_8
FN:127,_RNvNtNtCs9lqQblHgTDM_17pathfinder_common6indent5testss_23test_dedent_four_spaces
FN:161,_RNvNtNtCs9lqQblHgTDM_17pathfinder_common6indent5testss_23test_dedent_single_line
FN:176,_RNvNtNtCs9lqQblHgTDM_17pathfinder_common6indent5testss_33test_reindent_column_zero_is_noop
FN:147,_RNvNtNtCs9lqQblHgTDM_17pathfinder_common6indent5testss_34test_dedent_already_at_column_zero
FN:191,_RNvNtNtCs9lqQblHgTDM_17pathfinder_common6indent5testss_34test_dedent_then_reindent_pipeline
FN:182,_RNvNtNtCs9lqQblHgTDM_17pathfinder_common6indent5testss_36test_reindent_blank_lines_not_padded
FN:133,_RNvNtNtCs9lqQblHgTDM_17pathfinder_common6indent5testss_37test_dedent_mixed_indent_uses_minimum
FN:140,_RNvNtNtCs9lqQblHgTDM_17pathfinder_common6indent5testss_38test_dedent_empty_lines_ignored_in_min
FN:198,_RNvNtNtCs9lqQblHgTDM_17pathfinder_common6indent5testss_42test_dedent_then_reindent_no_double_indent
FN:153,_RNvNtNtCs9lqQblHgTDM_17pathfinder_common6indent5testss_45test_dedent_tab_indented_normalises_to_spaces
FN:207,_RNvNtNtCs9lqQblHgTDM_17pathfinder_common6indent5testss_46test_dedent_then_reindent_multiline_with_blank
FN:41,_RNCNvNtCsuZExG01YC8_17pathfinder_common6indent10min_indent0B5_
FN:42,_RNCNvNtCsuZExG01YC8_17pathfinder_common6indent10min_indents_0B5_
FN:65,_RNCNvNtCsuZExG01YC8_17pathfinder_common6indent6dedent0B5_
FN:89,_RNCNvNtCsuZExG01YC8_17pathfinder_common6indent8reindent0B5_
FN:39,_RNvNtCsuZExG01YC8_17pathfinder_common6indent10min_indent
FN:13,_RNvNtCsuZExG01YC8_17pathfinder_common6indent11expand_tabs
FN:114,_RNvNtCsuZExG01YC8_17pathfinder_common6indent20dedent_then_reindent
FN:58,_RNvNtCsuZExG01YC8_17pathfinder_common6indent6dedent
FN:82,_RNvNtCsuZExG01YC8_17pathfinder_common6indent8reindent
FNDA:19,_RNCNvNtCs9lqQblHgTDM_17pathfinder_common6indent10min_indent0B5_
FNDA:17,_RNCNvNtCs9lqQblHgTDM_17pathfinder_common6indent10min_indents_0B5_
FNDA:17,_RNCNvNtCs9lqQblHgTDM_17pathfinder_common6indent6dedent0B5_
FNDA:12,_RNCNvNtCs9lqQblHgTDM_17pathfinder_common6indent8reindent0B5_
FNDA:9,_RNvNtCs9lqQblHgTDM_17pathfinder_common6indent10min_indent
FNDA:34,_RNvNtCs9lqQblHgTDM_17pathfinder_common6indent11expand_tabs
FNDA:3,_RNvNtCs9lqQblHgTDM_17pathfinder_common6indent20dedent_then_reindent
FNDA:9,_RNvNtCs9lqQblHgTDM_17pathfinder_common6indent6dedent
FNDA:6,_RNvNtCs9lqQblHgTDM_17pathfinder_common6indent8reindent
FNDA:1,_RNvNtNtCs9lqQblHgTDM_17pathfinder_common6indent5testss_22test_reindent_column_8
FNDA:1,_RNvNtNtCs9lqQblHgTDM_17pathfinder_common6indent5testss_23test_dedent_four_spaces
FNDA:1,_RNvNtNtCs9lqQblHgTDM_17pathfinder_common6indent5testss_23test_dedent_single_line
FNDA:1,_RNvNtNtCs9lqQblHgTDM_17pathfinder_common6indent5testss_33test_reindent_column_zero_is_noop
FNDA:1,_RNvNtNtCs9lqQblHgTDM_17pathfinder_common6indent5testss_34test_dedent_already_at_column_zero
FNDA:1,_RNvNtNtCs9lqQblHgTDM_17pathfinder_common6indent5testss_34test_dedent_then_reindent_pipeline
FNDA:1,_RNvNtNtCs9lqQblHgTDM_17pathfinder_common6indent5testss_36test_reindent_blank_lines_not_padded
FNDA:1,_RNvNtNtCs9lqQblHgTDM_17pathfinder_common6indent5testss_37test_dedent_mixed_indent_uses_minimum
FNDA:1,_RNvNtNtCs9lqQblHgTDM_17pathfinder_common6indent5testss_38test_dedent_empty_lines_ignored_in_min
FNDA:1,_RNvNtNtCs9lqQblHgTDM_17pathfinder_common6indent5testss_42test_dedent_then_reindent_no_double_indent
FNDA:1,_RNvNtNtCs9lqQblHgTDM_17pathfinder_common6indent5testss_45test_dedent_tab_indented_normalises_to_spaces
FNDA:1,_RNvNtNtCs9lqQblHgTDM_17pathfinder_common6indent5testss_46test_dedent_then_reindent_multiline_with_blank
FNDA:86,_RNCNvNtCsuZExG01YC8_17pathfinder_common6indent10min_indent0B5_
FNDA:86,_RNCNvNtCsuZExG01YC8_17pathfinder_common6indent10min_indents_0B5_
FNDA:30,_RNCNvNtCsuZExG01YC8_17pathfinder_common6indent6dedent0B5_
FNDA:24,_RNCNvNtCsuZExG01YC8_17pathfinder_common6indent8reindent0B5_
FNDA:82,_RNvNtCsuZExG01YC8_17pathfinder_common6indent10min_indent
FNDA:116,_RNvNtCsuZExG01YC8_17pathfinder_common6indent11expand_tabs
FNDA:82,_RNvNtCsuZExG01YC8_17pathfinder_common6indent20dedent_then_reindent
FNDA:82,_RNvNtCsuZExG01YC8_17pathfinder_common6indent6dedent
FNDA:82,_RNvNtCsuZExG01YC8_17pathfinder_common6indent8reindent
FNF:21
FNH:21
DA:13,150
DA:14,150
DA:15,150
DA:16,1590
DA:17,1590
DA:18,8
DA:19,32
DA:20,32
DA:21,32
DA:22,8
DA:23,1582
DA:24,1582
DA:25,1582
DA:26,1582
DA:28,150
DA:29,150
DA:39,91
DA:40,91
DA:41,105
DA:42,103
DA:43,103
DA:44,103
DA:45,103
DA:46,91
DA:47,91
DA:48,91
DA:58,91
DA:59,91
DA:60,91
DA:61,53
DA:62,38
DA:64,38
DA:65,47
DA:66,47
DA:67,47
DA:68,45
DA:71,2
DA:73,47
DA:74,38
DA:75,38
DA:76,91
DA:82,88
DA:83,88
DA:84,59
DA:85,29
DA:87,29
DA:88,29
DA:89,36
DA:90,36
DA:91,2
DA:93,34
DA:95,36
DA:96,29
DA:97,29
DA:98,88
DA:114,85
DA:115,85
DA:116,85
DA:117,85
DA:127,1
DA:128,1
DA:129,1
DA:130,1
DA:133,1
DA:135,1
DA:136,1
DA:137,1
DA:140,1
DA:142,1
DA:143,1
DA:144,1
DA:147,1
DA:148,1
DA:149,1
DA:150,1
DA:153,1
DA:155,1
DA:156,1
DA:157,1
DA:158,1
DA:161,1
DA:162,1
DA:163,1
DA:164,1
DA:169,1
DA:170,1
DA:171,1
DA:172,1
DA:173,1
DA:176,1
DA:177,1
DA:178,1
DA:179,1
DA:182,1
DA:183,1
DA:184,1
DA:185,1
DA:186,1
DA:191,1
DA:192,1
DA:193,1
DA:194,1
DA:195,1
DA:198,1
DA:201,1
DA:202,1
DA:203,1
DA:204,1
DA:207,1
DA:208,1
DA:209,1
DA:212,1
DA:213,1
BRF:0
BRH:0
LF:117
LH:117
end_of_record
SF:/home/irahardianto/works/projects/pathfinder/crates/pathfinder-common/src/normalize.rs
FN:61,_RNvNtCs9lqQblHgTDM_17pathfinder_common9normalize18strip_outer_braces
FN:22,_RNvNtCs9lqQblHgTDM_17pathfinder_common9normalize21strip_markdown_fences
FN:100,_RNvNtCs9lqQblHgTDM_17pathfinder_common9normalize22normalize_line_endings
FN:115,_RNvNtCs9lqQblHgTDM_17pathfinder_common9normalize26normalize_for_body_replace
FN:212,_RNvNtNtCs9lqQblHgTDM_17pathfinder_common9normalize5testss_25test_normalize_crlf_to_lf
FN:174,_RNvNtNtCs9lqQblHgTDM_17pathfinder_common9normalize5testss_30test_strip_outer_braces_simple
FN:243,_RNvNtNtCs9lqQblHgTDM_17pathfinder_common9normalize5testss_33test_normalize_full_pipeline_crlf
FN:180,_RNvNtNtCs9lqQblHgTDM_17pathfinder_common9normalize5testss_33test_strip_outer_braces_multiline
FN:201,_RNvNtNtCs9lqQblHgTDM_17pathfinder_common9normalize5testss_33test_strip_outer_braces_unmatched
FN:147,_RNvNtNtCs9lqQblHgTDM_17pathfinder_common9normalize5testss_34test_strip_markdown_fences_no_lang
FN:195,_RNvNtNtCs9lqQblHgTDM_17pathfinder_common9normalize5testss_35test_strip_outer_braces_not_wrapped
FN:166,_RNvNtNtCs9lqQblHgTDM_17pathfinder_common9normalize5testss_36test_strip_markdown_fences_multiline
FN:141,_RNvNtNtCs9lqQblHgTDM_17pathfinder_common9normalize5testss_36test_strip_markdown_fences_with_lang
FN:219,_RNvNtNtCs9lqQblHgTDM_17pathfinder_common9normalize5testss_37test_normalize_already_lf_is_borrowed
FN:236,_RNvNtNtCs9lqQblHgTDM_17pathfinder_common9normalize5testss_39test_normalize_full_pipeline_plain_code
FN:228,_RNvNtNtCs9lqQblHgTDM_17pathfinder_common9normalize5testss_45test_normalize_full_pipeline_fence_and_braces
FN:159,_RNvNtNtCs9lqQblHgTDM_17pathfinder_common9normalize5testss_46test_strip_markdown_fences_passthrough_partial
FN:187,_RNvNtNtCs9lqQblHgTDM_17pathfinder_common9normalize5testss_46test_strip_outer_braces_nested_inner_preserved
FN:153,_RNvNtNtCs9lqQblHgTDM_17pathfinder_common9normalize5testss_48test_strip_markdown_fences_passthrough_no_fences
FN:128,_RNvNtCs9lqQblHgTDM_17pathfinder_common9normalize26normalize_for_full_replace
FN:61,_RNvNtCsuZExG01YC8_17pathfinder_common9normalize18strip_outer_braces
FN:22,_RNvNtCsuZExG01YC8_17pathfinder_common9normalize21strip_markdown_fences
FN:100,_RNvNtCsuZExG01YC8_17pathfinder_common9normalize22normalize_line_endings
FN:115,_RNvNtCsuZExG01YC8_17pathfinder_common9normalize26normalize_for_body_replace
FN:128,_RNvNtCsuZExG01YC8_17pathfinder_common9normalize26normalize_for_full_replace
FNDA:8,_RNvNtCs9lqQblHgTDM_17pathfinder_common9normalize18strip_outer_braces
FNDA:8,_RNvNtCs9lqQblHgTDM_17pathfinder_common9normalize21strip_markdown_fences
FNDA:5,_RNvNtCs9lqQblHgTDM_17pathfinder_common9normalize22normalize_line_endings
FNDA:3,_RNvNtCs9lqQblHgTDM_17pathfinder_common9normalize26normalize_for_body_replace
FNDA:1,_RNvNtNtCs9lqQblHgTDM_17pathfinder_common9normalize5testss_25test_normalize_crlf_to_lf
FNDA:1,_RNvNtNtCs9lqQblHgTDM_17pathfinder_common9normalize5testss_30test_strip_outer_braces_simple
FNDA:1,_RNvNtNtCs9lqQblHgTDM_17pathfinder_common9normalize5testss_33test_normalize_full_pipeline_crlf
FNDA:1,_RNvNtNtCs9lqQblHgTDM_17pathfinder_common9normalize5testss_33test_strip_outer_braces_multiline
FNDA:1,_RNvNtNtCs9lqQblHgTDM_17pathfinder_common9normalize5testss_33test_strip_outer_braces_unmatched
FNDA:1,_RNvNtNtCs9lqQblHgTDM_17pathfinder_common9normalize5testss_34test_strip_markdown_fences_no_lang
FNDA:1,_RNvNtNtCs9lqQblHgTDM_17pathfinder_common9normalize5testss_35test_strip_outer_braces_not_wrapped
FNDA:1,_RNvNtNtCs9lqQblHgTDM_17pathfinder_common9normalize5testss_36test_strip_markdown_fences_multiline
FNDA:1,_RNvNtNtCs9lqQblHgTDM_17pathfinder_common9normalize5testss_36test_strip_markdown_fences_with_lang
FNDA:1,_RNvNtNtCs9lqQblHgTDM_17pathfinder_common9normalize5testss_37test_normalize_already_lf_is_borrowed
FNDA:1,_RNvNtNtCs9lqQblHgTDM_17pathfinder_common9normalize5testss_39test_normalize_full_pipeline_plain_code
FNDA:1,_RNvNtNtCs9lqQblHgTDM_17pathfinder_common9normalize5testss_45test_normalize_full_pipeline_fence_and_braces
FNDA:1,_RNvNtNtCs9lqQblHgTDM_17pathfinder_common9normalize5testss_46test_strip_markdown_fences_passthrough_partial
FNDA:1,_RNvNtNtCs9lqQblHgTDM_17pathfinder_common9normalize5testss_46test_strip_outer_braces_nested_inner_preserved
FNDA:1,_RNvNtNtCs9lqQblHgTDM_17pathfinder_common9normalize5testss_48test_strip_markdown_fences_passthrough_no_fences
FNDA:0,_RNvNtCs9lqQblHgTDM_17pathfinder_common9normalize26normalize_for_full_replace
FNDA:52,_RNvNtCsuZExG01YC8_17pathfinder_common9normalize18strip_outer_braces
FNDA:82,_RNvNtCsuZExG01YC8_17pathfinder_common9normalize21strip_markdown_fences
FNDA:82,_RNvNtCsuZExG01YC8_17pathfinder_common9normalize22normalize_line_endings
FNDA:52,_RNvNtCsuZExG01YC8_17pathfinder_common9normalize26normalize_for_body_replace
FNDA:30,_RNvNtCsuZExG01YC8_17pathfinder_common9normalize26normalize_for_full_replace
FNF:20
FNH:20
DA:22,90
DA:23,90
DA:26,90
DA:27,85
DA:31,5
DA:32,1
DA:33,4
DA:36,4
DA:39,4
DA:40,0
DA:44,4
DA:45,90
DA:61,60
DA:62,60
DA:64,60
DA:65,53
DA:66,7
DA:69,7
DA:70,7
DA:71,100
DA:72,100
DA:73,8
DA:75,8
DA:76,8
DA:77,7
DA:78,7
DA:79,1
DA:81,84
DA:86,7
DA:87,7
DA:89,6
DA:91,1
DA:93,60
DA:100,87
DA:101,87
DA:102,2
DA:104,85
DA:106,87
DA:115,55
DA:116,55
DA:117,55
DA:118,55
DA:119,55
DA:128,30
DA:129,30
DA:130,30
DA:131,30
DA:141,1
DA:142,1
DA:143,1
DA:144,1
DA:147,1
DA:148,1
DA:149,1
DA:150,1
DA:153,1
DA:154,1
DA:155,1
DA:156,1
DA:159,1
DA:160,1
DA:162,1
DA:163,1
DA:166,1
DA:167,1
DA:168,1
DA:169,1
DA:174,1
DA:175,1
DA:176,1
DA:177,1
DA:180,1
DA:181,1
DA:182,1
DA:183,1
DA:184,1
DA:187,1
DA:188,1
DA:189,1
DA:191,1
DA:192,1
DA:195,1
DA:196,1
DA:197,1
DA:198,1
DA:201,1
DA:203,1
DA:206,1
DA:207,1
DA:212,1
DA:213,1
DA:214,1
DA:215,1
DA:216,1
DA:219,1
DA:220,1
DA:221,1
DA:222,1
DA:223,1
DA:228,1
DA:229,1
DA:230,1
DA:232,1
DA:233,1
DA:236,1
DA:237,1
DA:238,1
DA:239,1
DA:240,1
DA:243,1
DA:244,1
DA:245,1
DA:246,1
DA:247,1
BRF:0
BRH:0
LF:114
LH:113
end_of_record
SF:/home/irahardianto/works/projects/pathfinder/crates/pathfinder-common/src/sandbox.rs
FN:303,_RNvNtNtCs9lqQblHgTDM_17pathfinder_common7sandbox5tests15default_sandbox
FN:330,_RNvNtNtCs9lqQblHgTDM_17pathfinder_common7sandbox5testss_18test_git_allowlist
FN:360,_RNvNtNtCs9lqQblHgTDM_17pathfinder_common7sandbox5testss_19test_allow_override
FN:371,_RNvNtNtCs9lqQblHgTDM_17pathfinder_common7sandbox5testss_20test_additional_deny
FN:340,_RNvNtNtCs9lqQblHgTDM_17pathfinder_common7sandbox5testss_21test_default_deny_env
FN:354,_RNvNtNtCs9lqQblHgTDM_17pathfinder_common7sandbox5testss_24test_default_deny_vendor
FN:322,_RNvNtNtCs9lqQblHgTDM_17pathfinder_common7sandbox5testss_28test_hardcoded_deny_pem_file
FN:346,_RNvNtNtCs9lqQblHgTDM_17pathfinder_common7sandbox5testss_30test_default_deny_node_modules
FN:312,_RNvNtNtCs9lqQblHgTDM_17pathfinder_common7sandbox5testss_31test_hardcoded_deny_git_objects
FN:426,_RNvNtNtCs9lqQblHgTDM_17pathfinder_common7sandbox5testss_32test_normal_source_files_allowed
FN:462,_RNvNtNtCs9lqQblHgTDM_17pathfinder_common7sandbox5testss_36test_with_user_rules_injected_ignore
FN:450,_RNvNtNtCs9lqQblHgTDM_17pathfinder_common7sandbox5testss_37test_with_user_rules_none_skips_tier3
FN:435,_RNvNtNtCs9lqQblHgTDM_17pathfinder_common7sandbox5testss_40test_hardcoded_deny_cannot_be_overridden
FN:502,_RNvNtNtCs9lqQblHgTDM_17pathfinder_common7sandbox5testss_41test_cross_workspace_absolute_path_denied
FN:484,_RNvNtNtCs9lqQblHgTDM_17pathfinder_common7sandbox5testss_41test_same_workspace_absolute_path_allowed
FN:407,_RNvNtNtCs9lqQblHgTDM_17pathfinder_common7sandbox5testss_53test_additional_deny_directory_pattern_no_prefix_leak
FN:386,_RNvNtNtCs9lqQblHgTDM_17pathfinder_common7sandbox5testss_55test_additional_deny_bare_word_does_not_substring_match
FN:102,_RNCNCNvMNtCs9lqQblHgTDM_17pathfinder_common7sandboxNtB6_7Sandbox15with_user_rules00B8_
FN:102,_RNCNvMNtCs9lqQblHgTDM_17pathfinder_common7sandboxNtB4_7Sandbox15with_user_rules0B6_
FN:103,_RNCNvMNtCs9lqQblHgTDM_17pathfinder_common7sandboxNtB4_7Sandbox15with_user_ruless_0B6_
FN:217,_RNCNvMNtCs9lqQblHgTDM_17pathfinder_common7sandboxNtB4_7Sandbox17is_default_denied0B6_
FN:205,_RNCNvMNtCs9lqQblHgTDM_17pathfinder_common7sandboxNtB4_7Sandbox19is_hardcoded_denied0B6_
FN:274,_RNCNvMNtCs9lqQblHgTDM_17pathfinder_common7sandboxNtB4_7Sandbox20is_additional_denied0B6_
FN:140,_RNCNvMNtCs9lqQblHgTDM_17pathfinder_common7sandboxNtB4_7Sandbox5check0B6_
FN:19,_RNCNvNtCs9lqQblHgTDM_17pathfinder_common7sandbox13path_basename0B5_
FN:19,_RNCNvNtCs9lqQblHgTDM_17pathfinder_common7sandbox13path_basenames_0B5_
FN:283,_RNvMNtCs9lqQblHgTDM_17pathfinder_common7sandboxNtB2_7Sandbox14is_user_denied
FN:94,_RNvMNtCs9lqQblHgTDM_17pathfinder_common7sandboxNtB2_7Sandbox15with_user_rules
FN:214,_RNvMNtCs9lqQblHgTDM_17pathfinder_common7sandboxNtB2_7Sandbox17is_default_denied
FN:185,_RNvMNtCs9lqQblHgTDM_17pathfinder_common7sandboxNtB2_7Sandbox19is_hardcoded_denied
FN:250,_RNvMNtCs9lqQblHgTDM_17pathfinder_common7sandboxNtB2_7Sandbox20is_additional_denied
FN:245,_RNvMNtCs9lqQblHgTDM_17pathfinder_common7sandboxNtB2_7Sandbox21matches_exact_pattern
FN:220,_RNvMNtCs9lqQblHgTDM_17pathfinder_common7sandboxNtB2_7Sandbox23matches_default_pattern
FN:237,_RNvMNtCs9lqQblHgTDM_17pathfinder_common7sandboxNtB2_7Sandbox24matches_wildcard_pattern
FN:230,_RNvMNtCs9lqQblHgTDM_17pathfinder_common7sandboxNtB2_7Sandbox25matches_directory_pattern
FN:118,_RNvMNtCs9lqQblHgTDM_17pathfinder_common7sandboxNtB2_7Sandbox5check
FN:16,_RNvNtCs9lqQblHgTDM_17pathfinder_common7sandbox13path_basename
FN:74,_RNvMNtCs9lqQblHgTDM_17pathfinder_common7sandboxNtB2_7Sandbox3new
FN:283,_RNvMNtCsuZExG01YC8_17pathfinder_common7sandboxNtB2_7Sandbox14is_user_denied
FN:94,_RNvMNtCsuZExG01YC8_17pathfinder_common7sandboxNtB2_7Sandbox15with_user_rules
FN:214,_RNvMNtCsuZExG01YC8_17pathfinder_common7sandboxNtB2_7Sandbox17is_default_denied
FN:185,_RNvMNtCsuZExG01YC8_17pathfinder_common7sandboxNtB2_7Sandbox19is_hardcoded_denied
FN:250,_RNvMNtCsuZExG01YC8_17pathfinder_common7sandboxNtB2_7Sandbox20is_additional_denied
FN:245,_RNvMNtCsuZExG01YC8_17pathfinder_common7sandboxNtB2_7Sandbox21matches_exact_pattern
FN:220,_RNvMNtCsuZExG01YC8_17pathfinder_common7sandboxNtB2_7Sandbox23matches_default_pattern
FN:237,_RNvMNtCsuZExG01YC8_17pathfinder_common7sandboxNtB2_7Sandbox24matches_wildcard_pattern
FN:230,_RNvMNtCsuZExG01YC8_17pathfinder_common7sandboxNtB2_7Sandbox25matches_directory_pattern
FN:74,_RNvMNtCsuZExG01YC8_17pathfinder_common7sandboxNtB2_7Sandbox3new
FN:118,_RNvMNtCsuZExG01YC8_17pathfinder_common7sandboxNtB2_7Sandbox5check
FN:16,_RNvNtCsuZExG01YC8_17pathfinder_common7sandbox13path_basename
FN:102,_RNCNCNvMNtCsuZExG01YC8_17pathfinder_common7sandboxNtB6_7Sandbox15with_user_rules00B8_
FN:102,_RNCNvMNtCsuZExG01YC8_17pathfinder_common7sandboxNtB4_7Sandbox15with_user_rules0B6_
FN:103,_RNCNvMNtCsuZExG01YC8_17pathfinder_common7sandboxNtB4_7Sandbox15with_user_ruless_0B6_
FN:217,_RNCNvMNtCsuZExG01YC8_17pathfinder_common7sandboxNtB4_7Sandbox17is_default_denied0B6_
FN:205,_RNCNvMNtCsuZExG01YC8_17pathfinder_common7sandboxNtB4_7Sandbox19is_hardcoded_denied0B6_
FN:274,_RNCNvMNtCsuZExG01YC8_17pathfinder_common7sandboxNtB4_7Sandbox20is_additional_denied0B6_
FN:140,_RNCNvMNtCsuZExG01YC8_17pathfinder_common7sandboxNtB4_7Sandbox5check0B6_
FN:19,_RNCNvNtCsuZExG01YC8_17pathfinder_common7sandbox13path_basename0B5_
FN:19,_RNCNvNtCsuZExG01YC8_17pathfinder_common7sandbox13path_basenames_0B5_
FNDA:7,_RNvNtNtCs9lqQblHgTDM_17pathfinder_common7sandbox5tests15default_sandbox
FNDA:1,_RNvNtNtCs9lqQblHgTDM_17pathfinder_common7sandbox5testss_18test_git_allowlist
FNDA:1,_RNvNtNtCs9lqQblHgTDM_17pathfinder_common7sandbox5testss_19test_allow_override
FNDA:1,_RNvNtNtCs9lqQblHgTDM_17pathfinder_common7sandbox5testss_20test_additional_deny
FNDA:1,_RNvNtNtCs9lqQblHgTDM_17pathfinder_common7sandbox5testss_21test_default_deny_env
FNDA:1,_RNvNtNtCs9lqQblHgTDM_17pathfinder_common7sandbox5testss_24test_default_deny_vendor
FNDA:1,_RNvNtNtCs9lqQblHgTDM_17pathfinder_common7sandbox5testss_28test_hardcoded_deny_pem_file
FNDA:1,_RNvNtNtCs9lqQblHgTDM_17pathfinder_common7sandbox5testss_30test_default_deny_node_modules
FNDA:1,_RNvNtNtCs9lqQblHgTDM_17pathfinder_common7sandbox5testss_31test_hardcoded_deny_git_objects
FNDA:1,_RNvNtNtCs9lqQblHgTDM_17pathfinder_common7sandbox5testss_32test_normal_source_files_allowed
FNDA:1,_RNvNtNtCs9lqQblHgTDM_17pathfinder_common7sandbox5testss_36test_with_user_rules_injected_ignore
FNDA:1,_RNvNtNtCs9lqQblHgTDM_17pathfinder_common7sandbox5testss_37test_with_user_rules_none_skips_tier3
FNDA:1,_RNvNtNtCs9lqQblHgTDM_17pathfinder_common7sandbox5testss_40test_hardcoded_deny_cannot_be_overridden
FNDA:1,_RNvNtNtCs9lqQblHgTDM_17pathfinder_common7sandbox5testss_41test_cross_workspace_absolute_path_denied
FNDA:1,_RNvNtNtCs9lqQblHgTDM_17pathfinder_common7sandbox5testss_41test_same_workspace_absolute_path_allowed
FNDA:1,_RNvNtNtCs9lqQblHgTDM_17pathfinder_common7sandbox5testss_53test_additional_deny_directory_pattern_no_prefix_leak
FNDA:1,_RNvNtNtCs9lqQblHgTDM_17pathfinder_common7sandbox5testss_55test_additional_deny_bare_word_does_not_substring_match
FNDA:16,_RNCNCNvMNtCs9lqQblHgTDM_17pathfinder_common7sandboxNtB6_7Sandbox15with_user_rules00B8_
FNDA:128,_RNCNvMNtCs9lqQblHgTDM_17pathfinder_common7sandboxNtB4_7Sandbox15with_user_rules0B6_
FNDA:127,_RNCNvMNtCs9lqQblHgTDM_17pathfinder_common7sandboxNtB4_7Sandbox15with_user_ruless_0B6_
FNDA:161,_RNCNvMNtCs9lqQblHgTDM_17pathfinder_common7sandboxNtB4_7Sandbox17is_default_denied0B6_
FNDA:66,_RNCNvMNtCs9lqQblHgTDM_17pathfinder_common7sandboxNtB4_7Sandbox19is_hardcoded_denied0B6_
FNDA:2,_RNCNvMNtCs9lqQblHgTDM_17pathfinder_common7sandboxNtB4_7Sandbox20is_additional_denied0B6_
FNDA:57,_RNCNvMNtCs9lqQblHgTDM_17pathfinder_common7sandboxNtB4_7Sandbox5check0B6_
FNDA:0,_RNCNvNtCs9lqQblHgTDM_17pathfinder_common7sandbox13path_basename0B5_
FNDA:42,_RNCNvNtCs9lqQblHgTDM_17pathfinder_common7sandbox13path_basenames_0B5_
FNDA:16,_RNvMNtCs9lqQblHgTDM_17pathfinder_common7sandboxNtB2_7Sandbox14is_user_denied
FNDA:16,_RNvMNtCs9lqQblHgTDM_17pathfinder_common7sandboxNtB2_7Sandbox15with_user_rules
FNDA:22,_RNvMNtCs9lqQblHgTDM_17pathfinder_common7sandboxNtB2_7Sandbox17is_default_denied
FNDA:27,_RNvMNtCs9lqQblHgTDM_17pathfinder_common7sandboxNtB2_7Sandbox19is_hardcoded_denied
FNDA:19,_RNvMNtCs9lqQblHgTDM_17pathfinder_common7sandboxNtB2_7Sandbox20is_additional_denied
FNDA:21,_RNvMNtCs9lqQblHgTDM_17pathfinder_common7sandboxNtB2_7Sandbox21matches_exact_pattern
FNDA:161,_RNvMNtCs9lqQblHgTDM_17pathfinder_common7sandboxNtB2_7Sandbox23matches_default_pattern
FNDA:21,_RNvMNtCs9lqQblHgTDM_17pathfinder_common7sandboxNtB2_7Sandbox24matches_wildcard_pattern
FNDA:119,_RNvMNtCs9lqQblHgTDM_17pathfinder_common7sandboxNtB2_7Sandbox25matches_directory_pattern
FNDA:28,_RNvMNtCs9lqQblHgTDM_17pathfinder_common7sandboxNtB2_7Sandbox5check
FNDA:42,_RNvNtCs9lqQblHgTDM_17pathfinder_common7sandbox13path_basename
FNDA:0,_RNvMNtCs9lqQblHgTDM_17pathfinder_common7sandboxNtB2_7Sandbox3new
FNDA:162,_RNvMNtCsuZExG01YC8_17pathfinder_common7sandboxNtB2_7Sandbox14is_user_denied
FNDA:178,_RNvMNtCsuZExG01YC8_17pathfinder_common7sandboxNtB2_7Sandbox15with_user_rules
FNDA:164,_RNvMNtCsuZExG01YC8_17pathfinder_common7sandboxNtB2_7Sandbox17is_default_denied
FNDA:174,_RNvMNtCsuZExG01YC8_17pathfinder_common7sandboxNtB2_7Sandbox19is_hardcoded_denied
FNDA:162,_RNvMNtCsuZExG01YC8_17pathfinder_common7sandboxNtB2_7Sandbox20is_additional_denied
FNDA:164,_RNvMNtCsuZExG01YC8_17pathfinder_common7sandboxNtB2_7Sandbox21matches_exact_pattern
FNDA:1298,_RNvMNtCsuZExG01YC8_17pathfinder_common7sandboxNtB2_7Sandbox23matches_default_pattern
FNDA:162,_RNvMNtCsuZExG01YC8_17pathfinder_common7sandboxNtB2_7Sandbox24matches_wildcard_pattern
FNDA:972,_RNvMNtCsuZExG01YC8_17pathfinder_common7sandboxNtB2_7Sandbox25matches_directory_pattern
FNDA:178,_RNvMNtCsuZExG01YC8_17pathfinder_common7sandboxNtB2_7Sandbox3new
FNDA:174,_RNvMNtCsuZExG01YC8_17pathfinder_common7sandboxNtB2_7Sandbox5check
FNDA:326,_RNvNtCsuZExG01YC8_17pathfinder_common7sandbox13path_basename
FNDA:0,_RNCNCNvMNtCsuZExG01YC8_17pathfinder_common7sandboxNtB6_7Sandbox15with_user_rules00B8_
FNDA:1424,_RNCNvMNtCsuZExG01YC8_17pathfinder_common7sandboxNtB4_7Sandbox15with_user_rules0B6_
FNDA:1424,_RNCNvMNtCsuZExG01YC8_17pathfinder_common7sandboxNtB4_7Sandbox15with_user_ruless_0B6_
FNDA:1298,_RNCNvMNtCsuZExG01YC8_17pathfinder_common7sandboxNtB4_7Sandbox17is_default_denied0B6_
FNDA:632,_RNCNvMNtCsuZExG01YC8_17pathfinder_common7sandboxNtB4_7Sandbox19is_hardcoded_denied0B6_
FNDA:0,_RNCNvMNtCsuZExG01YC8_17pathfinder_common7sandboxNtB4_7Sandbox20is_additional_denied0B6_
FNDA:310,_RNCNvMNtCsuZExG01YC8_17pathfinder_common7sandboxNtB4_7Sandbox5check0B6_
FNDA:8,_RNCNvNtCsuZExG01YC8_17pathfinder_common7sandbox13path_basename0B5_
FNDA:318,_RNCNvNtCsuZExG01YC8_17pathfinder_common7sandbox13path_basenames_0B5_
FNF:38
FNH:38
DA:16,368
DA:17,368
DA:18,368
DA:19,368
DA:20,368
DA:74,178
DA:76,178
DA:77,178
DA:78,0
DA:80,0
DA:81,0
DA:83,178
DA:86,178
DA:87,178
DA:94,194
DA:95,194
DA:96,194
DA:97,194
DA:98,194
DA:100,194
DA:101,194
DA:102,1552
DA:103,1551
DA:104,194
DA:106,194
DA:107,194
DA:108,194
DA:109,194
DA:110,194
DA:111,194
DA:112,194
DA:118,202
DA:120,202
DA:122,2
DA:124,1
DA:127,1
DA:128,1
DA:129,1
DA:130,1
DA:134,200
DA:138,201
DA:139,201
DA:140,367
DA:142,0
DA:143,0
DA:144,0
DA:145,0
DA:146,201
DA:148,201
DA:151,201
DA:152,15
DA:153,15
DA:154,15
DA:155,15
DA:156,186
DA:159,186
DA:160,5
DA:161,5
DA:162,5
DA:163,5
DA:164,181
DA:167,181
DA:168,3
DA:169,3
DA:170,3
DA:171,3
DA:172,178
DA:175,178
DA:176,1
DA:177,1
DA:178,1
DA:179,1
DA:180,177
DA:182,177
DA:183,202
DA:185,201
DA:187,798
DA:188,798
DA:189,3
DA:190,795
DA:194,1144
DA:195,1144
DA:196,12
DA:197,1132
DA:201,186
DA:202,176
DA:203,176
DA:204,176
DA:205,698
DA:207,3
DA:208,173
DA:209,10
DA:211,183
DA:212,201
DA:214,186
DA:215,186
DA:216,186
DA:217,1459
DA:218,186
DA:220,1459
DA:221,1459
DA:222,1091
DA:223,368
DA:224,183
DA:226,185
DA:228,1459
DA:230,1091
DA:231,1091
DA:232,1091
DA:233,2
DA:234,2
DA:235,1091
DA:237,183
DA:238,183
DA:239,0
DA:241,183
DA:242,183
DA:243,183
DA:245,185
DA:246,185
DA:247,185
DA:248,185
DA:250,181
DA:251,181
DA:252,6
DA:254,2
DA:255,2
DA:256,1
DA:257,1
DA:258,4
DA:260,2
DA:262,2
DA:263,2
DA:264,1
DA:265,1
DA:267,1
DA:268,1
DA:272,2
DA:273,2
DA:274,2
DA:275,2
DA:276,1
DA:277,1
DA:280,178
DA:281,181
DA:283,178
DA:284,178
DA:286,2
DA:287,2
DA:289,176
DA:291,178
DA:303,7
DA:304,7
DA:305,7
DA:306,7
DA:307,7
DA:309,7
DA:312,1
DA:313,1
DA:314,1
DA:315,1
DA:316,1
DA:317,1
DA:318,0
DA:319,1
DA:322,1
DA:323,1
DA:324,1
DA:325,1
DA:326,1
DA:327,1
DA:330,1
DA:331,1
DA:332,1
DA:333,1
DA:334,1
DA:335,1
DA:336,1
DA:337,1
DA:340,1
DA:341,1
DA:342,1
DA:343,1
DA:346,1
DA:347,1
DA:348,1
DA:349,1
DA:350,1
DA:351,1
DA:354,1
DA:355,1
DA:356,1
DA:357,1
DA:360,1
DA:361,1
DA:362,1
DA:363,1
DA:364,1
DA:365,1
DA:367,1
DA:368,1
DA:371,1
DA:372,1
DA:373,1
DA:374,1
DA:375,1
DA:376,1
DA:377,1
DA:379,1
DA:380,1
DA:386,1
DA:387,1
DA:388,1
DA:389,1
DA:390,1
DA:391,1
DA:395,1
DA:396,1
DA:400,1
DA:401,1
DA:404,1
DA:407,1
DA:409,1
DA:410,1
DA:411,1
DA:412,1
DA:413,1
DA:415,1
DA:416,1
DA:419,1
DA:420,1
DA:423,1
DA:426,1
DA:427,1
DA:428,1
DA:429,1
DA:430,1
DA:431,1
DA:432,1
DA:435,1
DA:436,1
DA:437,1
DA:438,1
DA:439,1
DA:440,1
DA:442,1
DA:443,1
DA:450,1
DA:452,1
DA:453,1
DA:454,1
DA:455,1
DA:458,1
DA:459,1
DA:462,1
DA:464,1
DA:465,1
DA:467,1
DA:468,1
DA:469,1
DA:470,1
DA:472,1
DA:473,1
DA:474,1
DA:475,1
DA:478,1
DA:480,1
DA:481,1
DA:484,1
DA:486,1
DA:487,1
DA:488,1
DA:491,1
DA:492,1
DA:493,1
DA:498,1
DA:499,1
DA:502,1
DA:504,1
DA:505,1
DA:508,1
DA:509,1
DA:510,1
DA:511,1
DA:514,1
BRF:0
BRH:0
LF:294
LH:285
end_of_record
SF:/home/irahardianto/works/projects/pathfinder/crates/pathfinder-common/src/types.rs
FN:409,_RNvNtNtCs9lqQblHgTDM_17pathfinder_common5types5testss_24test_filter_mode_default
FN:391,_RNvNtNtCs9lqQblHgTDM_17pathfinder_common5types5testss_25test_version_hash_compute
FN:399,_RNvNtNtCs9lqQblHgTDM_17pathfinder_common5types5testss_26test_version_hash_equality
FN:349,_RNvNtNtCs9lqQblHgTDM_17pathfinder_common5types5testss_28test_semantic_path_bare_file
FN:373,_RNvNtNtCs9lqQblHgTDM_17pathfinder_common5types5testss_30test_semantic_path_empty_input
FN:337,_RNvNtNtCs9lqQblHgTDM_17pathfinder_common5types5testss_30test_semantic_path_with_symbol
FN:356,_RNvNtNtCs9lqQblHgTDM_17pathfinder_common5types5testss_32test_semantic_path_with_overload
FN:383,_RNvNtNtCs9lqQblHgTDM_17pathfinder_common5types5testss_33test_semantic_path_default_export
FN:378,_RNvNtNtCs9lqQblHgTDM_17pathfinder_common5types5testss_34test_semantic_path_empty_file_part
FN:366,_RNvNtNtCs9lqQblHgTDM_17pathfinder_common5types5testss_36test_semantic_path_display_roundtrip
FN:430,_RNvNtNtCs9lqQblHgTDM_17pathfinder_common5types5testss_37test_resolve_strict_rejects_traversal
FN:414,_RNvNtNtCs9lqQblHgTDM_17pathfinder_common5types5testss_39test_resolve_path_traversal_is_detected
FN:454,_RNvNtNtCs9lqQblHgTDM_17pathfinder_common5types5testss_41test_resolve_strict_accepts_relative_path
FN:442,_RNvNtNtCs9lqQblHgTDM_17pathfinder_common5types5testss_41test_resolve_strict_rejects_absolute_path
FN:212,_RINvMs6_NtCs9lqQblHgTDM_17pathfinder_common5typesNtB6_13WorkspaceRoot3newRNtNtCsjrHSEGnQ3l9_3std4path4PathEB8_
FN:267,_RNCNvMs6_NtCs9lqQblHgTDM_17pathfinder_common5typesNtB7_13WorkspaceRoot14resolve_strict0B9_
FN:230,_RNCNvMs6_NtCs9lqQblHgTDM_17pathfinder_common5typesNtB7_13WorkspaceRoot7resolve0B9_
FN:63,_RNvMNtCs9lqQblHgTDM_17pathfinder_common5typesNtB2_12SemanticPath12is_bare_file
FN:39,_RNvMNtCs9lqQblHgTDM_17pathfinder_common5typesNtB2_12SemanticPath5parse
FN:90,_RNvMs0_NtCs9lqQblHgTDM_17pathfinder_common5typesNtB5_11SymbolChain5parse
FN:126,_RNvMs2_NtCs9lqQblHgTDM_17pathfinder_common5typesNtB5_6Symbol5parse
FN:177,_RNvMs4_NtCs9lqQblHgTDM_17pathfinder_common5typesNtB5_11VersionHash6as_str
FN:163,_RNvMs4_NtCs9lqQblHgTDM_17pathfinder_common5typesNtB5_11VersionHash7compute
FN:263,_RNvMs6_NtCs9lqQblHgTDM_17pathfinder_common5typesNtB5_13WorkspaceRoot14resolve_strict
FN:226,_RNvMs6_NtCs9lqQblHgTDM_17pathfinder_common5typesNtB5_13WorkspaceRoot7resolve
FN:106,_RNvXs1_NtCs9lqQblHgTDM_17pathfinder_common5typesNtB5_11SymbolChainNtNtCsgEmfK2I1SDS_4core3fmt7Display3fmt
FN:147,_RNvXs3_NtCs9lqQblHgTDM_17pathfinder_common5typesNtB5_6SymbolNtNtCsgEmfK2I1SDS_4core3fmt7Display3fmt
FN:69,_RNvXs_NtCs9lqQblHgTDM_17pathfinder_common5typesNtB4_12SemanticPathNtNtCsgEmfK2I1SDS_4core3fmt7Display3fmt
FN:171,_RNvMs4_NtCs9lqQblHgTDM_17pathfinder_common5typesNtB5_11VersionHash8from_raw
FN:283,_RNvMs6_NtCs9lqQblHgTDM_17pathfinder_common5typesNtB5_13WorkspaceRoot4path
FN:183,_RNvXs5_NtCs9lqQblHgTDM_17pathfinder_common5typesNtB5_11VersionHashNtNtCsgEmfK2I1SDS_4core3fmt7Display3fmt
FN:212,_RINvMs6_NtCsuZExG01YC8_17pathfinder_common5typesNtB6_13WorkspaceRoot3newNtNtCsjrHSEGnQ3l9_3std4path7PathBufECsb2XMseC3SKs_14pathfinder_lib
FN:212,_RINvMs6_NtCsuZExG01YC8_17pathfinder_common5typesNtB6_13WorkspaceRoot3newRNtNtCsjrHSEGnQ3l9_3std4path4PathECsb2XMseC3SKs_14pathfinder_lib
FN:63,_RNvMNtCsuZExG01YC8_17pathfinder_common5typesNtB2_12SemanticPath12is_bare_file
FN:39,_RNvMNtCsuZExG01YC8_17pathfinder_common5typesNtB2_12SemanticPath5parse
FN:90,_RNvMs0_NtCsuZExG01YC8_17pathfinder_common5typesNtB5_11SymbolChain5parse
FN:126,_RNvMs2_NtCsuZExG01YC8_17pathfinder_common5typesNtB5_6Symbol5parse
FN:177,_RNvMs4_NtCsuZExG01YC8_17pathfinder_common5typesNtB5_11VersionHash6as_str
FN:163,_RNvMs4_NtCsuZExG01YC8_17pathfinder_common5typesNtB5_11VersionHash7compute
FN:171,_RNvMs4_NtCsuZExG01YC8_17pathfinder_common5typesNtB5_11VersionHash8from_raw
FN:263,_RNvMs6_NtCsuZExG01YC8_17pathfinder_common5typesNtB5_13WorkspaceRoot14resolve_strict
FN:283,_RNvMs6_NtCsuZExG01YC8_17pathfinder_common5typesNtB5_13WorkspaceRoot4path
FN:226,_RNvMs6_NtCsuZExG01YC8_17pathfinder_common5typesNtB5_13WorkspaceRoot7resolve
FN:106,_RNvXs1_NtCsuZExG01YC8_17pathfinder_common5typesNtB5_11SymbolChainNtNtCsgEmfK2I1SDS_4core3fmt7Display3fmt
FN:147,_RNvXs3_NtCsuZExG01YC8_17pathfinder_common5typesNtB5_6SymbolNtNtCsgEmfK2I1SDS_4core3fmt7Display3fmt
FN:183,_RNvXs5_NtCsuZExG01YC8_17pathfinder_common5typesNtB5_11VersionHashNtNtCsgEmfK2I1SDS_4core3fmt7Display3fmt
FN:69,_RNvXs_NtCsuZExG01YC8_17pathfinder_common5typesNtB4_12SemanticPathNtNtCsgEmfK2I1SDS_4core3fmt7Display3fmt
FN:267,_RNCNvMs6_NtCsuZExG01YC8_17pathfinder_common5typesNtB7_13WorkspaceRoot14resolve_strict0B9_
FN:230,_RNCNvMs6_NtCsuZExG01YC8_17pathfinder_common5typesNtB7_13WorkspaceRoot7resolve0B9_
FN:212,_RINvMs6_NtCsuZExG01YC8_17pathfinder_common5typesNtB6_13WorkspaceRoot3newRNtNtCsjrHSEGnQ3l9_3std4path7PathBufECs7Fw43FPylcK_14pathfinder_mcp
FN:212,_RINvMs6_NtCsuZExG01YC8_17pathfinder_common5typesNtB6_13WorkspaceRoot3newNtNtCsjrHSEGnQ3l9_3std4path7PathBufECsaBz7PZGcJGm_14pathfinder_mcp
FN:212,_RINvMs6_NtCsuZExG01YC8_17pathfinder_common5typesNtB6_13WorkspaceRoot3newRNtNtCsjrHSEGnQ3l9_3std4path4PathECsaBz7PZGcJGm_14pathfinder_mcp
FN:212,_RINvMs6_NtCsuZExG01YC8_17pathfinder_common5typesNtB6_13WorkspaceRoot3newRNtNtCsjrHSEGnQ3l9_3std4path7PathBufECsaBz7PZGcJGm_14pathfinder_mcp
FNDA:1,_RNvNtNtCs9lqQblHgTDM_17pathfinder_common5types5testss_24test_filter_mode_default
FNDA:1,_RNvNtNtCs9lqQblHgTDM_17pathfinder_common5types5testss_25test_version_hash_compute
FNDA:1,_RNvNtNtCs9lqQblHgTDM_17pathfinder_common5types5testss_26test_version_hash_equality
FNDA:1,_RNvNtNtCs9lqQblHgTDM_17pathfinder_common5types5testss_28test_semantic_path_bare_file
FNDA:1,_RNvNtNtCs9lqQblHgTDM_17pathfinder_common5types5testss_30test_semantic_path_empty_input
FNDA:1,_RNvNtNtCs9lqQblHgTDM_17pathfinder_common5types5testss_30test_semantic_path_with_symbol
FNDA:1,_RNvNtNtCs9lqQblHgTDM_17pathfinder_common5types5testss_32test_semantic_path_with_overload
FNDA:1,_RNvNtNtCs9lqQblHgTDM_17pathfinder_common5types5testss_33test_semantic_path_default_export
FNDA:1,_RNvNtNtCs9lqQblHgTDM_17pathfinder_common5types5testss_34test_semantic_path_empty_file_part
FNDA:1,_RNvNtNtCs9lqQblHgTDM_17pathfinder_common5types5testss_36test_semantic_path_display_roundtrip
FNDA:1,_RNvNtNtCs9lqQblHgTDM_17pathfinder_common5types5testss_37test_resolve_strict_rejects_traversal
FNDA:1,_RNvNtNtCs9lqQblHgTDM_17pathfinder_common5types5testss_39test_resolve_path_traversal_is_detected
FNDA:1,_RNvNtNtCs9lqQblHgTDM_17pathfinder_common5types5testss_41test_resolve_strict_accepts_relative_path
FNDA:1,_RNvNtNtCs9lqQblHgTDM_17pathfinder_common5types5testss_41test_resolve_strict_rejects_absolute_path
FNDA:4,_RINvMs6_NtCs9lqQblHgTDM_17pathfinder_common5typesNtB6_13WorkspaceRoot3newRNtNtCsjrHSEGnQ3l9_3std4path4PathEB8_
FNDA:6,_RNCNvMs6_NtCs9lqQblHgTDM_17pathfinder_common5typesNtB7_13WorkspaceRoot14resolve_strict0B9_
FNDA:3,_RNCNvMs6_NtCs9lqQblHgTDM_17pathfinder_common5typesNtB7_13WorkspaceRoot7resolve0B9_
FNDA:2,_RNvMNtCs9lqQblHgTDM_17pathfinder_common5typesNtB2_12SemanticPath12is_bare_file
FNDA:7,_RNvMNtCs9lqQblHgTDM_17pathfinder_common5typesNtB2_12SemanticPath5parse
FNDA:4,_RNvMs0_NtCs9lqQblHgTDM_17pathfinder_common5typesNtB5_11SymbolChain5parse
FNDA:7,_RNvMs2_NtCs9lqQblHgTDM_17pathfinder_common5typesNtB5_6Symbol5parse
FNDA:2,_RNvMs4_NtCs9lqQblHgTDM_17pathfinder_common5typesNtB5_11VersionHash6as_str
FNDA:4,_RNvMs4_NtCs9lqQblHgTDM_17pathfinder_common5typesNtB5_11VersionHash7compute
FNDA:3,_RNvMs6_NtCs9lqQblHgTDM_17pathfinder_common5typesNtB5_13WorkspaceRoot14resolve_strict
FNDA:2,_RNvMs6_NtCs9lqQblHgTDM_17pathfinder_common5typesNtB5_13WorkspaceRoot7resolve
FNDA:1,_RNvXs1_NtCs9lqQblHgTDM_17pathfinder_common5typesNtB5_11SymbolChainNtNtCsgEmfK2I1SDS_4core3fmt7Display3fmt
FNDA:2,_RNvXs3_NtCs9lqQblHgTDM_17pathfinder_common5typesNtB5_6SymbolNtNtCsgEmfK2I1SDS_4core3fmt7Display3fmt
FNDA:1,_RNvXs_NtCs9lqQblHgTDM_17pathfinder_common5typesNtB4_12SemanticPathNtNtCsgEmfK2I1SDS_4core3fmt7Display3fmt
FNDA:0,_RNvMs4_NtCs9lqQblHgTDM_17pathfinder_common5typesNtB5_11VersionHash8from_raw
FNDA:0,_RNvMs6_NtCs9lqQblHgTDM_17pathfinder_common5typesNtB5_13WorkspaceRoot4path
FNDA:0,_RNvXs5_NtCs9lqQblHgTDM_17pathfinder_common5typesNtB5_11VersionHashNtNtCsgEmfK2I1SDS_4core3fmt7Display3fmt
FNDA:9,_RINvMs6_NtCsuZExG01YC8_17pathfinder_common5typesNtB6_13WorkspaceRoot3newNtNtCsjrHSEGnQ3l9_3std4path7PathBufECsb2XMseC3SKs_14pathfinder_lib
FNDA:80,_RINvMs6_NtCsuZExG01YC8_17pathfinder_common5typesNtB6_13WorkspaceRoot3newRNtNtCsjrHSEGnQ3l9_3std4path4PathECsb2XMseC3SKs_14pathfinder_lib
FNDA:94,_RNvMNtCsuZExG01YC8_17pathfinder_common5typesNtB2_12SemanticPath12is_bare_file
FNDA:173,_RNvMNtCsuZExG01YC8_17pathfinder_common5typesNtB2_12SemanticPath5parse
FNDA:148,_RNvMs0_NtCsuZExG01YC8_17pathfinder_common5typesNtB5_11SymbolChain5parse
FNDA:159,_RNvMs2_NtCsuZExG01YC8_17pathfinder_common5typesNtB5_6Symbol5parse
FNDA:377,_RNvMs4_NtCsuZExG01YC8_17pathfinder_common5typesNtB5_11VersionHash6as_str
FNDA:403,_RNvMs4_NtCsuZExG01YC8_17pathfinder_common5typesNtB5_11VersionHash7compute
FNDA:76,_RNvMs4_NtCsuZExG01YC8_17pathfinder_common5typesNtB5_11VersionHash8from_raw
FNDA:0,_RNvMs6_NtCsuZExG01YC8_17pathfinder_common5typesNtB5_13WorkspaceRoot14resolve_strict
FNDA:532,_RNvMs6_NtCsuZExG01YC8_17pathfinder_common5typesNtB5_13WorkspaceRoot4path
FNDA:146,_RNvMs6_NtCsuZExG01YC8_17pathfinder_common5typesNtB5_13WorkspaceRoot7resolve
FNDA:8,_RNvXs1_NtCsuZExG01YC8_17pathfinder_common5typesNtB5_11SymbolChainNtNtCsgEmfK2I1SDS_4core3fmt7Display3fmt
FNDA:9,_RNvXs3_NtCsuZExG01YC8_17pathfinder_common5typesNtB5_6SymbolNtNtCsgEmfK2I1SDS_4core3fmt7Display3fmt
FNDA:13,_RNvXs5_NtCsuZExG01YC8_17pathfinder_common5typesNtB5_11VersionHashNtNtCsgEmfK2I1SDS_4core3fmt7Display3fmt
FNDA:6,_RNvXs_NtCsuZExG01YC8_17pathfinder_common5typesNtB4_12SemanticPathNtNtCsgEmfK2I1SDS_4core3fmt7Display3fmt
FNDA:0,_RNCNvMs6_NtCsuZExG01YC8_17pathfinder_common5typesNtB7_13WorkspaceRoot14resolve_strict0B9_
FNDA:240,_RNCNvMs6_NtCsuZExG01YC8_17pathfinder_common5typesNtB7_13WorkspaceRoot7resolve0B9_
FNDA:0,_RINvMs6_NtCsuZExG01YC8_17pathfinder_common5typesNtB6_13WorkspaceRoot3newRNtNtCsjrHSEGnQ3l9_3std4path7PathBufECs7Fw43FPylcK_14pathfinder_mcp
FNDA:9,_RINvMs6_NtCsuZExG01YC8_17pathfinder_common5typesNtB6_13WorkspaceRoot3newNtNtCsjrHSEGnQ3l9_3std4path7PathBufECsaBz7PZGcJGm_14pathfinder_mcp
FNDA:80,_RINvMs6_NtCsuZExG01YC8_17pathfinder_common5typesNtB6_13WorkspaceRoot3newRNtNtCsjrHSEGnQ3l9_3std4path4PathECsaBz7PZGcJGm_14pathfinder_mcp
FNDA:1,_RINvMs6_NtCsuZExG01YC8_17pathfinder_common5typesNtB6_13WorkspaceRoot3newRNtNtCsjrHSEGnQ3l9_3std4path7PathBufECsaBz7PZGcJGm_14pathfinder_mcp
FNF:31
FNH:31
DA:39,180
DA:40,180
DA:41,3
DA:42,177
DA:44,177
DA:45,145
DA:46,1
DA:47,144
DA:48,144
DA:49,144
DA:50,144
DA:51,144
DA:52,144
DA:54,32
DA:55,32
DA:56,32
DA:57,32
DA:59,180
DA:63,96
DA:64,96
DA:65,96
DA:69,7
DA:70,7
DA:71,7
DA:72,7
DA:73,0
DA:74,7
DA:75,7
DA:90,152
DA:91,152
DA:92,0
DA:93,152
DA:95,152
DA:97,152
DA:98,0
DA:99,152
DA:101,152
DA:102,152
DA:106,9
DA:107,9
DA:108,9
DA:109,9
DA:126,166
DA:127,166
DA:128,0
DA:129,166
DA:131,166
DA:132,4
DA:133,4
DA:134,4
DA:135,4
DA:136,4
DA:138,162
DA:139,162
DA:140,162
DA:141,162
DA:143,166
DA:147,11
DA:148,11
DA:149,11
DA:150,1
DA:151,10
DA:152,11
DA:153,11
DA:163,407
DA:165,407
DA:166,407
DA:167,407
DA:171,76
DA:172,76
DA:173,76
DA:177,379
DA:178,379
DA:179,379
DA:183,13
DA:184,13
DA:185,13
DA:212,183
DA:213,183
DA:214,183
DA:215,182
DA:216,183
DA:226,148
DA:227,148
DA:228,148
DA:229,148
DA:230,243
DA:233,148
DA:234,1
DA:235,0
DA:236,0
DA:239,147
DA:241,148
DA:242,246
DA:243,246
DA:244,246
DA:247,0
DA:248,246
DA:249,246
DA:252,148
DA:253,148
DA:263,3
DA:264,3
DA:265,3
DA:266,3
DA:267,6
DA:269,3
DA:270,2
DA:271,2
DA:272,2
DA:273,2
DA:274,1
DA:278,1
DA:279,3
DA:283,532
DA:284,532
DA:285,532
DA:337,1
DA:338,1
DA:339,1
DA:340,1
DA:342,1
DA:343,1
DA:344,1
DA:345,1
DA:346,1
DA:349,1
DA:350,1
DA:351,1
DA:352,1
DA:353,1
DA:356,1
DA:357,1
DA:358,1
DA:359,1
DA:360,1
DA:361,1
DA:362,1
DA:363,1
DA:366,1
DA:367,1
DA:368,1
DA:369,1
DA:370,1
DA:373,1
DA:374,1
DA:375,1
DA:378,1
DA:379,1
DA:380,1
DA:383,1
DA:384,1
DA:385,1
DA:386,1
DA:387,1
DA:388,1
DA:391,1
DA:392,1
DA:393,1
DA:395,1
DA:396,1
DA:399,1
DA:400,1
DA:401,1
DA:402,1
DA:404,1
DA:405,1
DA:406,1
DA:409,1
DA:410,1
DA:411,1
DA:414,1
DA:418,1
DA:419,1
DA:421,1
DA:423,1
DA:426,1
DA:427,1
DA:430,1
DA:431,1
DA:432,1
DA:434,1
DA:435,1
DA:437,1
DA:438,1
DA:439,1
DA:442,1
DA:443,1
DA:444,1
DA:446,1
DA:447,1
DA:449,1
DA:450,1
DA:451,1
DA:454,1
DA:455,1
DA:456,1
DA:458,1
DA:459,1
DA:461,1
DA:462,1
DA:463,1
DA:464,1
BRF:0
BRH:0
LF:205
LH:198
end_of_record
SF:/home/irahardianto/works/projects/pathfinder/crates/pathfinder-lsp/src/client/capabilities.rs
FN:46,_RNvMNtNtCscBgZELoTFF0_14pathfinder_lsp6client12capabilitiesNtB2_20DetectedCapabilities18from_response_json
FN:53,_RNCNCNvMNtNtCscBgZELoTFF0_14pathfinder_lsp6client12capabilitiesNtB6_20DetectedCapabilities18from_response_json00Ba_
FN:52,_RNCNvMNtNtCscBgZELoTFF0_14pathfinder_lsp6client12capabilitiesNtB4_20DetectedCapabilities18from_response_json0B8_
FN:62,_RNCNvMNtNtCscBgZELoTFF0_14pathfinder_lsp6client12capabilitiesNtB4_20DetectedCapabilities18from_response_jsons0_0B8_
FN:61,_RNCNvMNtNtCscBgZELoTFF0_14pathfinder_lsp6client12capabilitiesNtB4_20DetectedCapabilities18from_response_jsons_0B8_
FN:46,_RNvMNtNtCs4F9smGagOs0_14pathfinder_lsp6client12capabilitiesNtB2_20DetectedCapabilities18from_response_json
FN:83,_RNvNtNtNtCs4F9smGagOs0_14pathfinder_lsp6client12capabilities5testss_23test_empty_capabilities
FN:94,_RNvNtNtNtCs4F9smGagOs0_14pathfinder_lsp6client12capabilities5testss_27test_bool_true_capabilities
FN:134,_RNvNtNtNtCs4F9smGagOs0_14pathfinder_lsp6client12capabilities5testss_28test_bool_false_capabilities
FN:112,_RNvNtNtNtCs4F9smGagOs0_14pathfinder_lsp6client12capabilities5testss_29test_object_form_capabilities
FN:53,_RNCNCNvMNtNtCs4F9smGagOs0_14pathfinder_lsp6client12capabilitiesNtB6_20DetectedCapabilities18from_response_json00Ba_
FN:52,_RNCNvMNtNtCs4F9smGagOs0_14pathfinder_lsp6client12capabilitiesNtB4_20DetectedCapabilities18from_response_json0B8_
FN:62,_RNCNvMNtNtCs4F9smGagOs0_14pathfinder_lsp6client12capabilitiesNtB4_20DetectedCapabilities18from_response_jsons0_0B8_
FN:61,_RNCNvMNtNtCs4F9smGagOs0_14pathfinder_lsp6client12capabilitiesNtB4_20DetectedCapabilities18from_response_jsons_0B8_
FNDA:0,_RNvMNtNtCscBgZELoTFF0_14pathfinder_lsp6client12capabilitiesNtB2_20DetectedCapabilities18from_response_json
FNDA:0,_RNCNCNvMNtNtCscBgZELoTFF0_14pathfinder_lsp6client12capabilitiesNtB6_20DetectedCapabilities18from_response_json00Ba_
FNDA:0,_RNCNvMNtNtCscBgZELoTFF0_14pathfinder_lsp6client12capabilitiesNtB4_20DetectedCapabilities18from_response_json0B8_
FNDA:0,_RNCNvMNtNtCscBgZELoTFF0_14pathfinder_lsp6client12capabilitiesNtB4_20DetectedCapabilities18from_response_jsons0_0B8_
FNDA:0,_RNCNvMNtNtCscBgZELoTFF0_14pathfinder_lsp6client12capabilitiesNtB4_20DetectedCapabilities18from_response_jsons_0B8_
FNDA:4,_RNvMNtNtCs4F9smGagOs0_14pathfinder_lsp6client12capabilitiesNtB2_20DetectedCapabilities18from_response_json
FNDA:1,_RNvNtNtNtCs4F9smGagOs0_14pathfinder_lsp6client12capabilities5testss_23test_empty_capabilities
FNDA:1,_RNvNtNtNtCs4F9smGagOs0_14pathfinder_lsp6client12capabilities5testss_27test_bool_true_capabilities
FNDA:1,_RNvNtNtNtCs4F9smGagOs0_14pathfinder_lsp6client12capabilities5testss_28test_bool_false_capabilities
FNDA:1,_RNvNtNtNtCs4F9smGagOs0_14pathfinder_lsp6client12capabilities5testss_29test_object_form_capabilities
FNDA:10,_RNCNCNvMNtNtCs4F9smGagOs0_14pathfinder_lsp6client12capabilitiesNtB6_20DetectedCapabilities18from_response_json00Ba_
FNDA:16,_RNCNvMNtNtCs4F9smGagOs0_14pathfinder_lsp6client12capabilitiesNtB4_20DetectedCapabilities18from_response_json0B8_
FNDA:1,_RNCNvMNtNtCs4F9smGagOs0_14pathfinder_lsp6client12capabilitiesNtB4_20DetectedCapabilities18from_response_jsons0_0B8_
FNDA:2,_RNCNvMNtNtCs4F9smGagOs0_14pathfinder_lsp6client12capabilitiesNtB4_20DetectedCapabilities18from_response_jsons_0B8_
FNF:9
FNH:9
DA:46,4
DA:47,4
DA:52,16
DA:53,16
DA:54,6
DA:55,4
DA:56,10
DA:57,16
DA:59,4
DA:60,4
DA:61,4
DA:62,4
DA:63,1
DA:64,0
DA:65,1
DA:67,4
DA:68,4
DA:69,4
DA:70,4
DA:71,4
DA:72,4
DA:73,4
DA:74,4
DA:83,1
DA:84,1
DA:85,1
DA:86,1
DA:87,1
DA:88,1
DA:89,1
DA:90,1
DA:91,1
DA:94,1
DA:95,1
DA:96,1
DA:97,1
DA:98,1
DA:99,1
DA:100,1
DA:103,1
DA:104,1
DA:105,1
DA:106,1
DA:107,1
DA:108,1
DA:109,1
DA:112,1
DA:114,1
DA:115,1
DA:116,1
DA:117,1
DA:118,1
DA:119,1
DA:120,1
DA:121,1
DA:125,1
DA:126,1
DA:127,1
DA:128,1
DA:129,1
DA:130,1
DA:131,1
DA:134,1
DA:135,1
DA:136,1
DA:137,1
DA:138,1
DA:141,1
DA:142,1
DA:143,1
DA:144,1
DA:145,1
BRF:0
BRH:0
LF:76
LH:75
end_of_record
SF:/home/irahardianto/works/projects/pathfinder/crates/pathfinder-lsp/src/client/detect.rs
FN:152,_RNCNCNvNtNtCscBgZELoTFF0_14pathfinder_lsp6client6detect16detect_languages00B9_
FN:191,_RNCNCNvNtNtCscBgZELoTFF0_14pathfinder_lsp6client6detect16detect_languages0s0_0B9_
FN:212,_RNCNCNvNtNtCscBgZELoTFF0_14pathfinder_lsp6client6detect16detect_languages0s1_0B9_
FN:129,_RNCNCNvNtNtCscBgZELoTFF0_14pathfinder_lsp6client6detect16detect_languages0s2_0B9_
FN:130,_RNCNCNvNtNtCscBgZELoTFF0_14pathfinder_lsp6client6detect16detect_languages0s3_0B9_
FN:140,_RNCNCNvNtNtCscBgZELoTFF0_14pathfinder_lsp6client6detect16detect_languages0s4_0B9_
FN:141,_RNCNCNvNtNtCscBgZELoTFF0_14pathfinder_lsp6client6detect16detect_languages0s5_0B9_
FN:129,_RNCNCNvNtNtCscBgZELoTFF0_14pathfinder_lsp6client6detect16detect_languages0s6_0B9_
FN:130,_RNCNCNvNtNtCscBgZELoTFF0_14pathfinder_lsp6client6detect16detect_languages0s7_0B9_
FN:140,_RNCNCNvNtNtCscBgZELoTFF0_14pathfinder_lsp6client6detect16detect_languages0s8_0B9_
FN:141,_RNCNCNvNtNtCscBgZELoTFF0_14pathfinder_lsp6client6detect16detect_languages0s9_0B9_
FN:170,_RNCNCNvNtNtCscBgZELoTFF0_14pathfinder_lsp6client6detect16detect_languages0s_0B9_
FN:129,_RNCNCNvNtNtCscBgZELoTFF0_14pathfinder_lsp6client6detect16detect_languages0sa_0B9_
FN:130,_RNCNCNvNtNtCscBgZELoTFF0_14pathfinder_lsp6client6detect16detect_languages0sb_0B9_
FN:140,_RNCNCNvNtNtCscBgZELoTFF0_14pathfinder_lsp6client6detect16detect_languages0sc_0B9_
FN:141,_RNCNCNvNtNtCscBgZELoTFF0_14pathfinder_lsp6client6detect16detect_languages0sd_0B9_
FN:129,_RNCNCNvNtNtCscBgZELoTFF0_14pathfinder_lsp6client6detect16detect_languages0se_0B9_
FN:130,_RNCNCNvNtNtCscBgZELoTFF0_14pathfinder_lsp6client6detect16detect_languages0sf_0B9_
FN:140,_RNCNCNvNtNtCscBgZELoTFF0_14pathfinder_lsp6client6detect16detect_languages0sg_0B9_
FN:141,_RNCNCNvNtNtCscBgZELoTFF0_14pathfinder_lsp6client6detect16detect_languages0sh_0B9_
FN:78,_RNCNvNtNtCscBgZELoTFF0_14pathfinder_lsp6client6detect11find_marker0B7_
FN:120,_RNCNvNtNtCscBgZELoTFF0_14pathfinder_lsp6client6detect16detect_languages0B7_
FN:78,_RNvNtNtCscBgZELoTFF0_14pathfinder_lsp6client6detect11find_marker
FN:55,_RNvNtNtCscBgZELoTFF0_14pathfinder_lsp6client6detect15resolve_command
FN:117,_RNvNtNtCscBgZELoTFF0_14pathfinder_lsp6client6detect16detect_languages
FN:232,_RNvNtNtCscBgZELoTFF0_14pathfinder_lsp6client6detect25language_id_for_extension
FN:280,_RNCNCNvNtNtNtCs4F9smGagOs0_14pathfinder_lsp6client6detect5testss_19test_detects_go_mod00Bb_
FN:261,_RNCNCNvNtNtNtCs4F9smGagOs0_14pathfinder_lsp6client6detect5testss_23test_detects_cargo_toml00Bb_
FN:397,_RNCNCNvNtNtNtCs4F9smGagOs0_14pathfinder_lsp6client6detect5testss_25test_root_override_config00Bb_
FN:344,_RNCNCNvNtNtNtCs4F9smGagOs0_14pathfinder_lsp6client6detect5testss_31test_detects_multiple_languages00Bb_
FN:327,_RNCNCNvNtNtNtCs4F9smGagOs0_14pathfinder_lsp6client6detect5testss_33test_detects_python_via_pyproject00Bb_
FN:375,_RNCNCNvNtNtNtCs4F9smGagOs0_14pathfinder_lsp6client6detect5testss_35test_detects_go_mod_in_subdirectory00Bb_
FN:295,_RNCNCNvNtNtNtCs4F9smGagOs0_14pathfinder_lsp6client6detect5testss_36test_detects_typescript_via_tsconfig00Bb_
FN:312,_RNCNCNvNtNtNtCs4F9smGagOs0_14pathfinder_lsp6client6detect5testss_40test_detects_typescript_via_package_json00Bb_
FN:271,_RNCNvNtNtNtCs4F9smGagOs0_14pathfinder_lsp6client6detect5testss_19test_detects_go_mod0B9_
FN:352,_RNCNvNtNtNtCs4F9smGagOs0_14pathfinder_lsp6client6detect5testss_20test_empty_directory0B9_
FN:250,_RNCNvNtNtNtCs4F9smGagOs0_14pathfinder_lsp6client6detect5testss_23test_detects_cargo_toml0B9_
FN:381,_RNCNvNtNtNtCs4F9smGagOs0_14pathfinder_lsp6client6detect5testss_25test_root_override_config0B9_
FN:333,_RNCNvNtNtNtCs4F9smGagOs0_14pathfinder_lsp6client6detect5testss_31test_detects_multiple_languages0B9_
FN:318,_RNCNvNtNtNtCs4F9smGagOs0_14pathfinder_lsp6client6detect5testss_33test_detects_python_via_pyproject0B9_
FN:364,_RNCNvNtNtNtCs4F9smGagOs0_14pathfinder_lsp6client6detect5testss_35test_detects_go_mod_in_subdirectory0B9_
FN:286,_RNCNvNtNtNtCs4F9smGagOs0_14pathfinder_lsp6client6detect5testss_36test_detects_typescript_via_tsconfig0B9_
FN:302,_RNCNvNtNtNtCs4F9smGagOs0_14pathfinder_lsp6client6detect5testss_40test_detects_typescript_via_package_json0B9_
FN:271,_RNvNtNtNtCs4F9smGagOs0_14pathfinder_lsp6client6detect5testss_19test_detects_go_mod
FN:352,_RNvNtNtNtCs4F9smGagOs0_14pathfinder_lsp6client6detect5testss_20test_empty_directory
FN:250,_RNvNtNtNtCs4F9smGagOs0_14pathfinder_lsp6client6detect5testss_23test_detects_cargo_toml
FN:381,_RNvNtNtNtCs4F9smGagOs0_14pathfinder_lsp6client6detect5testss_25test_root_override_config
FN:404,_RNvNtNtNtCs4F9smGagOs0_14pathfinder_lsp6client6detect5testss_30test_language_id_for_extension
FN:333,_RNvNtNtNtCs4F9smGagOs0_14pathfinder_lsp6client6detect5testss_31test_detects_multiple_languages
FN:318,_RNvNtNtNtCs4F9smGagOs0_14pathfinder_lsp6client6detect5testss_33test_detects_python_via_pyproject
FN:364,_RNvNtNtNtCs4F9smGagOs0_14pathfinder_lsp6client6detect5testss_35test_detects_go_mod_in_subdirectory
FN:286,_RNvNtNtNtCs4F9smGagOs0_14pathfinder_lsp6client6detect5testss_36test_detects_typescript_via_tsconfig
FN:302,_RNvNtNtNtCs4F9smGagOs0_14pathfinder_lsp6client6detect5testss_40test_detects_typescript_via_package_json
FN:78,_RNvNtNtCs4F9smGagOs0_14pathfinder_lsp6client6detect11find_marker
FN:55,_RNvNtNtCs4F9smGagOs0_14pathfinder_lsp6client6detect15resolve_command
FN:117,_RNvNtNtCs4F9smGagOs0_14pathfinder_lsp6client6detect16detect_languages
FN:232,_RNvNtNtCs4F9smGagOs0_14pathfinder_lsp6client6detect25language_id_for_extension
FN:152,_RNCNCNvNtNtCs4F9smGagOs0_14pathfinder_lsp6client6detect16detect_languages00B9_
FN:191,_RNCNCNvNtNtCs4F9smGagOs0_14pathfinder_lsp6client6detect16detect_languages0s0_0B9_
FN:212,_RNCNCNvNtNtCs4F9smGagOs0_14pathfinder_lsp6client6detect16detect_languages0s1_0B9_
FN:129,_RNCNCNvNtNtCs4F9smGagOs0_14pathfinder_lsp6client6detect16detect_languages0s2_0B9_
FN:130,_RNCNCNvNtNtCs4F9smGagOs0_14pathfinder_lsp6client6detect16detect_languages0s3_0B9_
FN:140,_RNCNCNvNtNtCs4F9smGagOs0_14pathfinder_lsp6client6detect16detect_languages0s4_0B9_
FN:141,_RNCNCNvNtNtCs4F9smGagOs0_14pathfinder_lsp6client6detect16detect_languages0s5_0B9_
FN:129,_RNCNCNvNtNtCs4F9smGagOs0_14pathfinder_lsp6client6detect16detect_languages0s6_0B9_
FN:130,_RNCNCNvNtNtCs4F9smGagOs0_14pathfinder_lsp6client6detect16detect_languages0s7_0B9_
FN:140,_RNCNCNvNtNtCs4F9smGagOs0_14pathfinder_lsp6client6detect16detect_languages0s8_0B9_
FN:141,_RNCNCNvNtNtCs4F9smGagOs0_14pathfinder_lsp6client6detect16detect_languages0s9_0B9_
FN:170,_RNCNCNvNtNtCs4F9smGagOs0_14pathfinder_lsp6client6detect16detect_languages0s_0B9_
FN:129,_RNCNCNvNtNtCs4F9smGagOs0_14pathfinder_lsp6client6detect16detect_languages0sa_0B9_
FN:130,_RNCNCNvNtNtCs4F9smGagOs0_14pathfinder_lsp6client6detect16detect_languages0sb_0B9_
FN:140,_RNCNCNvNtNtCs4F9smGagOs0_14pathfinder_lsp6client6detect16detect_languages0sc_0B9_
FN:141,_RNCNCNvNtNtCs4F9smGagOs0_14pathfinder_lsp6client6detect16detect_languages0sd_0B9_
FN:129,_RNCNCNvNtNtCs4F9smGagOs0_14pathfinder_lsp6client6detect16detect_languages0se_0B9_
FN:130,_RNCNCNvNtNtCs4F9smGagOs0_14pathfinder_lsp6client6detect16detect_languages0sf_0B9_
FN:140,_RNCNCNvNtNtCs4F9smGagOs0_14pathfinder_lsp6client6detect16detect_languages0sg_0B9_
FN:141,_RNCNCNvNtNtCs4F9smGagOs0_14pathfinder_lsp6client6detect16detect_languages0sh_0B9_
FN:78,_RNCNvNtNtCs4F9smGagOs0_14pathfinder_lsp6client6detect11find_marker0B7_
FN:120,_RNCNvNtNtCs4F9smGagOs0_14pathfinder_lsp6client6detect16detect_languages0B7_
FNDA:0,_RNCNCNvNtNtCscBgZELoTFF0_14pathfinder_lsp6client6detect16detect_languages00B9_
FNDA:0,_RNCNCNvNtNtCscBgZELoTFF0_14pathfinder_lsp6client6detect16detect_languages0s0_0B9_
FNDA:0,_RNCNCNvNtNtCscBgZELoTFF0_14pathfinder_lsp6client6detect16detect_languages0s1_0B9_
FNDA:0,_RNCNCNvNtNtCscBgZELoTFF0_14pathfinder_lsp6client6detect16detect_languages0s2_0B9_
FNDA:0,_RNCNCNvNtNtCscBgZELoTFF0_14pathfinder_lsp6client6detect16detect_languages0s3_0B9_
FNDA:0,_RNCNCNvNtNtCscBgZELoTFF0_14pathfinder_lsp6client6detect16detect_languages0s4_0B9_
FNDA:0,_RNCNCNvNtNtCscBgZELoTFF0_14pathfinder_lsp6client6detect16detect_languages0s5_0B9_
FNDA:0,_RNCNCNvNtNtCscBgZELoTFF0_14pathfinder_lsp6client6detect16detect_languages0s6_0B9_
FNDA:0,_RNCNCNvNtNtCscBgZELoTFF0_14pathfinder_lsp6client6detect16detect_languages0s7_0B9_
FNDA:0,_RNCNCNvNtNtCscBgZELoTFF0_14pathfinder_lsp6client6detect16detect_languages0s8_0B9_
FNDA:0,_RNCNCNvNtNtCscBgZELoTFF0_14pathfinder_lsp6client6detect16detect_languages0s9_0B9_
FNDA:0,_RNCNCNvNtNtCscBgZELoTFF0_14pathfinder_lsp6client6detect16detect_languages0s_0B9_
FNDA:0,_RNCNCNvNtNtCscBgZELoTFF0_14pathfinder_lsp6client6detect16detect_languages0sa_0B9_
FNDA:0,_RNCNCNvNtNtCscBgZELoTFF0_14pathfinder_lsp6client6detect16detect_languages0sb_0B9_
FNDA:0,_RNCNCNvNtNtCscBgZELoTFF0_14pathfinder_lsp6client6detect16detect_languages0sc_0B9_
FNDA:0,_RNCNCNvNtNtCscBgZELoTFF0_14pathfinder_lsp6client6detect16detect_languages0sd_0B9_
FNDA:0,_RNCNCNvNtNtCscBgZELoTFF0_14pathfinder_lsp6client6detect16detect_languages0se_0B9_
FNDA:0,_RNCNCNvNtNtCscBgZELoTFF0_14pathfinder_lsp6client6detect16detect_languages0sf_0B9_
FNDA:0,_RNCNCNvNtNtCscBgZELoTFF0_14pathfinder_lsp6client6detect16detect_languages0sg_0B9_
FNDA:0,_RNCNCNvNtNtCscBgZELoTFF0_14pathfinder_lsp6client6detect16detect_languages0sh_0B9_
FNDA:0,_RNCNvNtNtCscBgZELoTFF0_14pathfinder_lsp6client6detect11find_marker0B7_
FNDA:0,_RNCNvNtNtCscBgZELoTFF0_14pathfinder_lsp6client6detect16detect_languages0B7_
FNDA:0,_RNvNtNtCscBgZELoTFF0_14pathfinder_lsp6client6detect11find_marker
FNDA:0,_RNvNtNtCscBgZELoTFF0_14pathfinder_lsp6client6detect15resolve_command
FNDA:0,_RNvNtNtCscBgZELoTFF0_14pathfinder_lsp6client6detect16detect_languages
FNDA:56,_RNvNtNtCscBgZELoTFF0_14pathfinder_lsp6client6detect25language_id_for_extension
FNDA:1,_RNCNCNvNtNtNtCs4F9smGagOs0_14pathfinder_lsp6client6detect5testss_19test_detects_go_mod00Bb_
FNDA:1,_RNCNCNvNtNtNtCs4F9smGagOs0_14pathfinder_lsp6client6detect5testss_23test_detects_cargo_toml00Bb_
FNDA:1,_RNCNCNvNtNtNtCs4F9smGagOs0_14pathfinder_lsp6client6detect5testss_25test_root_override_config00Bb_
FNDA:2,_RNCNCNvNtNtNtCs4F9smGagOs0_14pathfinder_lsp6client6detect5testss_31test_detects_multiple_languages00Bb_
FNDA:1,_RNCNCNvNtNtNtCs4F9smGagOs0_14pathfinder_lsp6client6detect5testss_33test_detects_python_via_pyproject00Bb_
FNDA:1,_RNCNCNvNtNtNtCs4F9smGagOs0_14pathfinder_lsp6client6detect5testss_35test_detects_go_mod_in_subdirectory00Bb_
FNDA:1,_RNCNCNvNtNtNtCs4F9smGagOs0_14pathfinder_lsp6client6detect5testss_36test_detects_typescript_via_tsconfig00Bb_
FNDA:1,_RNCNCNvNtNtNtCs4F9smGagOs0_14pathfinder_lsp6client6detect5testss_40test_detects_typescript_via_package_json00Bb_
FNDA:1,_RNCNvNtNtNtCs4F9smGagOs0_14pathfinder_lsp6client6detect5testss_19test_detects_go_mod0B9_
FNDA:1,_RNCNvNtNtNtCs4F9smGagOs0_14pathfinder_lsp6client6detect5testss_20test_empty_directory0B9_
FNDA:1,_RNCNvNtNtNtCs4F9smGagOs0_14pathfinder_lsp6client6detect5testss_23test_detects_cargo_toml0B9_
FNDA:1,_RNCNvNtNtNtCs4F9smGagOs0_14pathfinder_lsp6client6detect5testss_25test_root_override_config0B9_
FNDA:1,_RNCNvNtNtNtCs4F9smGagOs0_14pathfinder_lsp6client6detect5testss_31test_detects_multiple_languages0B9_
FNDA:1,_RNCNvNtNtNtCs4F9smGagOs0_14pathfinder_lsp6client6detect5testss_33test_detects_python_via_pyproject0B9_
FNDA:1,_RNCNvNtNtNtCs4F9smGagOs0_14pathfinder_lsp6client6detect5testss_35test_detects_go_mod_in_subdirectory0B9_
FNDA:1,_RNCNvNtNtNtCs4F9smGagOs0_14pathfinder_lsp6client6detect5testss_36test_detects_typescript_via_tsconfig0B9_
FNDA:1,_RNCNvNtNtNtCs4F9smGagOs0_14pathfinder_lsp6client6detect5testss_40test_detects_typescript_via_package_json0B9_
FNDA:1,_RNvNtNtNtCs4F9smGagOs0_14pathfinder_lsp6client6detect5testss_19test_detects_go_mod
FNDA:1,_RNvNtNtNtCs4F9smGagOs0_14pathfinder_lsp6client6detect5testss_20test_empty_directory
FNDA:1,_RNvNtNtNtCs4F9smGagOs0_14pathfinder_lsp6client6detect5testss_23test_detects_cargo_toml
FNDA:1,_RNvNtNtNtCs4F9smGagOs0_14pathfinder_lsp6client6detect5testss_25test_root_override_config
FNDA:1,_RNvNtNtNtCs4F9smGagOs0_14pathfinder_lsp6client6detect5testss_30test_language_id_for_extension
FNDA:1,_RNvNtNtNtCs4F9smGagOs0_14pathfinder_lsp6client6detect5testss_31test_detects_multiple_languages
FNDA:1,_RNvNtNtNtCs4F9smGagOs0_14pathfinder_lsp6client6detect5testss_33test_detects_python_via_pyproject
FNDA:1,_RNvNtNtNtCs4F9smGagOs0_14pathfinder_lsp6client6detect5testss_35test_detects_go_mod_in_subdirectory
FNDA:1,_RNvNtNtNtCs4F9smGagOs0_14pathfinder_lsp6client6detect5testss_36test_detects_typescript_via_tsconfig
FNDA:1,_RNvNtNtNtCs4F9smGagOs0_14pathfinder_lsp6client6detect5testss_40test_detects_typescript_via_package_json
FNDA:62,_RNvNtNtCs4F9smGagOs0_14pathfinder_lsp6client6detect11find_marker
FNDA:8,_RNvNtNtCs4F9smGagOs0_14pathfinder_lsp6client6detect15resolve_command
FNDA:9,_RNvNtNtCs4F9smGagOs0_14pathfinder_lsp6client6detect16detect_languages
FNDA:18,_RNvNtNtCs4F9smGagOs0_14pathfinder_lsp6client6detect25language_id_for_extension
FNDA:2,_RNCNCNvNtNtCs4F9smGagOs0_14pathfinder_lsp6client6detect16detect_languages00B9_
FNDA:3,_RNCNCNvNtNtCs4F9smGagOs0_14pathfinder_lsp6client6detect16detect_languages0s0_0B9_
FNDA:1,_RNCNCNvNtNtCs4F9smGagOs0_14pathfinder_lsp6client6detect16detect_languages0s1_0B9_
FNDA:0,_RNCNCNvNtNtCs4F9smGagOs0_14pathfinder_lsp6client6detect16detect_languages0s2_0B9_
FNDA:0,_RNCNCNvNtNtCs4F9smGagOs0_14pathfinder_lsp6client6detect16detect_languages0s3_0B9_
FNDA:0,_RNCNCNvNtNtCs4F9smGagOs0_14pathfinder_lsp6client6detect16detect_languages0s4_0B9_
FNDA:0,_RNCNCNvNtNtCs4F9smGagOs0_14pathfinder_lsp6client6detect16detect_languages0s5_0B9_
FNDA:1,_RNCNCNvNtNtCs4F9smGagOs0_14pathfinder_lsp6client6detect16detect_languages0s6_0B9_
FNDA:1,_RNCNCNvNtNtCs4F9smGagOs0_14pathfinder_lsp6client6detect16detect_languages0s7_0B9_
FNDA:1,_RNCNCNvNtNtCs4F9smGagOs0_14pathfinder_lsp6client6detect16detect_languages0s8_0B9_
FNDA:1,_RNCNCNvNtNtCs4F9smGagOs0_14pathfinder_lsp6client6detect16detect_languages0s9_0B9_
FNDA:2,_RNCNCNvNtNtCs4F9smGagOs0_14pathfinder_lsp6client6detect16detect_languages0s_0B9_
FNDA:0,_RNCNCNvNtNtCs4F9smGagOs0_14pathfinder_lsp6client6detect16detect_languages0sa_0B9_
FNDA:0,_RNCNCNvNtNtCs4F9smGagOs0_14pathfinder_lsp6client6detect16detect_languages0sb_0B9_
FNDA:0,_RNCNCNvNtNtCs4F9smGagOs0_14pathfinder_lsp6client6detect16detect_languages0sc_0B9_
FNDA:0,_RNCNCNvNtNtCs4F9smGagOs0_14pathfinder_lsp6client6detect16detect_languages0sd_0B9_
FNDA:0,_RNCNCNvNtNtCs4F9smGagOs0_14pathfinder_lsp6client6detect16detect_languages0se_0B9_
FNDA:0,_RNCNCNvNtNtCs4F9smGagOs0_14pathfinder_lsp6client6detect16detect_languages0sf_0B9_
FNDA:0,_RNCNCNvNtNtCs4F9smGagOs0_14pathfinder_lsp6client6detect16detect_languages0sg_0B9_
FNDA:0,_RNCNCNvNtNtCs4F9smGagOs0_14pathfinder_lsp6client6detect16detect_languages0sh_0B9_
FNDA:62,_RNCNvNtNtCs4F9smGagOs0_14pathfinder_lsp6client6detect11find_marker0B7_
FNDA:9,_RNCNvNtNtCs4F9smGagOs0_14pathfinder_lsp6client6detect16detect_languages0B7_
FNF:41
FNH:41
DA:55,8
DA:56,8
DA:57,8
DA:59,0
DA:62,8
DA:64,0
DA:71,0
DA:73,8
DA:78,62
DA:80,62
DA:81,7
DA:82,55
DA:83,55
DA:84,7
DA:85,48
DA:87,48
DA:88,0
DA:90,89
DA:91,42
DA:92,42
DA:93,36
DA:94,6
DA:96,6
DA:97,0
DA:98,6
DA:100,6
DA:101,6
DA:102,0
DA:104,11
DA:105,6
DA:106,6
DA:107,1
DA:108,5
DA:110,0
DA:112,47
DA:113,62
DA:117,9
DA:118,9
DA:119,9
DA:120,9
DA:121,9
DA:129,1
DA:130,1
DA:140,1
DA:141,1
DA:146,9
DA:147,0
DA:148,9
DA:150,9
DA:151,2
DA:152,2
DA:153,2
DA:154,2
DA:155,2
DA:156,2
DA:157,2
DA:158,2
DA:159,2
DA:160,2
DA:161,2
DA:162,7
DA:165,9
DA:166,1
DA:167,8
DA:169,9
DA:170,3
DA:171,3
DA:172,3
DA:173,3
DA:174,3
DA:175,3
DA:176,3
DA:177,3
DA:178,3
DA:179,3
DA:180,6
DA:183,9
DA:184,0
DA:185,9
DA:186,9
DA:187,9
DA:189,9
DA:190,3
DA:191,3
DA:192,3
DA:193,3
DA:194,3
DA:195,3
DA:196,3
DA:197,3
DA:198,3
DA:199,3
DA:200,3
DA:201,6
DA:204,9
DA:205,0
DA:206,9
DA:207,9
DA:208,9
DA:209,9
DA:211,9
DA:212,1
DA:213,1
DA:214,1
DA:215,1
DA:216,1
DA:217,1
DA:218,1
DA:219,1
DA:220,1
DA:221,1
DA:222,8
DA:224,9
DA:225,9
DA:232,74
DA:233,74
DA:234,74
DA:235,45
DA:237,12
DA:238,9
DA:239,6
DA:241,74
DA:250,1
DA:251,1
DA:252,1
DA:253,1
DA:254,1
DA:255,1
DA:256,1
DA:257,1
DA:258,1
DA:261,1
DA:262,1
DA:263,1
DA:264,1
DA:265,1
DA:266,1
DA:268,1
DA:271,1
DA:272,1
DA:273,1
DA:274,1
DA:275,1
DA:276,1
DA:277,1
DA:278,1
DA:279,1
DA:280,1
DA:281,1
DA:282,1
DA:283,1
DA:286,1
DA:287,1
DA:288,1
DA:289,1
DA:290,1
DA:291,1
DA:292,1
DA:293,1
DA:294,1
DA:295,1
DA:296,1
DA:297,1
DA:298,1
DA:299,1
DA:302,1
DA:303,1
DA:304,1
DA:305,1
DA:306,1
DA:307,1
DA:308,1
DA:309,1
DA:310,1
DA:312,1
DA:314,1
DA:315,1
DA:318,1
DA:319,1
DA:320,1
DA:321,1
DA:322,1
DA:323,1
DA:324,1
DA:325,1
DA:326,1
DA:327,1
DA:328,1
DA:329,1
DA:330,1
DA:333,1
DA:334,1
DA:335,1
DA:336,1
DA:337,1
DA:338,1
DA:339,1
DA:340,1
DA:341,1
DA:342,1
DA:344,2
DA:346,2
DA:347,2
DA:348,1
DA:349,1
DA:352,1
DA:353,1
DA:354,1
DA:355,1
DA:356,1
DA:357,1
DA:358,1
DA:359,1
DA:360,1
DA:361,1
DA:364,1
DA:365,1
DA:366,1
DA:367,1
DA:368,1
DA:369,1
DA:370,1
DA:371,1
DA:372,1
DA:373,1
DA:374,1
DA:375,1
DA:376,1
DA:377,1
DA:378,1
DA:381,1
DA:382,1
DA:383,1
DA:384,1
DA:385,1
DA:386,1
DA:387,1
DA:388,1
DA:389,1
DA:390,1
DA:391,1
DA:392,1
DA:395,1
DA:397,1
DA:398,1
DA:399,1
DA:400,1
DA:401,1
DA:404,1
DA:405,1
DA:406,1
DA:407,1
DA:408,1
DA:409,1
DA:410,1
DA:411,1
DA:412,1
DA:413,1
BRF:0
BRH:0
LF:307
LH:291
end_of_record
SF:/home/irahardianto/works/projects/pathfinder/crates/pathfinder-lsp/src/client/mod.rs
FN:267,_RNCNCNvMs1_NtCscBgZELoTFF0_14pathfinder_lsp6clientNtB9_9LspClient14ensure_process00Bb_
FN:304,_RNCNCNvMs1_NtCscBgZELoTFF0_14pathfinder_lsp6clientNtB9_9LspClient14ensure_process0s_0Bb_
FN:526,_RNCNCNvMs1_NtCscBgZELoTFF0_14pathfinder_lsp6clientNtB9_9LspClient22call_hierarchy_request00Bb_
FN:531,_RNCNCNvMs1_NtCscBgZELoTFF0_14pathfinder_lsp6clientNtB9_9LspClient22call_hierarchy_request0s_0Bb_
FN:467,_RNCNCNvMs1_NtCscBgZELoTFF0_14pathfinder_lsp6clientNtB9_9LspClient7request00Bb_
FN:761,_RNCNCNvXs3_NtCscBgZELoTFF0_14pathfinder_lsp6clientNtB9_9LspClientNtNtBb_6lawyer6Lawyer10did_change00Bb_
FN:766,_RNCNCNvXs3_NtCscBgZELoTFF0_14pathfinder_lsp6clientNtB9_9LspClientNtNtBb_6lawyer6Lawyer10did_change0s_0Bb_
FN:581,_RNCNCNvXs3_NtCscBgZELoTFF0_14pathfinder_lsp6clientNtB9_9LspClientNtNtBb_6lawyer6Lawyer15goto_definition00Bb_
FN:589,_RNCNCNvXs3_NtCscBgZELoTFF0_14pathfinder_lsp6clientNtB9_9LspClientNtNtBb_6lawyer6Lawyer15goto_definition0s_0Bb_
FN:821,_RNCNCNvXs3_NtCscBgZELoTFF0_14pathfinder_lsp6clientNtB9_9LspClientNtNtBb_6lawyer6Lawyer16pull_diagnostics00Bb_
FN:834,_RNCNCNvXs3_NtCscBgZELoTFF0_14pathfinder_lsp6clientNtB9_9LspClientNtNtBb_6lawyer6Lawyer16pull_diagnostics0s_0Bb_
FN:926,_RNCNCNvXs3_NtCscBgZELoTFF0_14pathfinder_lsp6clientNtB9_9LspClientNtNtBb_6lawyer6Lawyer16range_formatting00Bb_
FN:939,_RNCNCNvXs3_NtCscBgZELoTFF0_14pathfinder_lsp6clientNtB9_9LspClientNtNtBb_6lawyer6Lawyer16range_formatting0s_0Bb_
FN:637,_RNCNCNvXs3_NtCscBgZELoTFF0_14pathfinder_lsp6clientNtB9_9LspClientNtNtBb_6lawyer6Lawyer22call_hierarchy_prepare00Bb_
FN:649,_RNCNCNvXs3_NtCscBgZELoTFF0_14pathfinder_lsp6clientNtB9_9LspClientNtNtBb_6lawyer6Lawyer22call_hierarchy_prepare0s_0Bb_
FN:875,_RNCNCNvXs3_NtCscBgZELoTFF0_14pathfinder_lsp6clientNtB9_9LspClientNtNtBb_6lawyer6Lawyer26pull_workspace_diagnostics00Bb_
FN:726,_RNCNCNvXs3_NtCscBgZELoTFF0_14pathfinder_lsp6clientNtB9_9LspClientNtNtBb_6lawyer6Lawyer8did_open00Bb_
FN:731,_RNCNCNvXs3_NtCscBgZELoTFF0_14pathfinder_lsp6clientNtB9_9LspClientNtNtBb_6lawyer6Lawyer8did_open0s_0Bb_
FN:790,_RNCNCNvXs3_NtCscBgZELoTFF0_14pathfinder_lsp6clientNtB9_9LspClientNtNtBb_6lawyer6Lawyer9did_close00Bb_
FN:795,_RNCNCNvXs3_NtCscBgZELoTFF0_14pathfinder_lsp6clientNtB9_9LspClientNtNtBb_6lawyer6Lawyer9did_close0s_0Bb_
FN:181,_RNCNvMs1_NtCscBgZELoTFF0_14pathfinder_lsp6clientNtB7_9LspClient10warm_start0B9_
FN:196,_RNCNvMs1_NtCscBgZELoTFF0_14pathfinder_lsp6clientNtB7_9LspClient10warm_starts_0B9_
FN:313,_RNCNvMs1_NtCscBgZELoTFF0_14pathfinder_lsp6clientNtB7_9LspClient13start_process0B9_
FN:233,_RNCNvMs1_NtCscBgZELoTFF0_14pathfinder_lsp6clientNtB7_9LspClient14ensure_process0B9_
FN:498,_RNCNvMs1_NtCscBgZELoTFF0_14pathfinder_lsp6clientNtB7_9LspClient16capabilities_for0B9_
FN:521,_RNCNvMs1_NtCscBgZELoTFF0_14pathfinder_lsp6clientNtB7_9LspClient22call_hierarchy_request0B9_
FN:414,_RNCNvMs1_NtCscBgZELoTFF0_14pathfinder_lsp6clientNtB7_9LspClient5touch0B9_
FN:486,_RNCNvMs1_NtCscBgZELoTFF0_14pathfinder_lsp6clientNtB7_9LspClient6notify0B9_
FN:431,_RNCNvMs1_NtCscBgZELoTFF0_14pathfinder_lsp6clientNtB7_9LspClient7request0B9_
FN:1108,_RNCNvNtCscBgZELoTFF0_14pathfinder_lsp6client22parse_diagnostic_items0B5_
FN:1119,_RNCNvNtCscBgZELoTFF0_14pathfinder_lsp6client22parse_diagnostic_itemss0_0B5_
FN:1116,_RNCNvNtCscBgZELoTFF0_14pathfinder_lsp6client22parse_diagnostic_itemss_0B5_
FN:1329,_RNCNvNtCscBgZELoTFF0_14pathfinder_lsp6client22reader_supervisor_task0B5_
FN:1148,_RNCNvNtCscBgZELoTFF0_14pathfinder_lsp6client25parse_definition_response0B5_
FN:1193,_RNCNvNtCscBgZELoTFF0_14pathfinder_lsp6client25parse_definition_responses0_0B5_
FN:1192,_RNCNvNtCscBgZELoTFF0_14pathfinder_lsp6client25parse_definition_responses_0B5_
FN:1019,_RNCNvNtCscBgZELoTFF0_14pathfinder_lsp6client25parse_diagnostic_response0B5_
FN:1285,_RNCNvNtCscBgZELoTFF0_14pathfinder_lsp6client35parse_call_hierarchy_calls_response0B5_
FN:1306,_RNCNvNtCscBgZELoTFF0_14pathfinder_lsp6client35parse_call_hierarchy_calls_responses0_0B5_
FN:1302,_RNCNvNtCscBgZELoTFF0_14pathfinder_lsp6client35parse_call_hierarchy_calls_responses_0B5_
FN:1053,_RNCNvNtCscBgZELoTFF0_14pathfinder_lsp6client35parse_workspace_diagnostic_response0B5_
FN:1059,_RNCNvNtCscBgZELoTFF0_14pathfinder_lsp6client35parse_workspace_diagnostic_responses0_0B5_
FN:1063,_RNCNvNtCscBgZELoTFF0_14pathfinder_lsp6client35parse_workspace_diagnostic_responses1_0B5_
FN:1082,_RNCNvNtCscBgZELoTFF0_14pathfinder_lsp6client35parse_workspace_diagnostic_responses2_0B5_
FN:1054,_RNCNvNtCscBgZELoTFF0_14pathfinder_lsp6client35parse_workspace_diagnostic_responses_0B5_
FN:1215,_RNCNvNtCscBgZELoTFF0_14pathfinder_lsp6client37parse_call_hierarchy_prepare_response0B5_
FN:1223,_RNCNvNtCscBgZELoTFF0_14pathfinder_lsp6client37parse_call_hierarchy_prepare_responses0_0B5_
FN:1228,_RNCNvNtCscBgZELoTFF0_14pathfinder_lsp6client37parse_call_hierarchy_prepare_responses1_0B5_
FN:1228,_RNCNvNtCscBgZELoTFF0_14pathfinder_lsp6client37parse_call_hierarchy_prepare_responses2_0B5_
FN:1260,_RNCNvNtCscBgZELoTFF0_14pathfinder_lsp6client37parse_call_hierarchy_prepare_responses3_0B5_
FN:1222,_RNCNvNtCscBgZELoTFF0_14pathfinder_lsp6client37parse_call_hierarchy_prepare_responses_0B5_
FN:67,_RNvMNtCscBgZELoTFF0_14pathfinder_lsp6clientNtB2_12ProcessEntry20to_validation_status
FN:177,_RNvMs1_NtCscBgZELoTFF0_14pathfinder_lsp6clientNtB5_9LspClient10warm_start
FN:313,_RNvMs1_NtCscBgZELoTFF0_14pathfinder_lsp6clientNtB5_9LspClient13start_process
FN:233,_RNvMs1_NtCscBgZELoTFF0_14pathfinder_lsp6clientNtB5_9LspClient14ensure_process
FN:498,_RNvMs1_NtCscBgZELoTFF0_14pathfinder_lsp6clientNtB5_9LspClient16capabilities_for
FN:513,_RNvMs1_NtCscBgZELoTFF0_14pathfinder_lsp6clientNtB5_9LspClient22call_hierarchy_request
FN:137,_RNvMs1_NtCscBgZELoTFF0_14pathfinder_lsp6clientNtB5_9LspClient3new
FN:414,_RNvMs1_NtCscBgZELoTFF0_14pathfinder_lsp6clientNtB5_9LspClient5touch
FN:481,_RNvMs1_NtCscBgZELoTFF0_14pathfinder_lsp6clientNtB5_9LspClient6notify
FN:425,_RNvMs1_NtCscBgZELoTFF0_14pathfinder_lsp6clientNtB5_9LspClient7request
FN:223,_RNvMs1_NtCscBgZELoTFF0_14pathfinder_lsp6clientNtB5_9LspClient8shutdown
FN:97,_RNvMs_NtCscBgZELoTFF0_14pathfinder_lsp6clientNtB4_13InFlightGuard3new
FN:1351,_RNvNtCscBgZELoTFF0_14pathfinder_lsp6client17idle_timeout_task
FN:1091,_RNvNtCscBgZELoTFF0_14pathfinder_lsp6client22parse_diagnostic_items
FN:1325,_RNvNtCscBgZELoTFF0_14pathfinder_lsp6client22reader_supervisor_task
FN:1137,_RNvNtCscBgZELoTFF0_14pathfinder_lsp6client25parse_definition_response
FN:1014,_RNvNtCscBgZELoTFF0_14pathfinder_lsp6client25parse_diagnostic_response
FN:1273,_RNvNtCscBgZELoTFF0_14pathfinder_lsp6client35parse_call_hierarchy_calls_response
FN:1045,_RNvNtCscBgZELoTFF0_14pathfinder_lsp6client35parse_workspace_diagnostic_response
FN:1205,_RNvNtCscBgZELoTFF0_14pathfinder_lsp6client37parse_call_hierarchy_prepare_response
FN:759,_RNvXs3_NtCscBgZELoTFF0_14pathfinder_lsp6clientNtB5_9LspClientNtNtB7_6lawyer6Lawyer10did_change
FN:576,_RNvXs3_NtCscBgZELoTFF0_14pathfinder_lsp6clientNtB5_9LspClientNtNtB7_6lawyer6Lawyer15goto_definition
FN:818,_RNvXs3_NtCscBgZELoTFF0_14pathfinder_lsp6clientNtB5_9LspClientNtNtB7_6lawyer6Lawyer16pull_diagnostics
FN:924,_RNvXs3_NtCscBgZELoTFF0_14pathfinder_lsp6clientNtB5_9LspClientNtNtB7_6lawyer6Lawyer16range_formatting
FN:993,_RNvXs3_NtCscBgZELoTFF0_14pathfinder_lsp6clientNtB5_9LspClientNtNtB7_6lawyer6Lawyer17capability_status
FN:634,_RNvXs3_NtCscBgZELoTFF0_14pathfinder_lsp6clientNtB5_9LspClientNtNtB7_6lawyer6Lawyer22call_hierarchy_prepare
FN:691,_RNvXs3_NtCscBgZELoTFF0_14pathfinder_lsp6clientNtB5_9LspClientNtNtB7_6lawyer6Lawyer23call_hierarchy_incoming
FN:707,_RNvXs3_NtCscBgZELoTFF0_14pathfinder_lsp6clientNtB5_9LspClientNtNtB7_6lawyer6Lawyer23call_hierarchy_outgoing
FN:567,_RNvXs3_NtCscBgZELoTFF0_14pathfinder_lsp6clientNtB5_9LspClientNtNtB7_6lawyer6Lawyer24did_change_watched_files
FN:872,_RNvXs3_NtCscBgZELoTFF0_14pathfinder_lsp6clientNtB5_9LspClientNtNtB7_6lawyer6Lawyer26pull_workspace_diagnostics
FN:724,_RNvXs3_NtCscBgZELoTFF0_14pathfinder_lsp6clientNtB5_9LspClientNtNtB7_6lawyer6Lawyer8did_open
FN:788,_RNvXs3_NtCscBgZELoTFF0_14pathfinder_lsp6clientNtB5_9LspClientNtNtB7_6lawyer6Lawyer9did_close
FN:104,_RNvXs0_NtCscBgZELoTFF0_14pathfinder_lsp6clientNtB5_13InFlightGuardNtNtNtCsgEmfK2I1SDS_4core3ops4drop4Drop4drop
FN:104,_RNvXs0_NtCs4F9smGagOs0_14pathfinder_lsp6clientNtB5_13InFlightGuardNtNtNtCsgEmfK2I1SDS_4core3ops4drop4Drop4drop
FN:67,_RNvMNtCs4F9smGagOs0_14pathfinder_lsp6clientNtB2_12ProcessEntry20to_validation_status
FN:177,_RNvMs1_NtCs4F9smGagOs0_14pathfinder_lsp6clientNtB5_9LspClient10warm_start
FN:313,_RNvMs1_NtCs4F9smGagOs0_14pathfinder_lsp6clientNtB5_9LspClient13start_process
FN:233,_RNvMs1_NtCs4F9smGagOs0_14pathfinder_lsp6clientNtB5_9LspClient14ensure_process
FN:498,_RNvMs1_NtCs4F9smGagOs0_14pathfinder_lsp6clientNtB5_9LspClient16capabilities_for
FN:513,_RNvMs1_NtCs4F9smGagOs0_14pathfinder_lsp6clientNtB5_9LspClient22call_hierarchy_request
FN:414,_RNvMs1_NtCs4F9smGagOs0_14pathfinder_lsp6clientNtB5_9LspClient5touch
FN:481,_RNvMs1_NtCs4F9smGagOs0_14pathfinder_lsp6clientNtB5_9LspClient6notify
FN:425,_RNvMs1_NtCs4F9smGagOs0_14pathfinder_lsp6clientNtB5_9LspClient7request
FN:97,_RNvMs_NtCs4F9smGagOs0_14pathfinder_lsp6clientNtB4_13InFlightGuard3new
FN:1091,_RNvNtCs4F9smGagOs0_14pathfinder_lsp6client22parse_diagnostic_items
FN:1325,_RNvNtCs4F9smGagOs0_14pathfinder_lsp6client22reader_supervisor_task
FN:1137,_RNvNtCs4F9smGagOs0_14pathfinder_lsp6client25parse_definition_response
FN:1014,_RNvNtCs4F9smGagOs0_14pathfinder_lsp6client25parse_diagnostic_response
FN:1273,_RNvNtCs4F9smGagOs0_14pathfinder_lsp6client35parse_call_hierarchy_calls_response
FN:1045,_RNvNtCs4F9smGagOs0_14pathfinder_lsp6client35parse_workspace_diagnostic_response
FN:1205,_RNvNtCs4F9smGagOs0_14pathfinder_lsp6client37parse_call_hierarchy_prepare_response
FN:759,_RNvXs3_NtCs4F9smGagOs0_14pathfinder_lsp6clientNtB5_9LspClientNtNtB7_6lawyer6Lawyer10did_change
FN:576,_RNvXs3_NtCs4F9smGagOs0_14pathfinder_lsp6clientNtB5_9LspClientNtNtB7_6lawyer6Lawyer15goto_definition
FN:818,_RNvXs3_NtCs4F9smGagOs0_14pathfinder_lsp6clientNtB5_9LspClientNtNtB7_6lawyer6Lawyer16pull_diagnostics
FN:924,_RNvXs3_NtCs4F9smGagOs0_14pathfinder_lsp6clientNtB5_9LspClientNtNtB7_6lawyer6Lawyer16range_formatting
FN:993,_RNvXs3_NtCs4F9smGagOs0_14pathfinder_lsp6clientNtB5_9LspClientNtNtB7_6lawyer6Lawyer17capability_status
FN:634,_RNvXs3_NtCs4F9smGagOs0_14pathfinder_lsp6clientNtB5_9LspClientNtNtB7_6lawyer6Lawyer22call_hierarchy_prepare
FN:691,_RNvXs3_NtCs4F9smGagOs0_14pathfinder_lsp6clientNtB5_9LspClientNtNtB7_6lawyer6Lawyer23call_hierarchy_incoming
FN:707,_RNvXs3_NtCs4F9smGagOs0_14pathfinder_lsp6clientNtB5_9LspClientNtNtB7_6lawyer6Lawyer23call_hierarchy_outgoing
FN:567,_RNvXs3_NtCs4F9smGagOs0_14pathfinder_lsp6clientNtB5_9LspClientNtNtB7_6lawyer6Lawyer24did_change_watched_files
FN:872,_RNvXs3_NtCs4F9smGagOs0_14pathfinder_lsp6clientNtB5_9LspClientNtNtB7_6lawyer6Lawyer26pull_workspace_diagnostics
FN:724,_RNvXs3_NtCs4F9smGagOs0_14pathfinder_lsp6clientNtB5_9LspClientNtNtB7_6lawyer6Lawyer8did_open
FN:788,_RNvXs3_NtCs4F9smGagOs0_14pathfinder_lsp6clientNtB5_9LspClientNtNtB7_6lawyer6Lawyer9did_close
FN:1894,_RNvNtNtCs4F9smGagOs0_14pathfinder_lsp6client5tests19client_no_languages
FN:1907,_RNvNtNtCs4F9smGagOs0_14pathfinder_lsp6client5tests23client_with_descriptors
FN:2161,_RNvNtNtCs4F9smGagOs0_14pathfinder_lsp6client5testss_27test_lawyer_did_open_no_lsp
FN:2188,_RNvNtNtCs4F9smGagOs0_14pathfinder_lsp6client5testss_28test_lawyer_did_close_no_lsp
FN:2174,_RNvNtNtCs4F9smGagOs0_14pathfinder_lsp6client5testss_29test_lawyer_did_change_no_lsp
FN:2240,_RNvNtNtCs4F9smGagOs0_14pathfinder_lsp6client5testss_29test_touch_no_process_is_noop
FN:1473,_RNvNtNtCs4F9smGagOs0_14pathfinder_lsp6client5testss_33test_parse_definition_empty_array
FN:2106,_RNvNtNtCs4F9smGagOs0_14pathfinder_lsp6client5testss_34test_lawyer_goto_definition_no_lsp
FN:2197,_RNvNtNtCs4F9smGagOs0_14pathfinder_lsp6client5testss_35test_lawyer_pull_diagnostics_no_lsp
FN:2215,_RNvNtNtCs4F9smGagOs0_14pathfinder_lsp6client5testss_35test_lawyer_range_formatting_no_lsp
FN:1417,_RNvNtNtCs4F9smGagOs0_14pathfinder_lsp6client5testss_35test_parse_definition_response_null
FN:1483,_RNvNtNtCs4F9smGagOs0_14pathfinder_lsp6client5testss_35test_parse_diagnostic_response_full
FN:1732,_RNvNtNtCs4F9smGagOs0_14pathfinder_lsp6client5testss_36test_parse_call_hierarchy_calls_null
FN:1439,_RNvNtNtCs4F9smGagOs0_14pathfinder_lsp6client5testss_36test_parse_definition_response_array
FN:2269,_RNvNtNtCs4F9smGagOs0_14pathfinder_lsp6client5testss_36test_warm_start_no_languages_is_noop
FN:2022,_RNvNtNtCs4F9smGagOs0_14pathfinder_lsp6client5testss_37test_notify_no_process_returns_no_lsp
FN:1847,_RNvNtNtCs4F9smGagOs0_14pathfinder_lsp6client5testss_37test_process_entry_unavailable_status
FN:1654,_RNvNtNtCs4F9smGagOs0_14pathfinder_lsp6client5testss_38test_parse_call_hierarchy_prepare_null
FN:1988,_RNvNtNtCs4F9smGagOs0_14pathfinder_lsp6client5testss_38test_request_no_process_returns_no_lsp
FN:1423,_RNvNtNtCs4F9smGagOs0_14pathfinder_lsp6client5testss_39test_parse_definition_response_location
FN:1743,_RNvNtNtCs4F9smGagOs0_14pathfinder_lsp6client5testss_40test_parse_call_hierarchy_calls_incoming
FN:1777,_RNvNtNtCs4F9smGagOs0_14pathfinder_lsp6client5testss_40test_parse_call_hierarchy_calls_outgoing
FN:1580,_RNvNtNtCs4F9smGagOs0_14pathfinder_lsp6client5testss_40test_parse_diagnostic_items_numeric_code
FN:1508,_RNvNtNtCs4F9smGagOs0_14pathfinder_lsp6client5testss_40test_parse_diagnostic_response_unchanged
FN:2115,_RNvNtNtCs4F9smGagOs0_14pathfinder_lsp6client5testss_41test_lawyer_call_hierarchy_prepare_no_lsp
FN:1811,_RNvNtNtCs4F9smGagOs0_14pathfinder_lsp6client5testss_41test_parse_call_hierarchy_calls_not_array
FN:1660,_RNvNtNtCs4F9smGagOs0_14pathfinder_lsp6client5testss_41test_parse_call_hierarchy_prepare_success
FN:1515,_RNvNtNtCs4F9smGagOs0_14pathfinder_lsp6client5testss_41test_parse_diagnostic_response_flat_array
FN:2124,_RNvNtNtCs4F9smGagOs0_14pathfinder_lsp6client5testss_42test_lawyer_call_hierarchy_incoming_no_lsp
FN:2143,_RNvNtNtCs4F9smGagOs0_14pathfinder_lsp6client5testss_42test_lawyer_call_hierarchy_outgoing_no_lsp
FN:2094,_RNvNtNtCs4F9smGagOs0_14pathfinder_lsp6client5testss_43test_capability_status_no_descriptors_empty
FN:1723,_RNvNtNtCs4F9smGagOs0_14pathfinder_lsp6client5testss_43test_parse_call_hierarchy_prepare_not_array
FN:1533,_RNvNtNtCs4F9smGagOs0_14pathfinder_lsp6client5testss_43test_parse_diagnostic_response_empty_object
FN:2230,_RNvNtNtCs4F9smGagOs0_14pathfinder_lsp6client5testss_44test_lawyer_did_change_watched_files_is_noop
FN:1454,_RNvNtNtCs4F9smGagOs0_14pathfinder_lsp6client5testss_44test_parse_definition_response_location_link
FN:1553,_RNvNtNtCs4F9smGagOs0_14pathfinder_lsp6client5testss_44test_parse_diagnostic_items_severity_mapping
FN:2206,_RNvNtNtCs4F9smGagOs0_14pathfinder_lsp6client5testss_45test_lawyer_pull_workspace_diagnostics_no_lsp
FN:2070,_RNvNtNtCs4F9smGagOs0_14pathfinder_lsp6client5testss_46test_capability_status_no_processes_lazy_start
FN:2249,_RNvNtNtCs4F9smGagOs0_14pathfinder_lsp6client5testss_46test_in_flight_guard_increments_and_decrements
FN:2031,_RNvNtNtCs4F9smGagOs0_14pathfinder_lsp6client5testss_46test_notify_unavailable_process_returns_no_lsp
FN:1692,_RNvNtNtCs4F9smGagOs0_14pathfinder_lsp6client5testss_46test_parse_call_hierarchy_prepare_kind_mapping
FN:1540,_RNvNtNtCs4F9smGagOs0_14pathfinder_lsp6client5testss_46test_parse_diagnostic_response_items_not_array
FN:2048,_RNvNtNtCs4F9smGagOs0_14pathfinder_lsp6client5testss_47test_capabilities_for_no_process_returns_no_lsp
FN:1569,_RNvNtNtCs4F9smGagOs0_14pathfinder_lsp6client5testss_47test_parse_diagnostic_items_skips_empty_message
FN:2002,_RNvNtNtCs4F9smGagOs0_14pathfinder_lsp6client5testss_47test_request_unavailable_process_returns_no_lsp
FN:2055,_RNvNtNtCs4F9smGagOs0_14pathfinder_lsp6client5testss_48test_capabilities_for_unavailable_returns_no_lsp
FN:2080,_RNvNtNtCs4F9smGagOs0_14pathfinder_lsp6client5testss_48test_capability_status_unavailable_shows_failure
FN:1935,_RNvNtNtCs4F9smGagOs0_14pathfinder_lsp6client5testss_48test_ensure_process_no_descriptor_returns_no_lsp
FN:1591,_RNvNtNtCs4F9smGagOs0_14pathfinder_lsp6client5testss_48test_parse_workspace_diagnostic_response_success
FN:1858,_RNvNtNtCs4F9smGagOs0_14pathfinder_lsp6client5testss_50test_process_entry_running_with_diagnostics_status
FN:1942,_RNvNtNtCs4F9smGagOs0_14pathfinder_lsp6client5testss_52test_ensure_process_unavailable_cooldown_not_elapsed
FN:1873,_RNvNtNtCs4F9smGagOs0_14pathfinder_lsp6client5testss_53test_process_entry_running_without_diagnostics_status
FN:1620,_RNvNtNtCs4F9smGagOs0_14pathfinder_lsp6client5testss_54test_parse_workspace_diagnostic_response_missing_items
FN:1640,_RNvNtNtCs4F9smGagOs0_14pathfinder_lsp6client5testss_55test_parse_workspace_diagnostic_response_no_uri_skipped
FN:1822,_RNvNtNtCs4F9smGagOs0_14pathfinder_lsp6client5testss_56test_parse_call_hierarchy_calls_missing_item_key_skipped
FN:1627,_RNvNtNtCs4F9smGagOs0_14pathfinder_lsp6client5testss_58test_parse_workspace_diagnostic_response_unchanged_skipped
FN:1958,_RNvNtNtCs4F9smGagOs0_14pathfinder_lsp6client5testss_62test_ensure_process_unavailable_cooldown_elapsed_removes_entry
FN:267,_RNCNCNvMs1_NtCs4F9smGagOs0_14pathfinder_lsp6clientNtB9_9LspClient14ensure_process00Bb_
FN:304,_RNCNCNvMs1_NtCs4F9smGagOs0_14pathfinder_lsp6clientNtB9_9LspClient14ensure_process0s_0Bb_
FN:526,_RNCNCNvMs1_NtCs4F9smGagOs0_14pathfinder_lsp6clientNtB9_9LspClient22call_hierarchy_request00Bb_
FN:531,_RNCNCNvMs1_NtCs4F9smGagOs0_14pathfinder_lsp6clientNtB9_9LspClient22call_hierarchy_request0s_0Bb_
FN:467,_RNCNCNvMs1_NtCs4F9smGagOs0_14pathfinder_lsp6clientNtB9_9LspClient7request00Bb_
FN:761,_RNCNCNvXs3_NtCs4F9smGagOs0_14pathfinder_lsp6clientNtB9_9LspClientNtNtBb_6lawyer6Lawyer10did_change00Bb_
FN:766,_RNCNCNvXs3_NtCs4F9smGagOs0_14pathfinder_lsp6clientNtB9_9LspClientNtNtBb_6lawyer6Lawyer10did_change0s_0Bb_
FN:581,_RNCNCNvXs3_NtCs4F9smGagOs0_14pathfinder_lsp6clientNtB9_9LspClientNtNtBb_6lawyer6Lawyer15goto_definition00Bb_
FN:589,_RNCNCNvXs3_NtCs4F9smGagOs0_14pathfinder_lsp6clientNtB9_9LspClientNtNtBb_6lawyer6Lawyer15goto_definition0s_0Bb_
FN:821,_RNCNCNvXs3_NtCs4F9smGagOs0_14pathfinder_lsp6clientNtB9_9LspClientNtNtBb_6lawyer6Lawyer16pull_diagnostics00Bb_
FN:834,_RNCNCNvXs3_NtCs4F9smGagOs0_14pathfinder_lsp6clientNtB9_9LspClientNtNtBb_6lawyer6Lawyer16pull_diagnostics0s_0Bb_
FN:926,_RNCNCNvXs3_NtCs4F9smGagOs0_14pathfinder_lsp6clientNtB9_9LspClientNtNtBb_6lawyer6Lawyer16range_formatting00Bb_
FN:939,_RNCNCNvXs3_NtCs4F9smGagOs0_14pathfinder_lsp6clientNtB9_9LspClientNtNtBb_6lawyer6Lawyer16range_formatting0s_0Bb_
FN:637,_RNCNCNvXs3_NtCs4F9smGagOs0_14pathfinder_lsp6clientNtB9_9LspClientNtNtBb_6lawyer6Lawyer22call_hierarchy_prepare00Bb_
FN:649,_RNCNCNvXs3_NtCs4F9smGagOs0_14pathfinder_lsp6clientNtB9_9LspClientNtNtBb_6lawyer6Lawyer22call_hierarchy_prepare0s_0Bb_
FN:875,_RNCNCNvXs3_NtCs4F9smGagOs0_14pathfinder_lsp6clientNtB9_9LspClientNtNtBb_6lawyer6Lawyer26pull_workspace_diagnostics00Bb_
FN:726,_RNCNCNvXs3_NtCs4F9smGagOs0_14pathfinder_lsp6clientNtB9_9LspClientNtNtBb_6lawyer6Lawyer8did_open00Bb_
FN:731,_RNCNCNvXs3_NtCs4F9smGagOs0_14pathfinder_lsp6clientNtB9_9LspClientNtNtBb_6lawyer6Lawyer8did_open0s_0Bb_
FN:790,_RNCNCNvXs3_NtCs4F9smGagOs0_14pathfinder_lsp6clientNtB9_9LspClientNtNtBb_6lawyer6Lawyer9did_close00Bb_
FN:795,_RNCNCNvXs3_NtCs4F9smGagOs0_14pathfinder_lsp6clientNtB9_9LspClientNtNtBb_6lawyer6Lawyer9did_close0s_0Bb_
FN:181,_RNCNvMs1_NtCs4F9smGagOs0_14pathfinder_lsp6clientNtB7_9LspClient10warm_start0B9_
FN:196,_RNCNvMs1_NtCs4F9smGagOs0_14pathfinder_lsp6clientNtB7_9LspClient10warm_starts_0B9_
FN:313,_RNCNvMs1_NtCs4F9smGagOs0_14pathfinder_lsp6clientNtB7_9LspClient13start_process0B9_
FN:233,_RNCNvMs1_NtCs4F9smGagOs0_14pathfinder_lsp6clientNtB7_9LspClient14ensure_process0B9_
FN:498,_RNCNvMs1_NtCs4F9smGagOs0_14pathfinder_lsp6clientNtB7_9LspClient16capabilities_for0B9_
FN:521,_RNCNvMs1_NtCs4F9smGagOs0_14pathfinder_lsp6clientNtB7_9LspClient22call_hierarchy_request0B9_
FN:414,_RNCNvMs1_NtCs4F9smGagOs0_14pathfinder_lsp6clientNtB7_9LspClient5touch0B9_
FN:486,_RNCNvMs1_NtCs4F9smGagOs0_14pathfinder_lsp6clientNtB7_9LspClient6notify0B9_
FN:431,_RNCNvMs1_NtCs4F9smGagOs0_14pathfinder_lsp6clientNtB7_9LspClient7request0B9_
FN:1108,_RNCNvNtCs4F9smGagOs0_14pathfinder_lsp6client22parse_diagnostic_items0B5_
FN:1119,_RNCNvNtCs4F9smGagOs0_14pathfinder_lsp6client22parse_diagnostic_itemss0_0B5_
FN:1116,_RNCNvNtCs4F9smGagOs0_14pathfinder_lsp6client22parse_diagnostic_itemss_0B5_
FN:1329,_RNCNvNtCs4F9smGagOs0_14pathfinder_lsp6client22reader_supervisor_task0B5_
FN:1148,_RNCNvNtCs4F9smGagOs0_14pathfinder_lsp6client25parse_definition_response0B5_
FN:1193,_RNCNvNtCs4F9smGagOs0_14pathfinder_lsp6client25parse_definition_responses0_0B5_
FN:1192,_RNCNvNtCs4F9smGagOs0_14pathfinder_lsp6client25parse_definition_responses_0B5_
FN:1019,_RNCNvNtCs4F9smGagOs0_14pathfinder_lsp6client25parse_diagnostic_response0B5_
FN:1285,_RNCNvNtCs4F9smGagOs0_14pathfinder_lsp6client35parse_call_hierarchy_calls_response0B5_
FN:1306,_RNCNvNtCs4F9smGagOs0_14pathfinder_lsp6client35parse_call_hierarchy_calls_responses0_0B5_
FN:1302,_RNCNvNtCs4F9smGagOs0_14pathfinder_lsp6client35parse_call_hierarchy_calls_responses_0B5_
FN:1053,_RNCNvNtCs4F9smGagOs0_14pathfinder_lsp6client35parse_workspace_diagnostic_response0B5_
FN:1059,_RNCNvNtCs4F9smGagOs0_14pathfinder_lsp6client35parse_workspace_diagnostic_responses0_0B5_
FN:1063,_RNCNvNtCs4F9smGagOs0_14pathfinder_lsp6client35parse_workspace_diagnostic_responses1_0B5_
FN:1082,_RNCNvNtCs4F9smGagOs0_14pathfinder_lsp6client35parse_workspace_diagnostic_responses2_0B5_
FN:1054,_RNCNvNtCs4F9smGagOs0_14pathfinder_lsp6client35parse_workspace_diagnostic_responses_0B5_
FN:1215,_RNCNvNtCs4F9smGagOs0_14pathfinder_lsp6client37parse_call_hierarchy_prepare_response0B5_
FN:1223,_RNCNvNtCs4F9smGagOs0_14pathfinder_lsp6client37parse_call_hierarchy_prepare_responses0_0B5_
FN:1228,_RNCNvNtCs4F9smGagOs0_14pathfinder_lsp6client37parse_call_hierarchy_prepare_responses1_0B5_
FN:1228,_RNCNvNtCs4F9smGagOs0_14pathfinder_lsp6client37parse_call_hierarchy_prepare_responses2_0B5_
FN:1260,_RNCNvNtCs4F9smGagOs0_14pathfinder_lsp6client37parse_call_hierarchy_prepare_responses3_0B5_
FN:1222,_RNCNvNtCs4F9smGagOs0_14pathfinder_lsp6client37parse_call_hierarchy_prepare_responses_0B5_
FN:1377,_RNCNCNvNtCs4F9smGagOs0_14pathfinder_lsp6client17idle_timeout_task0s_0B7_
FN:140,_RNCNvMs1_NtCs4F9smGagOs0_14pathfinder_lsp6clientNtB7_9LspClient3new0B9_
FN:1355,_RNCNvNtCs4F9smGagOs0_14pathfinder_lsp6client17idle_timeout_task0B5_
FN:137,_RNvMs1_NtCs4F9smGagOs0_14pathfinder_lsp6clientNtB5_9LspClient3new
FN:223,_RNvMs1_NtCs4F9smGagOs0_14pathfinder_lsp6clientNtB5_9LspClient8shutdown
FN:1351,_RNvNtCs4F9smGagOs0_14pathfinder_lsp6client17idle_timeout_task
FN:1914,_RNCNvNtNtCs4F9smGagOs0_14pathfinder_lsp6client5tests23client_with_descriptors0B7_
FN:2161,_RNCNvNtNtCs4F9smGagOs0_14pathfinder_lsp6client5testss_27test_lawyer_did_open_no_lsp0B7_
FN:2188,_RNCNvNtNtCs4F9smGagOs0_14pathfinder_lsp6client5testss_28test_lawyer_did_close_no_lsp0B7_
FN:2174,_RNCNvNtNtCs4F9smGagOs0_14pathfinder_lsp6client5testss_29test_lawyer_did_change_no_lsp0B7_
FN:2240,_RNCNvNtNtCs4F9smGagOs0_14pathfinder_lsp6client5testss_29test_touch_no_process_is_noop0B7_
FN:2106,_RNCNvNtNtCs4F9smGagOs0_14pathfinder_lsp6client5testss_34test_lawyer_goto_definition_no_lsp0B7_
FN:2197,_RNCNvNtNtCs4F9smGagOs0_14pathfinder_lsp6client5testss_35test_lawyer_pull_diagnostics_no_lsp0B7_
FN:2215,_RNCNvNtNtCs4F9smGagOs0_14pathfinder_lsp6client5testss_35test_lawyer_range_formatting_no_lsp0B7_
FN:2269,_RNCNvNtNtCs4F9smGagOs0_14pathfinder_lsp6client5testss_36test_warm_start_no_languages_is_noop0B7_
FN:2022,_RNCNvNtNtCs4F9smGagOs0_14pathfinder_lsp6client5testss_37test_notify_no_process_returns_no_lsp0B7_
FN:1988,_RNCNvNtNtCs4F9smGagOs0_14pathfinder_lsp6client5testss_38test_request_no_process_returns_no_lsp0B7_
FN:2115,_RNCNvNtNtCs4F9smGagOs0_14pathfinder_lsp6client5testss_41test_lawyer_call_hierarchy_prepare_no_lsp0B7_
FN:2124,_RNCNvNtNtCs4F9smGagOs0_14pathfinder_lsp6client5testss_42test_lawyer_call_hierarchy_incoming_no_lsp0B7_
FN:2143,_RNCNvNtNtCs4F9smGagOs0_14pathfinder_lsp6client5testss_42test_lawyer_call_hierarchy_outgoing_no_lsp0B7_
FN:2094,_RNCNvNtNtCs4F9smGagOs0_14pathfinder_lsp6client5testss_43test_capability_status_no_descriptors_empty0B7_
FN:2230,_RNCNvNtNtCs4F9smGagOs0_14pathfinder_lsp6client5testss_44test_lawyer_did_change_watched_files_is_noop0B7_
FN:2206,_RNCNvNtNtCs4F9smGagOs0_14pathfinder_lsp6client5testss_45test_lawyer_pull_workspace_diagnostics_no_lsp0B7_
FN:2070,_RNCNvNtNtCs4F9smGagOs0_14pathfinder_lsp6client5testss_46test_capability_status_no_processes_lazy_start0B7_
FN:2031,_RNCNvNtNtCs4F9smGagOs0_14pathfinder_lsp6client5testss_46test_notify_unavailable_process_returns_no_lsp0B7_
FN:2048,_RNCNvNtNtCs4F9smGagOs0_14pathfinder_lsp6client5testss_47test_capabilities_for_no_process_returns_no_lsp0B7_
FN:2002,_RNCNvNtNtCs4F9smGagOs0_14pathfinder_lsp6client5testss_47test_request_unavailable_process_returns_no_lsp0B7_
FN:2055,_RNCNvNtNtCs4F9smGagOs0_14pathfinder_lsp6client5testss_48test_capabilities_for_unavailable_returns_no_lsp0B7_
FN:2080,_RNCNvNtNtCs4F9smGagOs0_14pathfinder_lsp6client5testss_48test_capability_status_unavailable_shows_failure0B7_
FN:1935,_RNCNvNtNtCs4F9smGagOs0_14pathfinder_lsp6client5testss_48test_ensure_process_no_descriptor_returns_no_lsp0B7_
FN:1942,_RNCNvNtNtCs4F9smGagOs0_14pathfinder_lsp6client5testss_52test_ensure_process_unavailable_cooldown_not_elapsed0B7_
FN:1958,_RNCNvNtNtCs4F9smGagOs0_14pathfinder_lsp6client5testss_62test_ensure_process_unavailable_cooldown_elapsed_removes_entry0B7_
FN:1377,_RNCNCNvNtCscBgZELoTFF0_14pathfinder_lsp6client17idle_timeout_task0s_0Cs7Fw43FPylcK_14pathfinder_mcp
FN:140,_RNCNvMs1_NtCscBgZELoTFF0_14pathfinder_lsp6clientNtB7_9LspClient3new0Cs7Fw43FPylcK_14pathfinder_mcp
FN:1355,_RNCNvNtCscBgZELoTFF0_14pathfinder_lsp6client17idle_timeout_task0Cs7Fw43FPylcK_14pathfinder_mcp
FN:1377,_RNCNCNvNtCscBgZELoTFF0_14pathfinder_lsp6client17idle_timeout_task0s_0CsaBz7PZGcJGm_14pathfinder_mcp
FN:140,_RNCNvMs1_NtCscBgZELoTFF0_14pathfinder_lsp6clientNtB7_9LspClient3new0CsaBz7PZGcJGm_14pathfinder_mcp
FN:1355,_RNCNvNtCscBgZELoTFF0_14pathfinder_lsp6client17idle_timeout_task0CsaBz7PZGcJGm_14pathfinder_mcp
FNDA:0,_RNCNCNvMs1_NtCscBgZELoTFF0_14pathfinder_lsp6clientNtB9_9LspClient14ensure_process00Bb_
FNDA:0,_RNCNCNvMs1_NtCscBgZELoTFF0_14pathfinder_lsp6clientNtB9_9LspClient14ensure_process0s_0Bb_
FNDA:0,_RNCNCNvMs1_NtCscBgZELoTFF0_14pathfinder_lsp6clientNtB9_9LspClient22call_hierarchy_request00Bb_
FNDA:0,_RNCNCNvMs1_NtCscBgZELoTFF0_14pathfinder_lsp6clientNtB9_9LspClient22call_hierarchy_request0s_0Bb_
FNDA:0,_RNCNCNvMs1_NtCscBgZELoTFF0_14pathfinder_lsp6clientNtB9_9LspClient7request00Bb_
FNDA:0,_RNCNCNvXs3_NtCscBgZELoTFF0_14pathfinder_lsp6clientNtB9_9LspClientNtNtBb_6lawyer6Lawyer10did_change00Bb_
FNDA:0,_RNCNCNvXs3_NtCscBgZELoTFF0_14pathfinder_lsp6clientNtB9_9LspClientNtNtBb_6lawyer6Lawyer10did_change0s_0Bb_
FNDA:0,_RNCNCNvXs3_NtCscBgZELoTFF0_14pathfinder_lsp6clientNtB9_9LspClientNtNtBb_6lawyer6Lawyer15goto_definition00Bb_
FNDA:0,_RNCNCNvXs3_NtCscBgZELoTFF0_14pathfinder_lsp6clientNtB9_9LspClientNtNtBb_6lawyer6Lawyer15goto_definition0s_0Bb_
FNDA:0,_RNCNCNvXs3_NtCscBgZELoTFF0_14pathfinder_lsp6clientNtB9_9LspClientNtNtBb_6lawyer6Lawyer16pull_diagnostics00Bb_
FNDA:0,_RNCNCNvXs3_NtCscBgZELoTFF0_14pathfinder_lsp6clientNtB9_9LspClientNtNtBb_6lawyer6Lawyer16pull_diagnostics0s_0Bb_
FNDA:0,_RNCNCNvXs3_NtCscBgZELoTFF0_14pathfinder_lsp6clientNtB9_9LspClientNtNtBb_6lawyer6Lawyer16range_formatting00Bb_
FNDA:0,_RNCNCNvXs3_NtCscBgZELoTFF0_14pathfinder_lsp6clientNtB9_9LspClientNtNtBb_6lawyer6Lawyer16range_formatting0s_0Bb_
FNDA:0,_RNCNCNvXs3_NtCscBgZELoTFF0_14pathfinder_lsp6clientNtB9_9LspClientNtNtBb_6lawyer6Lawyer22call_hierarchy_prepare00Bb_
FNDA:0,_RNCNCNvXs3_NtCscBgZELoTFF0_14pathfinder_lsp6clientNtB9_9LspClientNtNtBb_6lawyer6Lawyer22call_hierarchy_prepare0s_0Bb_
FNDA:0,_RNCNCNvXs3_NtCscBgZELoTFF0_14pathfinder_lsp6clientNtB9_9LspClientNtNtBb_6lawyer6Lawyer26pull_workspace_diagnostics00Bb_
FNDA:0,_RNCNCNvXs3_NtCscBgZELoTFF0_14pathfinder_lsp6clientNtB9_9LspClientNtNtBb_6lawyer6Lawyer8did_open00Bb_
FNDA:0,_RNCNCNvXs3_NtCscBgZELoTFF0_14pathfinder_lsp6clientNtB9_9LspClientNtNtBb_6lawyer6Lawyer8did_open0s_0Bb_
FNDA:0,_RNCNCNvXs3_NtCscBgZELoTFF0_14pathfinder_lsp6clientNtB9_9LspClientNtNtBb_6lawyer6Lawyer9did_close00Bb_
FNDA:0,_RNCNCNvXs3_NtCscBgZELoTFF0_14pathfinder_lsp6clientNtB9_9LspClientNtNtBb_6lawyer6Lawyer9did_close0s_0Bb_
FNDA:0,_RNCNvMs1_NtCscBgZELoTFF0_14pathfinder_lsp6clientNtB7_9LspClient10warm_start0B9_
FNDA:0,_RNCNvMs1_NtCscBgZELoTFF0_14pathfinder_lsp6clientNtB7_9LspClient10warm_starts_0B9_
FNDA:0,_RNCNvMs1_NtCscBgZELoTFF0_14pathfinder_lsp6clientNtB7_9LspClient13start_process0B9_
FNDA:0,_RNCNvMs1_NtCscBgZELoTFF0_14pathfinder_lsp6clientNtB7_9LspClient14ensure_process0B9_
FNDA:0,_RNCNvMs1_NtCscBgZELoTFF0_14pathfinder_lsp6clientNtB7_9LspClient16capabilities_for0B9_
FNDA:0,_RNCNvMs1_NtCscBgZELoTFF0_14pathfinder_lsp6clientNtB7_9LspClient22call_hierarchy_request0B9_
FNDA:0,_RNCNvMs1_NtCscBgZELoTFF0_14pathfinder_lsp6clientNtB7_9LspClient5touch0B9_
FNDA:0,_RNCNvMs1_NtCscBgZELoTFF0_14pathfinder_lsp6clientNtB7_9LspClient6notify0B9_
FNDA:0,_RNCNvMs1_NtCscBgZELoTFF0_14pathfinder_lsp6clientNtB7_9LspClient7request0B9_
FNDA:0,_RNCNvNtCscBgZELoTFF0_14pathfinder_lsp6client22parse_diagnostic_items0B5_
FNDA:0,_RNCNvNtCscBgZELoTFF0_14pathfinder_lsp6client22parse_diagnostic_itemss0_0B5_
FNDA:0,_RNCNvNtCscBgZELoTFF0_14pathfinder_lsp6client22parse_diagnostic_itemss_0B5_
FNDA:0,_RNCNvNtCscBgZELoTFF0_14pathfinder_lsp6client22reader_supervisor_task0B5_
FNDA:0,_RNCNvNtCscBgZELoTFF0_14pathfinder_lsp6client25parse_definition_response0B5_
FNDA:0,_RNCNvNtCscBgZELoTFF0_14pathfinder_lsp6client25parse_definition_responses0_0B5_
FNDA:0,_RNCNvNtCscBgZELoTFF0_14pathfinder_lsp6client25parse_definition_responses_0B5_
FNDA:0,_RNCNvNtCscBgZELoTFF0_14pathfinder_lsp6client25parse_diagnostic_response0B5_
FNDA:0,_RNCNvNtCscBgZELoTFF0_14pathfinder_lsp6client35parse_call_hierarchy_calls_response0B5_
FNDA:0,_RNCNvNtCscBgZELoTFF0_14pathfinder_lsp6client35parse_call_hierarchy_calls_responses0_0B5_
FNDA:0,_RNCNvNtCscBgZELoTFF0_14pathfinder_lsp6client35parse_call_hierarchy_calls_responses_0B5_
FNDA:0,_RNCNvNtCscBgZELoTFF0_14pathfinder_lsp6client35parse_workspace_diagnostic_response0B5_
FNDA:0,_RNCNvNtCscBgZELoTFF0_14pathfinder_lsp6client35parse_workspace_diagnostic_responses0_0B5_
FNDA:0,_RNCNvNtCscBgZELoTFF0_14pathfinder_lsp6client35parse_workspace_diagnostic_responses1_0B5_
FNDA:0,_RNCNvNtCscBgZELoTFF0_14pathfinder_lsp6client35parse_workspace_diagnostic_responses2_0B5_
FNDA:0,_RNCNvNtCscBgZELoTFF0_14pathfinder_lsp6client35parse_workspace_diagnostic_responses_0B5_
FNDA:0,_RNCNvNtCscBgZELoTFF0_14pathfinder_lsp6client37parse_call_hierarchy_prepare_response0B5_
FNDA:0,_RNCNvNtCscBgZELoTFF0_14pathfinder_lsp6client37parse_call_hierarchy_prepare_responses0_0B5_
FNDA:0,_RNCNvNtCscBgZELoTFF0_14pathfinder_lsp6client37parse_call_hierarchy_prepare_responses1_0B5_
FNDA:0,_RNCNvNtCscBgZELoTFF0_14pathfinder_lsp6client37parse_call_hierarchy_prepare_responses2_0B5_
FNDA:0,_RNCNvNtCscBgZELoTFF0_14pathfinder_lsp6client37parse_call_hierarchy_prepare_responses3_0B5_
FNDA:0,_RNCNvNtCscBgZELoTFF0_14pathfinder_lsp6client37parse_call_hierarchy_prepare_responses_0B5_
FNDA:0,_RNvMNtCscBgZELoTFF0_14pathfinder_lsp6clientNtB2_12ProcessEntry20to_validation_status
FNDA:0,_RNvMs1_NtCscBgZELoTFF0_14pathfinder_lsp6clientNtB5_9LspClient10warm_start
FNDA:0,_RNvMs1_NtCscBgZELoTFF0_14pathfinder_lsp6clientNtB5_9LspClient13start_process
FNDA:0,_RNvMs1_NtCscBgZELoTFF0_14pathfinder_lsp6clientNtB5_9LspClient14ensure_process
FNDA:0,_RNvMs1_NtCscBgZELoTFF0_14pathfinder_lsp6clientNtB5_9LspClient16capabilities_for
FNDA:0,_RNvMs1_NtCscBgZELoTFF0_14pathfinder_lsp6clientNtB5_9LspClient22call_hierarchy_request
FNDA:0,_RNvMs1_NtCscBgZELoTFF0_14pathfinder_lsp6clientNtB5_9LspClient3new
FNDA:0,_RNvMs1_NtCscBgZELoTFF0_14pathfinder_lsp6clientNtB5_9LspClient5touch
FNDA:0,_RNvMs1_NtCscBgZELoTFF0_14pathfinder_lsp6clientNtB5_9LspClient6notify
FNDA:0,_RNvMs1_NtCscBgZELoTFF0_14pathfinder_lsp6clientNtB5_9LspClient7request
FNDA:0,_RNvMs1_NtCscBgZELoTFF0_14pathfinder_lsp6clientNtB5_9LspClient8shutdown
FNDA:0,_RNvMs_NtCscBgZELoTFF0_14pathfinder_lsp6clientNtB4_13InFlightGuard3new
FNDA:0,_RNvNtCscBgZELoTFF0_14pathfinder_lsp6client17idle_timeout_task
FNDA:0,_RNvNtCscBgZELoTFF0_14pathfinder_lsp6client22parse_diagnostic_items
FNDA:0,_RNvNtCscBgZELoTFF0_14pathfinder_lsp6client22reader_supervisor_task
FNDA:0,_RNvNtCscBgZELoTFF0_14pathfinder_lsp6client25parse_definition_response
FNDA:0,_RNvNtCscBgZELoTFF0_14pathfinder_lsp6client25parse_diagnostic_response
FNDA:0,_RNvNtCscBgZELoTFF0_14pathfinder_lsp6client35parse_call_hierarchy_calls_response
FNDA:0,_RNvNtCscBgZELoTFF0_14pathfinder_lsp6client35parse_workspace_diagnostic_response
FNDA:0,_RNvNtCscBgZELoTFF0_14pathfinder_lsp6client37parse_call_hierarchy_prepare_response
FNDA:0,_RNvXs3_NtCscBgZELoTFF0_14pathfinder_lsp6clientNtB5_9LspClientNtNtB7_6lawyer6Lawyer10did_change
FNDA:0,_RNvXs3_NtCscBgZELoTFF0_14pathfinder_lsp6clientNtB5_9LspClientNtNtB7_6lawyer6Lawyer15goto_definition
FNDA:0,_RNvXs3_NtCscBgZELoTFF0_14pathfinder_lsp6clientNtB5_9LspClientNtNtB7_6lawyer6Lawyer16pull_diagnostics
FNDA:0,_RNvXs3_NtCscBgZELoTFF0_14pathfinder_lsp6clientNtB5_9LspClientNtNtB7_6lawyer6Lawyer16range_formatting
FNDA:0,_RNvXs3_NtCscBgZELoTFF0_14pathfinder_lsp6clientNtB5_9LspClientNtNtB7_6lawyer6Lawyer17capability_status
FNDA:0,_RNvXs3_NtCscBgZELoTFF0_14pathfinder_lsp6clientNtB5_9LspClientNtNtB7_6lawyer6Lawyer22call_hierarchy_prepare
FNDA:0,_RNvXs3_NtCscBgZELoTFF0_14pathfinder_lsp6clientNtB5_9LspClientNtNtB7_6lawyer6Lawyer23call_hierarchy_incoming
FNDA:0,_RNvXs3_NtCscBgZELoTFF0_14pathfinder_lsp6clientNtB5_9LspClientNtNtB7_6lawyer6Lawyer23call_hierarchy_outgoing
FNDA:0,_RNvXs3_NtCscBgZELoTFF0_14pathfinder_lsp6clientNtB5_9LspClientNtNtB7_6lawyer6Lawyer24did_change_watched_files
FNDA:0,_RNvXs3_NtCscBgZELoTFF0_14pathfinder_lsp6clientNtB5_9LspClientNtNtB7_6lawyer6Lawyer26pull_workspace_diagnostics
FNDA:0,_RNvXs3_NtCscBgZELoTFF0_14pathfinder_lsp6clientNtB5_9LspClientNtNtB7_6lawyer6Lawyer8did_open
FNDA:0,_RNvXs3_NtCscBgZELoTFF0_14pathfinder_lsp6clientNtB5_9LspClientNtNtB7_6lawyer6Lawyer9did_close
FNDA:0,_RNvXs0_NtCscBgZELoTFF0_14pathfinder_lsp6clientNtB5_13InFlightGuardNtNtNtCsgEmfK2I1SDS_4core3ops4drop4Drop4drop
FNDA:2,_RNvXs0_NtCs4F9smGagOs0_14pathfinder_lsp6clientNtB5_13InFlightGuardNtNtNtCsgEmfK2I1SDS_4core3ops4drop4Drop4drop
FNDA:2,_RNvMNtCs4F9smGagOs0_14pathfinder_lsp6clientNtB2_12ProcessEntry20to_validation_status
FNDA:1,_RNvMs1_NtCs4F9smGagOs0_14pathfinder_lsp6clientNtB5_9LspClient10warm_start
FNDA:0,_RNvMs1_NtCs4F9smGagOs0_14pathfinder_lsp6clientNtB5_9LspClient13start_process
FNDA:13,_RNvMs1_NtCs4F9smGagOs0_14pathfinder_lsp6clientNtB5_9LspClient14ensure_process
FNDA:2,_RNvMs1_NtCs4F9smGagOs0_14pathfinder_lsp6clientNtB5_9LspClient16capabilities_for
FNDA:2,_RNvMs1_NtCs4F9smGagOs0_14pathfinder_lsp6clientNtB5_9LspClient22call_hierarchy_request
FNDA:1,_RNvMs1_NtCs4F9smGagOs0_14pathfinder_lsp6clientNtB5_9LspClient5touch
FNDA:2,_RNvMs1_NtCs4F9smGagOs0_14pathfinder_lsp6clientNtB5_9LspClient6notify
FNDA:2,_RNvMs1_NtCs4F9smGagOs0_14pathfinder_lsp6clientNtB5_9LspClient7request
FNDA:2,_RNvMs_NtCs4F9smGagOs0_14pathfinder_lsp6clientNtB4_13InFlightGuard3new
FNDA:6,_RNvNtCs4F9smGagOs0_14pathfinder_lsp6client22parse_diagnostic_items
FNDA:0,_RNvNtCs4F9smGagOs0_14pathfinder_lsp6client22reader_supervisor_task
FNDA:5,_RNvNtCs4F9smGagOs0_14pathfinder_lsp6client25parse_definition_response
FNDA:5,_RNvNtCs4F9smGagOs0_14pathfinder_lsp6client25parse_diagnostic_response
FNDA:5,_RNvNtCs4F9smGagOs0_14pathfinder_lsp6client35parse_call_hierarchy_calls_response
FNDA:4,_RNvNtCs4F9smGagOs0_14pathfinder_lsp6client35parse_workspace_diagnostic_response
FNDA:10,_RNvNtCs4F9smGagOs0_14pathfinder_lsp6client37parse_call_hierarchy_prepare_response
FNDA:1,_RNvXs3_NtCs4F9smGagOs0_14pathfinder_lsp6clientNtB5_9LspClientNtNtB7_6lawyer6Lawyer10did_change
FNDA:1,_RNvXs3_NtCs4F9smGagOs0_14pathfinder_lsp6clientNtB5_9LspClientNtNtB7_6lawyer6Lawyer15goto_definition
FNDA:1,_RNvXs3_NtCs4F9smGagOs0_14pathfinder_lsp6clientNtB5_9LspClientNtNtB7_6lawyer6Lawyer16pull_diagnostics
FNDA:1,_RNvXs3_NtCs4F9smGagOs0_14pathfinder_lsp6clientNtB5_9LspClientNtNtB7_6lawyer6Lawyer16range_formatting
FNDA:3,_RNvXs3_NtCs4F9smGagOs0_14pathfinder_lsp6clientNtB5_9LspClientNtNtB7_6lawyer6Lawyer17capability_status
FNDA:1,_RNvXs3_NtCs4F9smGagOs0_14pathfinder_lsp6clientNtB5_9LspClientNtNtB7_6lawyer6Lawyer22call_hierarchy_prepare
FNDA:1,_RNvXs3_NtCs4F9smGagOs0_14pathfinder_lsp6clientNtB5_9LspClientNtNtB7_6lawyer6Lawyer23call_hierarchy_incoming
FNDA:1,_RNvXs3_NtCs4F9smGagOs0_14pathfinder_lsp6clientNtB5_9LspClientNtNtB7_6lawyer6Lawyer23call_hierarchy_outgoing
FNDA:1,_RNvXs3_NtCs4F9smGagOs0_14pathfinder_lsp6clientNtB5_9LspClientNtNtB7_6lawyer6Lawyer24did_change_watched_files
FNDA:1,_RNvXs3_NtCs4F9smGagOs0_14pathfinder_lsp6clientNtB5_9LspClientNtNtB7_6lawyer6Lawyer26pull_workspace_diagnostics
FNDA:1,_RNvXs3_NtCs4F9smGagOs0_14pathfinder_lsp6clientNtB5_9LspClientNtNtB7_6lawyer6Lawyer8did_open
FNDA:1,_RNvXs3_NtCs4F9smGagOs0_14pathfinder_lsp6clientNtB5_9LspClientNtNtB7_6lawyer6Lawyer9did_close
FNDA:18,_RNvNtNtCs4F9smGagOs0_14pathfinder_lsp6client5tests19client_no_languages
FNDA:7,_RNvNtNtCs4F9smGagOs0_14pathfinder_lsp6client5tests23client_with_descriptors
FNDA:1,_RNvNtNtCs4F9smGagOs0_14pathfinder_lsp6client5testss_27test_lawyer_did_open_no_lsp
FNDA:1,_RNvNtNtCs4F9smGagOs0_14pathfinder_lsp6client5testss_28test_lawyer_did_close_no_lsp
FNDA:1,_RNvNtNtCs4F9smGagOs0_14pathfinder_lsp6client5testss_29test_lawyer_did_change_no_lsp
FNDA:1,_RNvNtNtCs4F9smGagOs0_14pathfinder_lsp6client5testss_29test_touch_no_process_is_noop
FNDA:1,_RNvNtNtCs4F9smGagOs0_14pathfinder_lsp6client5testss_33test_parse_definition_empty_array
FNDA:1,_RNvNtNtCs4F9smGagOs0_14pathfinder_lsp6client5testss_34test_lawyer_goto_definition_no_lsp
FNDA:1,_RNvNtNtCs4F9smGagOs0_14pathfinder_lsp6client5testss_35test_lawyer_pull_diagnostics_no_lsp
FNDA:1,_RNvNtNtCs4F9smGagOs0_14pathfinder_lsp6client5testss_35test_lawyer_range_formatting_no_lsp
FNDA:1,_RNvNtNtCs4F9smGagOs0_14pathfinder_lsp6client5testss_35test_parse_definition_response_null
FNDA:1,_RNvNtNtCs4F9smGagOs0_14pathfinder_lsp6client5testss_35test_parse_diagnostic_response_full
FNDA:1,_RNvNtNtCs4F9smGagOs0_14pathfinder_lsp6client5testss_36test_parse_call_hierarchy_calls_null
FNDA:1,_RNvNtNtCs4F9smGagOs0_14pathfinder_lsp6client5testss_36test_parse_definition_response_array
FNDA:1,_RNvNtNtCs4F9smGagOs0_14pathfinder_lsp6client5testss_36test_warm_start_no_languages_is_noop
FNDA:1,_RNvNtNtCs4F9smGagOs0_14pathfinder_lsp6client5testss_37test_notify_no_process_returns_no_lsp
FNDA:1,_RNvNtNtCs4F9smGagOs0_14pathfinder_lsp6client5testss_37test_process_entry_unavailable_status
FNDA:1,_RNvNtNtCs4F9smGagOs0_14pathfinder_lsp6client5testss_38test_parse_call_hierarchy_prepare_null
FNDA:1,_RNvNtNtCs4F9smGagOs0_14pathfinder_lsp6client5testss_38test_request_no_process_returns_no_lsp
FNDA:1,_RNvNtNtCs4F9smGagOs0_14pathfinder_lsp6client5testss_39test_parse_definition_response_location
FNDA:1,_RNvNtNtCs4F9smGagOs0_14pathfinder_lsp6client5testss_40test_parse_call_hierarchy_calls_incoming
FNDA:1,_RNvNtNtCs4F9smGagOs0_14pathfinder_lsp6client5testss_40test_parse_call_hierarchy_calls_outgoing
FNDA:1,_RNvNtNtCs4F9smGagOs0_14pathfinder_lsp6client5testss_40test_parse_diagnostic_items_numeric_code
FNDA:1,_RNvNtNtCs4F9smGagOs0_14pathfinder_lsp6client5testss_40test_parse_diagnostic_response_unchanged
FNDA:1,_RNvNtNtCs4F9smGagOs0_14pathfinder_lsp6client5testss_41test_lawyer_call_hierarchy_prepare_no_lsp
FNDA:1,_RNvNtNtCs4F9smGagOs0_14pathfinder_lsp6client5testss_41test_parse_call_hierarchy_calls_not_array
FNDA:1,_RNvNtNtCs4F9smGagOs0_14pathfinder_lsp6client5testss_41test_parse_call_hierarchy_prepare_success
FNDA:1,_RNvNtNtCs4F9smGagOs0_14pathfinder_lsp6client5testss_41test_parse_diagnostic_response_flat_array
FNDA:1,_RNvNtNtCs4F9smGagOs0_14pathfinder_lsp6client5testss_42test_lawyer_call_hierarchy_incoming_no_lsp
FNDA:1,_RNvNtNtCs4F9smGagOs0_14pathfinder_lsp6client5testss_42test_lawyer_call_hierarchy_outgoing_no_lsp
FNDA:1,_RNvNtNtCs4F9smGagOs0_14pathfinder_lsp6client5testss_43test_capability_status_no_descriptors_empty
FNDA:1,_RNvNtNtCs4F9smGagOs0_14pathfinder_lsp6client5testss_43test_parse_call_hierarchy_prepare_not_array
FNDA:1,_RNvNtNtCs4F9smGagOs0_14pathfinder_lsp6client5testss_43test_parse_diagnostic_response_empty_object
FNDA:1,_RNvNtNtCs4F9smGagOs0_14pathfinder_lsp6client5testss_44test_lawyer_did_change_watched_files_is_noop
FNDA:1,_RNvNtNtCs4F9smGagOs0_14pathfinder_lsp6client5testss_44test_parse_definition_response_location_link
FNDA:1,_RNvNtNtCs4F9smGagOs0_14pathfinder_lsp6client5testss_44test_parse_diagnostic_items_severity_mapping
FNDA:1,_RNvNtNtCs4F9smGagOs0_14pathfinder_lsp6client5testss_45test_lawyer_pull_workspace_diagnostics_no_lsp
FNDA:1,_RNvNtNtCs4F9smGagOs0_14pathfinder_lsp6client5testss_46test_capability_status_no_processes_lazy_start
FNDA:1,_RNvNtNtCs4F9smGagOs0_14pathfinder_lsp6client5testss_46test_in_flight_guard_increments_and_decrements
FNDA:1,_RNvNtNtCs4F9smGagOs0_14pathfinder_lsp6client5testss_46test_notify_unavailable_process_returns_no_lsp
FNDA:1,_RNvNtNtCs4F9smGagOs0_14pathfinder_lsp6client5testss_46test_parse_call_hierarchy_prepare_kind_mapping
FNDA:1,_RNvNtNtCs4F9smGagOs0_14pathfinder_lsp6client5testss_46test_parse_diagnostic_response_items_not_array
FNDA:1,_RNvNtNtCs4F9smGagOs0_14pathfinder_lsp6client5testss_47test_capabilities_for_no_process_returns_no_lsp
FNDA:1,_RNvNtNtCs4F9smGagOs0_14pathfinder_lsp6client5testss_47test_parse_diagnostic_items_skips_empty_message
FNDA:1,_RNvNtNtCs4F9smGagOs0_14pathfinder_lsp6client5testss_47test_request_unavailable_process_returns_no_lsp
FNDA:1,_RNvNtNtCs4F9smGagOs0_14pathfinder_lsp6client5testss_48test_capabilities_for_unavailable_returns_no_lsp
FNDA:1,_RNvNtNtCs4F9smGagOs0_14pathfinder_lsp6client5testss_48test_capability_status_unavailable_shows_failure
FNDA:1,_RNvNtNtCs4F9smGagOs0_14pathfinder_lsp6client5testss_48test_ensure_process_no_descriptor_returns_no_lsp
FNDA:1,_RNvNtNtCs4F9smGagOs0_14pathfinder_lsp6client5testss_48test_parse_workspace_diagnostic_response_success
FNDA:1,_RNvNtNtCs4F9smGagOs0_14pathfinder_lsp6client5testss_50test_process_entry_running_with_diagnostics_status
FNDA:1,_RNvNtNtCs4F9smGagOs0_14pathfinder_lsp6client5testss_52test_ensure_process_unavailable_cooldown_not_elapsed
FNDA:1,_RNvNtNtCs4F9smGagOs0_14pathfinder_lsp6client5testss_53test_process_entry_running_without_diagnostics_status
FNDA:1,_RNvNtNtCs4F9smGagOs0_14pathfinder_lsp6client5testss_54test_parse_workspace_diagnostic_response_missing_items
FNDA:1,_RNvNtNtCs4F9smGagOs0_14pathfinder_lsp6client5testss_55test_parse_workspace_diagnostic_response_no_uri_skipped
FNDA:1,_RNvNtNtCs4F9smGagOs0_14pathfinder_lsp6client5testss_56test_parse_call_hierarchy_calls_missing_item_key_skipped
FNDA:1,_RNvNtNtCs4F9smGagOs0_14pathfinder_lsp6client5testss_58test_parse_workspace_diagnostic_response_unchanged_skipped
FNDA:1,_RNvNtNtCs4F9smGagOs0_14pathfinder_lsp6client5testss_62test_ensure_process_unavailable_cooldown_elapsed_removes_entry
FNDA:11,_RNCNCNvMs1_NtCs4F9smGagOs0_14pathfinder_lsp6clientNtB9_9LspClient14ensure_process00Bb_
FNDA:0,_RNCNCNvMs1_NtCs4F9smGagOs0_14pathfinder_lsp6clientNtB9_9LspClient14ensure_process0s_0Bb_
FNDA:2,_RNCNCNvMs1_NtCs4F9smGagOs0_14pathfinder_lsp6clientNtB9_9LspClient22call_hierarchy_request00Bb_
FNDA:0,_RNCNCNvMs1_NtCs4F9smGagOs0_14pathfinder_lsp6clientNtB9_9LspClient22call_hierarchy_request0s_0Bb_
FNDA:0,_RNCNCNvMs1_NtCs4F9smGagOs0_14pathfinder_lsp6clientNtB9_9LspClient7request00Bb_
FNDA:1,_RNCNCNvXs3_NtCs4F9smGagOs0_14pathfinder_lsp6clientNtB9_9LspClientNtNtBb_6lawyer6Lawyer10did_change00Bb_
FNDA:0,_RNCNCNvXs3_NtCs4F9smGagOs0_14pathfinder_lsp6clientNtB9_9LspClientNtNtBb_6lawyer6Lawyer10did_change0s_0Bb_
FNDA:1,_RNCNCNvXs3_NtCs4F9smGagOs0_14pathfinder_lsp6clientNtB9_9LspClientNtNtBb_6lawyer6Lawyer15goto_definition00Bb_
FNDA:0,_RNCNCNvXs3_NtCs4F9smGagOs0_14pathfinder_lsp6clientNtB9_9LspClientNtNtBb_6lawyer6Lawyer15goto_definition0s_0Bb_
FNDA:1,_RNCNCNvXs3_NtCs4F9smGagOs0_14pathfinder_lsp6clientNtB9_9LspClientNtNtBb_6lawyer6Lawyer16pull_diagnostics00Bb_
FNDA:0,_RNCNCNvXs3_NtCs4F9smGagOs0_14pathfinder_lsp6clientNtB9_9LspClientNtNtBb_6lawyer6Lawyer16pull_diagnostics0s_0Bb_
FNDA:1,_RNCNCNvXs3_NtCs4F9smGagOs0_14pathfinder_lsp6clientNtB9_9LspClientNtNtBb_6lawyer6Lawyer16range_formatting00Bb_
FNDA:0,_RNCNCNvXs3_NtCs4F9smGagOs0_14pathfinder_lsp6clientNtB9_9LspClientNtNtBb_6lawyer6Lawyer16range_formatting0s_0Bb_
FNDA:1,_RNCNCNvXs3_NtCs4F9smGagOs0_14pathfinder_lsp6clientNtB9_9LspClientNtNtBb_6lawyer6Lawyer22call_hierarchy_prepare00Bb_
FNDA:0,_RNCNCNvXs3_NtCs4F9smGagOs0_14pathfinder_lsp6clientNtB9_9LspClientNtNtBb_6lawyer6Lawyer22call_hierarchy_prepare0s_0Bb_
FNDA:1,_RNCNCNvXs3_NtCs4F9smGagOs0_14pathfinder_lsp6clientNtB9_9LspClientNtNtBb_6lawyer6Lawyer26pull_workspace_diagnostics00Bb_
FNDA:1,_RNCNCNvXs3_NtCs4F9smGagOs0_14pathfinder_lsp6clientNtB9_9LspClientNtNtBb_6lawyer6Lawyer8did_open00Bb_
FNDA:0,_RNCNCNvXs3_NtCs4F9smGagOs0_14pathfinder_lsp6clientNtB9_9LspClientNtNtBb_6lawyer6Lawyer8did_open0s_0Bb_
FNDA:1,_RNCNCNvXs3_NtCs4F9smGagOs0_14pathfinder_lsp6clientNtB9_9LspClientNtNtBb_6lawyer6Lawyer9did_close00Bb_
FNDA:0,_RNCNCNvXs3_NtCs4F9smGagOs0_14pathfinder_lsp6clientNtB9_9LspClientNtNtBb_6lawyer6Lawyer9did_close0s_0Bb_
FNDA:0,_RNCNvMs1_NtCs4F9smGagOs0_14pathfinder_lsp6clientNtB7_9LspClient10warm_start0B9_
FNDA:0,_RNCNvMs1_NtCs4F9smGagOs0_14pathfinder_lsp6clientNtB7_9LspClient10warm_starts_0B9_
FNDA:0,_RNCNvMs1_NtCs4F9smGagOs0_14pathfinder_lsp6clientNtB7_9LspClient13start_process0B9_
FNDA:13,_RNCNvMs1_NtCs4F9smGagOs0_14pathfinder_lsp6clientNtB7_9LspClient14ensure_process0B9_
FNDA:2,_RNCNvMs1_NtCs4F9smGagOs0_14pathfinder_lsp6clientNtB7_9LspClient16capabilities_for0B9_
FNDA:2,_RNCNvMs1_NtCs4F9smGagOs0_14pathfinder_lsp6clientNtB7_9LspClient22call_hierarchy_request0B9_
FNDA:1,_RNCNvMs1_NtCs4F9smGagOs0_14pathfinder_lsp6clientNtB7_9LspClient5touch0B9_
FNDA:2,_RNCNvMs1_NtCs4F9smGagOs0_14pathfinder_lsp6clientNtB7_9LspClient6notify0B9_
FNDA:2,_RNCNvMs1_NtCs4F9smGagOs0_14pathfinder_lsp6clientNtB7_9LspClient7request0B9_
FNDA:2,_RNCNvNtCs4F9smGagOs0_14pathfinder_lsp6client22parse_diagnostic_items0B5_
FNDA:9,_RNCNvNtCs4F9smGagOs0_14pathfinder_lsp6client22parse_diagnostic_itemss0_0B5_
FNDA:9,_RNCNvNtCs4F9smGagOs0_14pathfinder_lsp6client22parse_diagnostic_itemss_0B5_
FNDA:0,_RNCNvNtCs4F9smGagOs0_14pathfinder_lsp6client22reader_supervisor_task0B5_
FNDA:2,_RNCNvNtCs4F9smGagOs0_14pathfinder_lsp6client25parse_definition_response0B5_
FNDA:3,_RNCNvNtCs4F9smGagOs0_14pathfinder_lsp6client25parse_definition_responses0_0B5_
FNDA:3,_RNCNvNtCs4F9smGagOs0_14pathfinder_lsp6client25parse_definition_responses_0B5_
FNDA:2,_RNCNvNtCs4F9smGagOs0_14pathfinder_lsp6client25parse_diagnostic_response0B5_
FNDA:1,_RNCNvNtCs4F9smGagOs0_14pathfinder_lsp6client35parse_call_hierarchy_calls_response0B5_
FNDA:2,_RNCNvNtCs4F9smGagOs0_14pathfinder_lsp6client35parse_call_hierarchy_calls_responses0_0B5_
FNDA:2,_RNCNvNtCs4F9smGagOs0_14pathfinder_lsp6client35parse_call_hierarchy_calls_responses_0B5_
FNDA:3,_RNCNvNtCs4F9smGagOs0_14pathfinder_lsp6client35parse_workspace_diagnostic_response0B5_
FNDA:3,_RNCNvNtCs4F9smGagOs0_14pathfinder_lsp6client35parse_workspace_diagnostic_responses0_0B5_
FNDA:1,_RNCNvNtCs4F9smGagOs0_14pathfinder_lsp6client35parse_workspace_diagnostic_responses1_0B5_
FNDA:1,_RNCNvNtCs4F9smGagOs0_14pathfinder_lsp6client35parse_workspace_diagnostic_responses2_0B5_
FNDA:1,_RNCNvNtCs4F9smGagOs0_14pathfinder_lsp6client35parse_workspace_diagnostic_responses_0B5_
FNDA:1,_RNCNvNtCs4F9smGagOs0_14pathfinder_lsp6client37parse_call_hierarchy_prepare_response0B5_
FNDA:8,_RNCNvNtCs4F9smGagOs0_14pathfinder_lsp6client37parse_call_hierarchy_prepare_responses0_0B5_
FNDA:0,_RNCNvNtCs4F9smGagOs0_14pathfinder_lsp6client37parse_call_hierarchy_prepare_responses1_0B5_
FNDA:8,_RNCNvNtCs4F9smGagOs0_14pathfinder_lsp6client37parse_call_hierarchy_prepare_responses2_0B5_
FNDA:1,_RNCNvNtCs4F9smGagOs0_14pathfinder_lsp6client37parse_call_hierarchy_prepare_responses3_0B5_
FNDA:8,_RNCNvNtCs4F9smGagOs0_14pathfinder_lsp6client37parse_call_hierarchy_prepare_responses_0B5_
FNDA:0,_RNCNCNvNtCs4F9smGagOs0_14pathfinder_lsp6client17idle_timeout_task0s_0B7_
FNDA:0,_RNCNvMs1_NtCs4F9smGagOs0_14pathfinder_lsp6clientNtB7_9LspClient3new0B9_
FNDA:0,_RNCNvNtCs4F9smGagOs0_14pathfinder_lsp6client17idle_timeout_task0B5_
FNDA:0,_RNvMs1_NtCs4F9smGagOs0_14pathfinder_lsp6clientNtB5_9LspClient3new
FNDA:0,_RNvMs1_NtCs4F9smGagOs0_14pathfinder_lsp6clientNtB5_9LspClient8shutdown
FNDA:0,_RNvNtCs4F9smGagOs0_14pathfinder_lsp6client17idle_timeout_task
FNDA:8,_RNCNvNtNtCs4F9smGagOs0_14pathfinder_lsp6client5tests23client_with_descriptors0B7_
FNDA:1,_RNCNvNtNtCs4F9smGagOs0_14pathfinder_lsp6client5testss_27test_lawyer_did_open_no_lsp0B7_
FNDA:1,_RNCNvNtNtCs4F9smGagOs0_14pathfinder_lsp6client5testss_28test_lawyer_did_close_no_lsp0B7_
FNDA:1,_RNCNvNtNtCs4F9smGagOs0_14pathfinder_lsp6client5testss_29test_lawyer_did_change_no_lsp0B7_
FNDA:1,_RNCNvNtNtCs4F9smGagOs0_14pathfinder_lsp6client5testss_29test_touch_no_process_is_noop0B7_
FNDA:1,_RNCNvNtNtCs4F9smGagOs0_14pathfinder_lsp6client5testss_34test_lawyer_goto_definition_no_lsp0B7_
FNDA:1,_RNCNvNtNtCs4F9smGagOs0_14pathfinder_lsp6client5testss_35test_lawyer_pull_diagnostics_no_lsp0B7_
FNDA:1,_RNCNvNtNtCs4F9smGagOs0_14pathfinder_lsp6client5testss_35test_lawyer_range_formatting_no_lsp0B7_
FNDA:1,_RNCNvNtNtCs4F9smGagOs0_14pathfinder_lsp6client5testss_36test_warm_start_no_languages_is_noop0B7_
FNDA:1,_RNCNvNtNtCs4F9smGagOs0_14pathfinder_lsp6client5testss_37test_notify_no_process_returns_no_lsp0B7_
FNDA:1,_RNCNvNtNtCs4F9smGagOs0_14pathfinder_lsp6client5testss_38test_request_no_process_returns_no_lsp0B7_
FNDA:1,_RNCNvNtNtCs4F9smGagOs0_14pathfinder_lsp6client5testss_41test_lawyer_call_hierarchy_prepare_no_lsp0B7_
FNDA:1,_RNCNvNtNtCs4F9smGagOs0_14pathfinder_lsp6client5testss_42test_lawyer_call_hierarchy_incoming_no_lsp0B7_
FNDA:1,_RNCNvNtNtCs4F9smGagOs0_14pathfinder_lsp6client5testss_42test_lawyer_call_hierarchy_outgoing_no_lsp0B7_
FNDA:1,_RNCNvNtNtCs4F9smGagOs0_14pathfinder_lsp6client5testss_43test_capability_status_no_descriptors_empty0B7_
FNDA:1,_RNCNvNtNtCs4F9smGagOs0_14pathfinder_lsp6client5testss_44test_lawyer_did_change_watched_files_is_noop0B7_
FNDA:1,_RNCNvNtNtCs4F9smGagOs0_14pathfinder_lsp6client5testss_45test_lawyer_pull_workspace_diagnostics_no_lsp0B7_
FNDA:1,_RNCNvNtNtCs4F9smGagOs0_14pathfinder_lsp6client5testss_46test_capability_status_no_processes_lazy_start0B7_
FNDA:1,_RNCNvNtNtCs4F9smGagOs0_14pathfinder_lsp6client5testss_46test_notify_unavailable_process_returns_no_lsp0B7_
FNDA:1,_RNCNvNtNtCs4F9smGagOs0_14pathfinder_lsp6client5testss_47test_capabilities_for_no_process_returns_no_lsp0B7_
FNDA:1,_RNCNvNtNtCs4F9smGagOs0_14pathfinder_lsp6client5testss_47test_request_unavailable_process_returns_no_lsp0B7_
FNDA:1,_RNCNvNtNtCs4F9smGagOs0_14pathfinder_lsp6client5testss_48test_capabilities_for_unavailable_returns_no_lsp0B7_
FNDA:1,_RNCNvNtNtCs4F9smGagOs0_14pathfinder_lsp6client5testss_48test_capability_status_unavailable_shows_failure0B7_
FNDA:1,_RNCNvNtNtCs4F9smGagOs0_14pathfinder_lsp6client5testss_48test_ensure_process_no_descriptor_returns_no_lsp0B7_
FNDA:1,_RNCNvNtNtCs4F9smGagOs0_14pathfinder_lsp6client5testss_52test_ensure_process_unavailable_cooldown_not_elapsed0B7_
FNDA:1,_RNCNvNtNtCs4F9smGagOs0_14pathfinder_lsp6client5testss_62test_ensure_process_unavailable_cooldown_elapsed_removes_entry0B7_
FNDA:0,_RNCNCNvNtCscBgZELoTFF0_14pathfinder_lsp6client17idle_timeout_task0s_0Cs7Fw43FPylcK_14pathfinder_mcp
FNDA:0,_RNCNvMs1_NtCscBgZELoTFF0_14pathfinder_lsp6clientNtB7_9LspClient3new0Cs7Fw43FPylcK_14pathfinder_mcp
FNDA:0,_RNCNvNtCscBgZELoTFF0_14pathfinder_lsp6client17idle_timeout_task0Cs7Fw43FPylcK_14pathfinder_mcp
FNDA:0,_RNCNCNvNtCscBgZELoTFF0_14pathfinder_lsp6client17idle_timeout_task0s_0CsaBz7PZGcJGm_14pathfinder_mcp
FNDA:0,_RNCNvMs1_NtCscBgZELoTFF0_14pathfinder_lsp6clientNtB7_9LspClient3new0CsaBz7PZGcJGm_14pathfinder_mcp
FNDA:0,_RNCNvNtCscBgZELoTFF0_14pathfinder_lsp6client17idle_timeout_task0CsaBz7PZGcJGm_14pathfinder_mcp
FNF:170
FNH:147
DA:67,2
DA:68,2
DA:69,0
DA:70,0
DA:71,0
DA:72,0
DA:73,0
DA:74,0
DA:76,0
DA:77,0
DA:78,0
DA:79,0
DA:80,0
DA:83,2
DA:84,2
DA:85,2
DA:86,2
DA:88,2
DA:97,2
DA:98,2
DA:99,2
DA:100,2
DA:104,2
DA:105,2
DA:106,2
DA:137,0
DA:138,0
DA:139,0
DA:140,0
DA:141,0
DA:143,0
DA:144,0
DA:145,0
DA:149,0
DA:150,0
DA:152,0
DA:153,0
DA:154,0
DA:155,0
DA:156,0
DA:157,0
DA:158,0
DA:161,0
DA:162,0
DA:163,0
DA:164,0
DA:166,0
DA:167,0
DA:177,1
DA:178,1
DA:179,1
DA:180,1
DA:181,1
DA:182,1
DA:184,1
DA:185,1
DA:186,1
DA:187,0
DA:189,0
DA:194,0
DA:195,0
DA:196,0
DA:197,0
DA:198,0
DA:200,0
DA:202,0
DA:203,0
DA:210,0
DA:212,1
DA:223,0
DA:224,0
DA:225,0
DA:226,0
DA:233,13
DA:236,13
DA:237,13
DA:238,2
DA:239,0
DA:240,2
DA:242,2
DA:243,2
DA:245,1
DA:246,1
DA:251,1
DA:252,1
DA:253,1
DA:255,1
DA:259,11
DA:263,11
DA:264,11
DA:265,11
DA:266,11
DA:267,11
DA:268,11
DA:270,11
DA:274,11
DA:275,11
DA:276,0
DA:277,0
DA:278,0
DA:280,0
DA:281,0
DA:283,0
DA:284,0
DA:289,0
DA:290,0
DA:291,0
DA:293,0
DA:297,11
DA:301,11
DA:302,11
DA:303,11
DA:304,11
DA:305,11
DA:306,0
DA:309,0
DA:310,13
DA:313,0
DA:314,0
DA:316,0
DA:317,0
DA:321,0
DA:322,0
DA:323,0
DA:324,0
DA:325,0
DA:327,0
DA:328,0
DA:331,0
DA:332,0
DA:333,0
DA:336,0
DA:339,0
DA:340,0
DA:342,0
DA:348,0
DA:349,0
DA:350,0
DA:351,0
DA:352,0
DA:353,0
DA:354,0
DA:355,0
DA:356,0
DA:358,0
DA:359,0
DA:360,0
DA:361,0
DA:368,0
DA:369,0
DA:370,0
DA:371,0
DA:372,0
DA:376,0
DA:377,0
DA:380,0
DA:387,0
DA:388,0
DA:389,0
DA:390,0
DA:394,0
DA:395,0
DA:399,0
DA:401,0
DA:402,0
DA:403,0
DA:404,0
DA:405,0
DA:406,0
DA:407,0
DA:410,0
DA:411,0
DA:414,1
DA:415,1
DA:416,1
DA:417,0
DA:418,1
DA:419,1
DA:425,2
DA:426,2
DA:427,2
DA:428,2
DA:429,2
DA:430,2
DA:431,2
DA:432,2
DA:433,2
DA:436,0
DA:437,2
DA:438,2
DA:439,0
DA:440,2
DA:443,0
DA:444,0
DA:448,0
DA:449,0
DA:450,0
DA:451,0
DA:456,0
DA:457,0
DA:458,0
DA:459,0
DA:461,0
DA:465,0
DA:466,0
DA:467,0
DA:468,0
DA:469,0
DA:470,0
DA:471,0
DA:472,0
DA:473,0
DA:474,0
DA:475,2
DA:481,2
DA:482,2
DA:483,2
DA:484,2
DA:485,2
DA:486,2
DA:487,2
DA:488,2
DA:489,2
DA:490,0
DA:491,2
DA:493,2
DA:498,2
DA:499,2
DA:500,2
DA:501,0
DA:502,2
DA:504,2
DA:513,2
DA:514,2
DA:515,2
DA:516,2
DA:517,2
DA:518,2
DA:519,2
DA:520,2
DA:521,2
DA:522,2
DA:523,2
DA:524,2
DA:525,2
DA:526,2
DA:527,2
DA:528,2
DA:529,2
DA:531,0
DA:532,0
DA:533,0
DA:535,0
DA:537,0
DA:538,0
DA:539,0
DA:541,0
DA:542,0
DA:543,0
DA:544,0
DA:548,0
DA:550,0
DA:551,0
DA:558,0
DA:559,2
DA:567,1
DA:569,1
DA:576,1
DA:581,1
DA:589,0
DA:626,1
DA:634,1
DA:637,1
DA:649,0
DA:685,1
DA:691,1
DA:701,1
DA:707,1
DA:717,1
DA:724,1
DA:726,1
DA:731,0
DA:751,1
DA:759,1
DA:761,1
DA:766,0
DA:786,1
DA:788,1
DA:790,1
DA:795,0
DA:812,1
DA:818,1
DA:821,1
DA:834,0
DA:866,1
DA:872,1
DA:875,1
DA:915,1
DA:924,1
DA:926,1
DA:939,0
DA:991,1
DA:993,3
DA:1007,3
DA:1014,5
DA:1015,5
DA:1016,5
DA:1017,5
DA:1019,5
DA:1020,1
DA:1021,4
DA:1023,4
DA:1024,1
DA:1026,1
DA:1027,1
DA:1028,1
DA:1032,2
DA:1033,1
DA:1034,1
DA:1035,1
DA:1039,1
DA:1040,5
DA:1045,4
DA:1046,4
DA:1047,4
DA:1048,4
DA:1049,4
DA:1051,4
DA:1052,4
DA:1053,4
DA:1054,4
DA:1055,1
DA:1056,1
DA:1058,3
DA:1059,3
DA:1060,1
DA:1061,2
DA:1063,2
DA:1064,1
DA:1068,1
DA:1069,1
DA:1070,1
DA:1071,1
DA:1072,1
DA:1073,0
DA:1076,0
DA:1079,0
DA:1082,1
DA:1083,1
DA:1084,1
DA:1087,3
DA:1088,4
DA:1091,6
DA:1092,6
DA:1093,6
DA:1095,10
DA:1096,10
DA:1097,6
DA:1098,2
DA:1099,1
DA:1100,1
DA:1103,10
DA:1104,10
DA:1105,1
DA:1106,9
DA:1108,9
DA:1109,1
DA:1110,1
DA:1111,0
DA:1112,2
DA:1114,9
DA:1115,9
DA:1116,9
DA:1117,9
DA:1118,9
DA:1119,9
DA:1121,9
DA:1122,9
DA:1123,9
DA:1124,9
DA:1125,9
DA:1126,9
DA:1127,9
DA:1128,9
DA:1131,6
DA:1132,6
DA:1137,5
DA:1138,5
DA:1139,5
DA:1140,5
DA:1141,1
DA:1142,4
DA:1145,4
DA:1146,2
DA:1147,2
DA:1148,2
DA:1149,2
DA:1150,2
DA:1152,2
DA:1155,4
DA:1156,1
DA:1157,3
DA:1161,3
DA:1163,1
DA:1164,1
DA:1165,1
DA:1166,1
DA:1167,1
DA:1168,1
DA:1169,1
DA:1170,1
DA:1171,1
DA:1174,2
DA:1175,2
DA:1176,2
DA:1177,2
DA:1178,2
DA:1179,2
DA:1180,2
DA:1183,3
DA:1184,0
DA:1185,0
DA:1186,0
DA:1187,3
DA:1190,3
DA:1191,3
DA:1192,3
DA:1193,3
DA:1194,3
DA:1196,3
DA:1197,3
DA:1198,3
DA:1199,3
DA:1200,3
DA:1201,3
DA:1202,5
DA:1205,10
DA:1206,10
DA:1207,10
DA:1208,10
DA:1209,10
DA:1210,1
DA:1211,9
DA:1213,9
DA:1214,9
DA:1215,9
DA:1217,8
DA:1218,8
DA:1219,8
DA:1220,8
DA:1221,8
DA:1222,8
DA:1223,8
DA:1224,8
DA:1225,8
DA:1226,8
DA:1227,8
DA:1228,8
DA:1230,8
DA:1231,8
DA:1232,8
DA:1233,8
DA:1234,8
DA:1235,8
DA:1236,8
DA:1237,8
DA:1238,8
DA:1239,8
DA:1240,8
DA:1241,8
DA:1242,8
DA:1243,8
DA:1245,8
DA:1246,8
DA:1247,1
DA:1248,1
DA:1249,1
DA:1250,4
DA:1251,1
DA:1253,8
DA:1255,8
DA:1256,8
DA:1257,8
DA:1258,8
DA:1259,8
DA:1260,8
DA:1261,8
DA:1262,8
DA:1263,8
DA:1264,8
DA:1265,8
DA:1269,8
DA:1270,10
DA:1273,5
DA:1274,5
DA:1275,5
DA:1276,5
DA:1277,5
DA:1278,5
DA:1279,5
DA:1280,1
DA:1281,4
DA:1283,4
DA:1284,4
DA:1285,4
DA:1287,3
DA:1288,3
DA:1289,3
DA:1290,1
DA:1292,2
DA:1293,2
DA:1294,2
DA:1295,0
DA:1296,2
DA:1297,0
DA:1298,2
DA:1299,2
DA:1301,2
DA:1302,2
DA:1303,2
DA:1304,2
DA:1305,2
DA:1306,2
DA:1307,2
DA:1308,2
DA:1309,2
DA:1310,2
DA:1312,0
DA:1314,2
DA:1317,3
DA:1318,5
DA:1325,0
DA:1326,0
DA:1327,0
DA:1328,0
DA:1329,0
DA:1330,0
DA:1332,0
DA:1337,0
DA:1338,0
DA:1347,0
DA:1348,0
DA:1351,0
DA:1352,0
DA:1353,0
DA:1354,0
DA:1355,0
DA:1357,0
DA:1358,0
DA:1360,0
DA:1361,0
DA:1362,0
DA:1363,0
DA:1364,0
DA:1365,0
DA:1366,0
DA:1367,0
DA:1369,0
DA:1370,0
DA:1372,0
DA:1374,0
DA:1375,0
DA:1376,0
DA:1377,0
DA:1378,0
DA:1380,0
DA:1381,0
DA:1383,0
DA:1385,0
DA:1388,0
DA:1390,0
DA:1391,0
DA:1393,0
DA:1394,0
DA:1395,0
DA:1401,0
DA:1402,0
DA:1403,0
DA:1408,0
DA:1417,1
DA:1418,1
DA:1419,1
DA:1420,1
DA:1423,1
DA:1424,1
DA:1425,1
DA:1426,1
DA:1427,1
DA:1428,1
DA:1431,1
DA:1432,1
DA:1433,1
DA:1434,1
DA:1435,1
DA:1436,1
DA:1439,1
DA:1440,1
DA:1441,1
DA:1442,1
DA:1443,1
DA:1444,1
DA:1447,1
DA:1448,1
DA:1449,1
DA:1450,1
DA:1451,1
DA:1454,1
DA:1455,1
DA:1456,1
DA:1457,1
DA:1458,1
DA:1459,1
DA:1461,1
DA:1462,1
DA:1463,1
DA:1466,1
DA:1467,1
DA:1468,1
DA:1469,1
DA:1470,1
DA:1473,1
DA:1474,1
DA:1475,1
DA:1477,1
DA:1478,1
DA:1483,1
DA:1484,1
DA:1485,1
DA:1486,1
DA:1488,1
DA:1489,1
DA:1490,1
DA:1491,1
DA:1492,1
DA:1494,1
DA:1498,1
DA:1499,1
DA:1500,1
DA:1501,1
DA:1502,1
DA:1503,1
DA:1504,1
DA:1505,1
DA:1508,1
DA:1509,1
DA:1510,1
DA:1511,1
DA:1512,1
DA:1515,1
DA:1517,1
DA:1519,1
DA:1520,1
DA:1521,1
DA:1522,1
DA:1523,1
DA:1527,1
DA:1528,1
DA:1529,1
DA:1530,1
DA:1533,1
DA:1534,1
DA:1535,1
DA:1536,1
DA:1537,1
DA:1540,1
DA:1541,1
DA:1542,1
DA:1543,1
DA:1544,1
DA:1545,1
DA:1546,0
DA:1548,1
DA:1553,1
DA:1554,1
DA:1555,1
DA:1556,1
DA:1557,1
DA:1558,1
DA:1560,1
DA:1561,1
DA:1562,1
DA:1563,1
DA:1564,1
DA:1565,1
DA:1566,1
DA:1569,1
DA:1570,1
DA:1571,1
DA:1572,1
DA:1574,1
DA:1575,1
DA:1576,1
DA:1577,1
DA:1580,1
DA:1581,1
DA:1582,1
DA:1584,1
DA:1585,1
DA:1586,1
DA:1591,1
DA:1592,1
DA:1593,1
DA:1594,1
DA:1595,1
DA:1596,1
DA:1598,1
DA:1599,1
DA:1600,1
DA:1601,1
DA:1602,1
DA:1603,1
DA:1605,1
DA:1606,1
DA:1607,1
DA:1612,1
DA:1613,1
DA:1614,1
DA:1616,1
DA:1617,1
DA:1620,1
DA:1621,1
DA:1622,1
DA:1623,1
DA:1624,1
DA:1627,1
DA:1628,1
DA:1629,1
DA:1630,1
DA:1631,1
DA:1632,1
DA:1635,1
DA:1636,1
DA:1637,1
DA:1640,1
DA:1641,1
DA:1642,1
DA:1643,1
DA:1644,1
DA:1647,1
DA:1648,1
DA:1649,1
DA:1654,1
DA:1655,1
DA:1656,1
DA:1657,1
DA:1660,1
DA:1661,1
DA:1662,1
DA:1663,1
DA:1664,1
DA:1665,1
DA:1667,1
DA:1668,1
DA:1669,1
DA:1670,1
DA:1671,1
DA:1672,1
DA:1673,1
DA:1674,1
DA:1675,1
DA:1679,1
DA:1680,1
DA:1681,1
DA:1682,1
DA:1683,1
DA:1684,1
DA:1685,1
DA:1686,1
DA:1688,1
DA:1689,1
DA:1692,1
DA:1693,1
DA:1694,1
DA:1695,1
DA:1696,1
DA:1698,5
DA:1699,1
DA:1700,1
DA:1701,1
DA:1702,1
DA:1703,1
DA:1704,1
DA:1705,5
DA:1706,5
DA:1707,5
DA:1708,5
DA:1709,5
DA:1710,5
DA:1711,5
DA:1714,5
DA:1715,5
DA:1716,5
DA:1720,1
DA:1723,1
DA:1724,1
DA:1725,1
DA:1726,1
DA:1727,1
DA:1732,1
DA:1733,1
DA:1734,1
DA:1735,1
DA:1736,1
DA:1737,1
DA:1739,1
DA:1740,1
DA:1743,1
DA:1744,1
DA:1745,1
DA:1746,1
DA:1747,1
DA:1748,1
DA:1750,1
DA:1751,1
DA:1752,1
DA:1753,1
DA:1754,1
DA:1755,1
DA:1756,1
DA:1757,1
DA:1758,1
DA:1761,1
DA:1762,1
DA:1766,1
DA:1767,1
DA:1769,1
DA:1770,1
DA:1771,1
DA:1773,1
DA:1774,1
DA:1777,1
DA:1778,1
DA:1779,1
DA:1780,1
DA:1781,1
DA:1782,1
DA:1784,1
DA:1785,1
DA:1786,1
DA:1787,1
DA:1788,1
DA:1789,1
DA:1790,1
DA:1791,1
DA:1792,1
DA:1795,1
DA:1796,1
DA:1800,1
DA:1801,1
DA:1803,1
DA:1804,1
DA:1805,1
DA:1807,1
DA:1808,1
DA:1811,1
DA:1812,1
DA:1813,1
DA:1814,1
DA:1815,1
DA:1816,1
DA:1818,1
DA:1819,1
DA:1822,1
DA:1823,1
DA:1824,1
DA:1825,1
DA:1826,1
DA:1827,1
DA:1828,1
DA:1831,1
DA:1832,1
DA:1833,1
DA:1834,1
DA:1835,1
DA:1837,1
DA:1838,1
DA:1839,1
DA:1842,1
DA:1847,1
DA:1848,1
DA:1849,1
DA:1850,1
DA:1851,1
DA:1852,1
DA:1853,1
DA:1854,1
DA:1855,1
DA:1858,1
DA:1860,1
DA:1861,1
DA:1862,1
DA:1863,1
DA:1864,1
DA:1865,1
DA:1866,1
DA:1869,1
DA:1870,1
DA:1873,1
DA:1874,1
DA:1875,1
DA:1876,1
DA:1877,1
DA:1878,1
DA:1879,1
DA:1880,1
DA:1881,1
DA:1882,1
DA:1894,18
DA:1895,18
DA:1896,18
DA:1897,18
DA:1898,18
DA:1899,18
DA:1900,18
DA:1901,18
DA:1902,18
DA:1903,18
DA:1907,7
DA:1908,7
DA:1909,7
DA:1910,7
DA:1911,7
DA:1912,7
DA:1913,7
DA:1914,8
DA:1915,8
DA:1916,8
DA:1917,8
DA:1918,8
DA:1919,8
DA:1920,7
DA:1922,7
DA:1923,7
DA:1924,7
DA:1925,7
DA:1926,7
DA:1927,7
DA:1928,7
DA:1929,7
DA:1930,7
DA:1935,1
DA:1936,1
DA:1937,1
DA:1938,1
DA:1939,1
DA:1942,1
DA:1943,1
DA:1944,1
DA:1945,1
DA:1946,1
DA:1947,1
DA:1948,1
DA:1949,1
DA:1950,1
DA:1951,1
DA:1952,1
DA:1953,1
DA:1954,1
DA:1955,1
DA:1958,1
DA:1961,1
DA:1962,1
DA:1963,1
DA:1964,1
DA:1965,1
DA:1966,1
DA:1967,1
DA:1971,1
DA:1972,1
DA:1973,1
DA:1978,1
DA:1979,1
DA:1980,1
DA:1981,1
DA:1982,1
DA:1983,1
DA:1988,1
DA:1989,1
DA:1990,1
DA:1991,1
DA:1992,1
DA:1993,1
DA:1994,1
DA:1995,1
DA:1996,1
DA:1997,1
DA:1998,1
DA:1999,1
DA:2002,1
DA:2003,1
DA:2004,1
DA:2005,1
DA:2006,1
DA:2007,1
DA:2008,1
DA:2009,1
DA:2010,1
DA:2011,1
DA:2012,1
DA:2013,1
DA:2014,1
DA:2015,1
DA:2016,1
DA:2017,1
DA:2018,1
DA:2019,1
DA:2022,1
DA:2023,1
DA:2024,1
DA:2025,1
DA:2026,1
DA:2027,1
DA:2028,1
DA:2031,1
DA:2032,1
DA:2033,1
DA:2034,1
DA:2035,1
DA:2036,1
DA:2037,1
DA:2038,1
DA:2039,1
DA:2040,1
DA:2041,1
DA:2042,1
DA:2043,1
DA:2048,1
DA:2049,1
DA:2050,1
DA:2051,1
DA:2052,1
DA:2055,1
DA:2056,1
DA:2057,1
DA:2058,1
DA:2059,1
DA:2060,1
DA:2061,1
DA:2062,1
DA:2063,1
DA:2064,1
DA:2065,1
DA:2070,1
DA:2071,1
DA:2072,1
DA:2073,1
DA:2075,1
DA:2076,1
DA:2077,1
DA:2080,1
DA:2081,1
DA:2082,1
DA:2083,1
DA:2084,1
DA:2085,1
DA:2086,1
DA:2087,1
DA:2088,1
DA:2089,1
DA:2090,1
DA:2091,1
DA:2094,1
DA:2095,1
DA:2096,1
DA:2097,1
DA:2098,1
DA:2106,1
DA:2107,1
DA:2108,1
DA:2109,1
DA:2110,1
DA:2111,1
DA:2112,1
DA:2115,1
DA:2116,1
DA:2117,1
DA:2118,1
DA:2119,1
DA:2120,1
DA:2121,1
DA:2124,1
DA:2125,1
DA:2126,1
DA:2127,1
DA:2128,1
DA:2129,1
DA:2130,1
DA:2131,1
DA:2132,1
DA:2133,1
DA:2134,1
DA:2135,1
DA:2136,1
DA:2137,1
DA:2139,1
DA:2140,1
DA:2143,1
DA:2144,1
DA:2145,1
DA:2146,1
DA:2147,1
DA:2148,1
DA:2149,1
DA:2150,1
DA:2151,1
DA:2152,1
DA:2153,1
DA:2154,1
DA:2155,1
DA:2156,1
DA:2157,1
DA:2158,1
DA:2161,1
DA:2162,1
DA:2163,1
DA:2164,1
DA:2165,1
DA:2166,1
DA:2167,1
DA:2168,1
DA:2169,1
DA:2170,1
DA:2171,1
DA:2174,1
DA:2175,1
DA:2176,1
DA:2177,1
DA:2178,1
DA:2179,1
DA:2180,1
DA:2181,1
DA:2182,1
DA:2183,1
DA:2184,1
DA:2185,1
DA:2188,1
DA:2189,1
DA:2190,1
DA:2191,1
DA:2192,1
DA:2193,1
DA:2194,1
DA:2197,1
DA:2198,1
DA:2199,1
DA:2200,1
DA:2201,1
DA:2202,1
DA:2203,1
DA:2206,1
DA:2207,1
DA:2208,1
DA:2209,1
DA:2210,1
DA:2211,1
DA:2212,1
DA:2215,1
DA:2216,1
DA:2217,1
DA:2218,1
DA:2219,1
DA:2220,1
DA:2221,1
DA:2222,1
DA:2223,1
DA:2224,1
DA:2225,1
DA:2226,1
DA:2227,1
DA:2230,1
DA:2232,1
DA:2233,1
DA:2234,1
DA:2235,1
DA:2240,1
DA:2242,1
DA:2243,1
DA:2244,1
DA:2249,1
DA:2250,1
DA:2251,1
DA:2254,1
DA:2255,1
DA:2258,1
DA:2259,1
DA:2261,1
DA:2263,1
DA:2264,1
DA:2269,1
DA:2270,1
DA:2271,1
DA:2273,1
DA:2274,1
BRF:0
BRH:0
LF:1287
LH:1049
end_of_record
SF:/home/irahardianto/works/projects/pathfinder/crates/pathfinder-lsp/src/client/process.rs
FN:301,_RNCNCNvNtNtCscBgZELoTFF0_14pathfinder_lsp6client7process16path_to_file_uri00B9_
FN:308,_RNCNCNvNtNtCscBgZELoTFF0_14pathfinder_lsp6client7process16path_to_file_uri0s_0B9_
FN:118,_RNCNCNvNtNtCscBgZELoTFF0_14pathfinder_lsp6client7process20spawn_and_initialize00B9_
FN:211,_RNCNCNvNtNtCscBgZELoTFF0_14pathfinder_lsp6client7process24build_initialize_request00B9_
FN:235,_RNCNCNvNtNtCscBgZELoTFF0_14pathfinder_lsp6client7process4send00B9_
FN:241,_RNCNCNvNtNtCscBgZELoTFF0_14pathfinder_lsp6client7process4send0s_0B9_
FN:175,_RNCNvNtNtCscBgZELoTFF0_14pathfinder_lsp6client7process15spawn_lsp_child0B7_
FN:200,_RNCNvNtNtCscBgZELoTFF0_14pathfinder_lsp6client7process15spawn_lsp_childs0_0B7_
FN:195,_RNCNvNtNtCscBgZELoTFF0_14pathfinder_lsp6client7process15spawn_lsp_childs_0B7_
FN:300,_RNCNvNtNtCscBgZELoTFF0_14pathfinder_lsp6client7process16path_to_file_uri0B7_
FN:254,_RNCNvNtNtCscBgZELoTFF0_14pathfinder_lsp6client7process17start_reader_task0B7_
FN:99,_RNCNvNtNtCscBgZELoTFF0_14pathfinder_lsp6client7process20spawn_and_initialize0B7_
FN:207,_RNCNvNtNtCscBgZELoTFF0_14pathfinder_lsp6client7process24build_initialize_request0B7_
FN:328,_RNCNvNtNtCscBgZELoTFF0_14pathfinder_lsp6client7process29apply_linux_process_hardening0B7_
FN:234,_RNCNvNtNtCscBgZELoTFF0_14pathfinder_lsp6client7process4send0B7_
FN:156,_RNvNtNtCscBgZELoTFF0_14pathfinder_lsp6client7process15spawn_lsp_child
FN:300,_RNvNtNtCscBgZELoTFF0_14pathfinder_lsp6client7process16path_to_file_uri
FN:250,_RNvNtNtCscBgZELoTFF0_14pathfinder_lsp6client7process17start_reader_task
FN:92,_RNvNtNtCscBgZELoTFF0_14pathfinder_lsp6client7process20spawn_and_initialize
FN:207,_RNvNtNtCscBgZELoTFF0_14pathfinder_lsp6client7process24build_initialize_request
FN:326,_RNvNtNtCscBgZELoTFF0_14pathfinder_lsp6client7process29apply_linux_process_hardening
FN:234,_RNvNtNtCscBgZELoTFF0_14pathfinder_lsp6client7process4send
FN:278,_RNvNtNtCscBgZELoTFF0_14pathfinder_lsp6client7process8shutdown
FN:361,_RNvNtNtNtCs4F9smGagOs0_14pathfinder_lsp6client7process13process_testss_25test_path_to_file_uri_dir
FN:347,_RNvNtNtNtCs4F9smGagOs0_14pathfinder_lsp6client7process13process_testss_26test_path_to_file_uri_file
FN:420,_RNvNtNtNtCs4F9smGagOs0_14pathfinder_lsp6client7process13process_testss_33test_path_to_file_uri_nonexistent
FN:369,_RNvNtNtNtCs4F9smGagOs0_14pathfinder_lsp6client7process13process_testss_39test_build_initialize_request_structure
FN:407,_RNvNtNtNtCs4F9smGagOs0_14pathfinder_lsp6client7process13process_testss_42test_build_initialize_request_capabilities
FN:393,_RNvNtNtNtCs4F9smGagOs0_14pathfinder_lsp6client7process13process_testss_44test_build_initialize_request_workspace_name
FN:361,_RNCNvNtNtNtCs4F9smGagOs0_14pathfinder_lsp6client7process13process_testss_25test_path_to_file_uri_dir0B9_
FN:347,_RNCNvNtNtNtCs4F9smGagOs0_14pathfinder_lsp6client7process13process_testss_26test_path_to_file_uri_file0B9_
FN:420,_RNCNvNtNtNtCs4F9smGagOs0_14pathfinder_lsp6client7process13process_testss_33test_path_to_file_uri_nonexistent0B9_
FN:369,_RNCNvNtNtNtCs4F9smGagOs0_14pathfinder_lsp6client7process13process_testss_39test_build_initialize_request_structure0B9_
FN:407,_RNCNvNtNtNtCs4F9smGagOs0_14pathfinder_lsp6client7process13process_testss_42test_build_initialize_request_capabilities0B9_
FN:393,_RNCNvNtNtNtCs4F9smGagOs0_14pathfinder_lsp6client7process13process_testss_44test_build_initialize_request_workspace_name0B9_
FN:156,_RNvNtNtCs4F9smGagOs0_14pathfinder_lsp6client7process15spawn_lsp_child
FN:300,_RNvNtNtCs4F9smGagOs0_14pathfinder_lsp6client7process16path_to_file_uri
FN:250,_RNvNtNtCs4F9smGagOs0_14pathfinder_lsp6client7process17start_reader_task
FN:92,_RNvNtNtCs4F9smGagOs0_14pathfinder_lsp6client7process20spawn_and_initialize
FN:207,_RNvNtNtCs4F9smGagOs0_14pathfinder_lsp6client7process24build_initialize_request
FN:326,_RNvNtNtCs4F9smGagOs0_14pathfinder_lsp6client7process29apply_linux_process_hardening
FN:234,_RNvNtNtCs4F9smGagOs0_14pathfinder_lsp6client7process4send
FN:301,_RNCNCNvNtNtCs4F9smGagOs0_14pathfinder_lsp6client7process16path_to_file_uri00B9_
FN:308,_RNCNCNvNtNtCs4F9smGagOs0_14pathfinder_lsp6client7process16path_to_file_uri0s_0B9_
FN:118,_RNCNCNvNtNtCs4F9smGagOs0_14pathfinder_lsp6client7process20spawn_and_initialize00B9_
FN:211,_RNCNCNvNtNtCs4F9smGagOs0_14pathfinder_lsp6client7process24build_initialize_request00B9_
FN:235,_RNCNCNvNtNtCs4F9smGagOs0_14pathfinder_lsp6client7process4send00B9_
FN:241,_RNCNCNvNtNtCs4F9smGagOs0_14pathfinder_lsp6client7process4send0s_0B9_
FN:175,_RNCNvNtNtCs4F9smGagOs0_14pathfinder_lsp6client7process15spawn_lsp_child0B7_
FN:200,_RNCNvNtNtCs4F9smGagOs0_14pathfinder_lsp6client7process15spawn_lsp_childs0_0B7_
FN:195,_RNCNvNtNtCs4F9smGagOs0_14pathfinder_lsp6client7process15spawn_lsp_childs_0B7_
FN:300,_RNCNvNtNtCs4F9smGagOs0_14pathfinder_lsp6client7process16path_to_file_uri0B7_
FN:254,_RNCNvNtNtCs4F9smGagOs0_14pathfinder_lsp6client7process17start_reader_task0B7_
FN:99,_RNCNvNtNtCs4F9smGagOs0_14pathfinder_lsp6client7process20spawn_and_initialize0B7_
FN:207,_RNCNvNtNtCs4F9smGagOs0_14pathfinder_lsp6client7process24build_initialize_request0B7_
FN:328,_RNCNvNtNtCs4F9smGagOs0_14pathfinder_lsp6client7process29apply_linux_process_hardening0B7_
FN:234,_RNCNvNtNtCs4F9smGagOs0_14pathfinder_lsp6client7process4send0B7_
FN:278,_RNCNvNtNtCs4F9smGagOs0_14pathfinder_lsp6client7process8shutdown0B7_
FN:278,_RNvNtNtCs4F9smGagOs0_14pathfinder_lsp6client7process8shutdown
FN:278,_RNCNvNtNtCscBgZELoTFF0_14pathfinder_lsp6client7process8shutdown0Cs7Fw43FPylcK_14pathfinder_mcp
FN:278,_RNCNvNtNtCscBgZELoTFF0_14pathfinder_lsp6client7process8shutdown0CsaBz7PZGcJGm_14pathfinder_mcp
FNDA:0,_RNCNCNvNtNtCscBgZELoTFF0_14pathfinder_lsp6client7process16path_to_file_uri00B9_
FNDA:0,_RNCNCNvNtNtCscBgZELoTFF0_14pathfinder_lsp6client7process16path_to_file_uri0s_0B9_
FNDA:0,_RNCNCNvNtNtCscBgZELoTFF0_14pathfinder_lsp6client7process20spawn_and_initialize00B9_
FNDA:0,_RNCNCNvNtNtCscBgZELoTFF0_14pathfinder_lsp6client7process24build_initialize_request00B9_
FNDA:0,_RNCNCNvNtNtCscBgZELoTFF0_14pathfinder_lsp6client7process4send00B9_
FNDA:0,_RNCNCNvNtNtCscBgZELoTFF0_14pathfinder_lsp6client7process4send0s_0B9_
FNDA:0,_RNCNvNtNtCscBgZELoTFF0_14pathfinder_lsp6client7process15spawn_lsp_child0B7_
FNDA:0,_RNCNvNtNtCscBgZELoTFF0_14pathfinder_lsp6client7process15spawn_lsp_childs0_0B7_
FNDA:0,_RNCNvNtNtCscBgZELoTFF0_14pathfinder_lsp6client7process15spawn_lsp_childs_0B7_
FNDA:0,_RNCNvNtNtCscBgZELoTFF0_14pathfinder_lsp6client7process16path_to_file_uri0B7_
FNDA:0,_RNCNvNtNtCscBgZELoTFF0_14pathfinder_lsp6client7process17start_reader_task0B7_
FNDA:0,_RNCNvNtNtCscBgZELoTFF0_14pathfinder_lsp6client7process20spawn_and_initialize0B7_
FNDA:0,_RNCNvNtNtCscBgZELoTFF0_14pathfinder_lsp6client7process24build_initialize_request0B7_
FNDA:0,_RNCNvNtNtCscBgZELoTFF0_14pathfinder_lsp6client7process29apply_linux_process_hardening0B7_
FNDA:0,_RNCNvNtNtCscBgZELoTFF0_14pathfinder_lsp6client7process4send0B7_
FNDA:0,_RNvNtNtCscBgZELoTFF0_14pathfinder_lsp6client7process15spawn_lsp_child
FNDA:0,_RNvNtNtCscBgZELoTFF0_14pathfinder_lsp6client7process16path_to_file_uri
FNDA:0,_RNvNtNtCscBgZELoTFF0_14pathfinder_lsp6client7process17start_reader_task
FNDA:0,_RNvNtNtCscBgZELoTFF0_14pathfinder_lsp6client7process20spawn_and_initialize
FNDA:0,_RNvNtNtCscBgZELoTFF0_14pathfinder_lsp6client7process24build_initialize_request
FNDA:0,_RNvNtNtCscBgZELoTFF0_14pathfinder_lsp6client7process29apply_linux_process_hardening
FNDA:0,_RNvNtNtCscBgZELoTFF0_14pathfinder_lsp6client7process4send
FNDA:0,_RNvNtNtCscBgZELoTFF0_14pathfinder_lsp6client7process8shutdown
FNDA:1,_RNvNtNtNtCs4F9smGagOs0_14pathfinder_lsp6client7process13process_testss_25test_path_to_file_uri_dir
FNDA:1,_RNvNtNtNtCs4F9smGagOs0_14pathfinder_lsp6client7process13process_testss_26test_path_to_file_uri_file
FNDA:1,_RNvNtNtNtCs4F9smGagOs0_14pathfinder_lsp6client7process13process_testss_33test_path_to_file_uri_nonexistent
FNDA:1,_RNvNtNtNtCs4F9smGagOs0_14pathfinder_lsp6client7process13process_testss_39test_build_initialize_request_structure
FNDA:1,_RNvNtNtNtCs4F9smGagOs0_14pathfinder_lsp6client7process13process_testss_42test_build_initialize_request_capabilities
FNDA:1,_RNvNtNtNtCs4F9smGagOs0_14pathfinder_lsp6client7process13process_testss_44test_build_initialize_request_workspace_name
FNDA:1,_RNCNvNtNtNtCs4F9smGagOs0_14pathfinder_lsp6client7process13process_testss_25test_path_to_file_uri_dir0B9_
FNDA:1,_RNCNvNtNtNtCs4F9smGagOs0_14pathfinder_lsp6client7process13process_testss_26test_path_to_file_uri_file0B9_
FNDA:1,_RNCNvNtNtNtCs4F9smGagOs0_14pathfinder_lsp6client7process13process_testss_33test_path_to_file_uri_nonexistent0B9_
FNDA:1,_RNCNvNtNtNtCs4F9smGagOs0_14pathfinder_lsp6client7process13process_testss_39test_build_initialize_request_structure0B9_
FNDA:1,_RNCNvNtNtNtCs4F9smGagOs0_14pathfinder_lsp6client7process13process_testss_42test_build_initialize_request_capabilities0B9_
FNDA:1,_RNCNvNtNtNtCs4F9smGagOs0_14pathfinder_lsp6client7process13process_testss_44test_build_initialize_request_workspace_name0B9_
FNDA:0,_RNvNtNtCs4F9smGagOs0_14pathfinder_lsp6client7process15spawn_lsp_child
FNDA:6,_RNvNtNtCs4F9smGagOs0_14pathfinder_lsp6client7process16path_to_file_uri
FNDA:0,_RNvNtNtCs4F9smGagOs0_14pathfinder_lsp6client7process17start_reader_task
FNDA:0,_RNvNtNtCs4F9smGagOs0_14pathfinder_lsp6client7process20spawn_and_initialize
FNDA:3,_RNvNtNtCs4F9smGagOs0_14pathfinder_lsp6client7process24build_initialize_request
FNDA:0,_RNvNtNtCs4F9smGagOs0_14pathfinder_lsp6client7process29apply_linux_process_hardening
FNDA:0,_RNvNtNtCs4F9smGagOs0_14pathfinder_lsp6client7process4send
FNDA:5,_RNCNCNvNtNtCs4F9smGagOs0_14pathfinder_lsp6client7process16path_to_file_uri00B9_
FNDA:0,_RNCNCNvNtNtCs4F9smGagOs0_14pathfinder_lsp6client7process16path_to_file_uri0s_0B9_
FNDA:0,_RNCNCNvNtNtCs4F9smGagOs0_14pathfinder_lsp6client7process20spawn_and_initialize00B9_
FNDA:3,_RNCNCNvNtNtCs4F9smGagOs0_14pathfinder_lsp6client7process24build_initialize_request00B9_
FNDA:0,_RNCNCNvNtNtCs4F9smGagOs0_14pathfinder_lsp6client7process4send00B9_
FNDA:0,_RNCNCNvNtNtCs4F9smGagOs0_14pathfinder_lsp6client7process4send0s_0B9_
FNDA:0,_RNCNvNtNtCs4F9smGagOs0_14pathfinder_lsp6client7process15spawn_lsp_child0B7_
FNDA:0,_RNCNvNtNtCs4F9smGagOs0_14pathfinder_lsp6client7process15spawn_lsp_childs0_0B7_
FNDA:0,_RNCNvNtNtCs4F9smGagOs0_14pathfinder_lsp6client7process15spawn_lsp_childs_0B7_
FNDA:6,_RNCNvNtNtCs4F9smGagOs0_14pathfinder_lsp6client7process16path_to_file_uri0B7_
FNDA:0,_RNCNvNtNtCs4F9smGagOs0_14pathfinder_lsp6client7process17start_reader_task0B7_
FNDA:0,_RNCNvNtNtCs4F9smGagOs0_14pathfinder_lsp6client7process20spawn_and_initialize0B7_
FNDA:3,_RNCNvNtNtCs4F9smGagOs0_14pathfinder_lsp6client7process24build_initialize_request0B7_
FNDA:0,_RNCNvNtNtCs4F9smGagOs0_14pathfinder_lsp6client7process29apply_linux_process_hardening0B7_
FNDA:0,_RNCNvNtNtCs4F9smGagOs0_14pathfinder_lsp6client7process4send0B7_
FNDA:0,_RNCNvNtNtCs4F9smGagOs0_14pathfinder_lsp6client7process8shutdown0B7_
FNDA:0,_RNvNtNtCs4F9smGagOs0_14pathfinder_lsp6client7process8shutdown
FNDA:0,_RNCNvNtNtCscBgZELoTFF0_14pathfinder_lsp6client7process8shutdown0Cs7Fw43FPylcK_14pathfinder_mcp
FNDA:0,_RNCNvNtNtCscBgZELoTFF0_14pathfinder_lsp6client7process8shutdown0CsaBz7PZGcJGm_14pathfinder_mcp
FNF:36
FNH:18
DA:92,0
DA:93,0
DA:94,0
DA:95,0
DA:96,0
DA:97,0
DA:98,0
DA:99,0
DA:100,0
DA:101,0
DA:109,0
DA:111,0
DA:112,0
DA:113,0
DA:115,0
DA:116,0
DA:117,0
DA:118,0
DA:119,0
DA:120,0
DA:121,0
DA:122,0
DA:123,0
DA:124,0
DA:125,0
DA:127,0
DA:128,0
DA:129,0
DA:131,0
DA:139,0
DA:140,0
DA:141,0
DA:142,0
DA:143,0
DA:144,0
DA:145,0
DA:146,0
DA:148,0
DA:149,0
DA:156,0
DA:157,0
DA:158,0
DA:159,0
DA:160,0
DA:161,0
DA:162,0
DA:163,0
DA:164,0
DA:165,0
DA:166,0
DA:167,0
DA:168,0
DA:173,0
DA:175,0
DA:176,0
DA:177,0
DA:183,0
DA:185,0
DA:186,0
DA:187,0
DA:188,0
DA:189,0
DA:191,0
DA:192,0
DA:193,0
DA:194,0
DA:195,0
DA:196,0
DA:197,0
DA:198,0
DA:199,0
DA:200,0
DA:201,0
DA:203,0
DA:204,0
DA:207,3
DA:208,3
DA:209,3
DA:210,3
DA:211,3
DA:212,3
DA:214,3
DA:215,3
DA:216,3
DA:217,3
DA:218,3
DA:219,3
DA:220,3
DA:221,3
DA:222,3
DA:223,3
DA:224,3
DA:225,3
DA:226,3
DA:227,3
DA:228,3
DA:229,3
DA:230,3
DA:231,3
DA:234,0
DA:235,0
DA:236,0
DA:237,0
DA:238,0
DA:239,0
DA:240,0
DA:241,0
DA:243,0
DA:244,0
DA:250,0
DA:251,0
DA:252,0
DA:253,0
DA:254,0
DA:255,0
DA:257,0
DA:258,0
DA:259,0
DA:260,0
DA:262,0
DA:263,0
DA:264,0
DA:266,0
DA:267,0
DA:272,0
DA:273,0
DA:278,0
DA:279,0
DA:280,0
DA:281,0
DA:282,0
DA:284,0
DA:286,0
DA:287,0
DA:290,0
DA:291,0
DA:292,0
DA:293,0
DA:296,0
DA:297,0
DA:300,6
DA:301,6
DA:303,6
DA:304,4
DA:306,2
DA:308,6
DA:310,6
DA:311,6
DA:326,0
DA:328,0
DA:329,0
DA:330,0
DA:331,0
DA:333,0
DA:347,1
DA:348,1
DA:349,1
DA:350,1
DA:352,1
DA:353,1
DA:354,1
DA:355,1
DA:356,1
DA:357,1
DA:358,1
DA:361,1
DA:362,1
DA:363,1
DA:364,1
DA:365,1
DA:366,1
DA:369,1
DA:370,1
DA:371,1
DA:373,1
DA:374,1
DA:375,1
DA:377,1
DA:378,1
DA:379,1
DA:380,1
DA:381,1
DA:382,1
DA:383,1
DA:384,1
DA:385,1
DA:386,1
DA:387,1
DA:389,1
DA:390,1
DA:393,1
DA:394,1
DA:396,1
DA:397,1
DA:399,1
DA:400,1
DA:401,1
DA:402,1
DA:403,1
DA:404,1
DA:407,1
DA:408,1
DA:409,1
DA:411,1
DA:412,1
DA:413,1
DA:416,1
DA:417,1
DA:420,1
DA:422,1
DA:425,1
DA:426,1
BRF:0
BRH:0
LF:243
LH:107
end_of_record
SF:/home/irahardianto/works/projects/pathfinder/crates/pathfinder-lsp/src/client/protocol.rs
FN:111,_RNvMNtNtCscBgZELoTFF0_14pathfinder_lsp6client8protocolNtB2_17RequestDispatcher10cancel_all
FN:46,_RNvMNtNtCscBgZELoTFF0_14pathfinder_lsp6client8protocolNtB2_17RequestDispatcher12make_request
FN:71,_RNvMNtNtCscBgZELoTFF0_14pathfinder_lsp6client8protocolNtB2_17RequestDispatcher17dispatch_response
FN:57,_RNvMNtNtCscBgZELoTFF0_14pathfinder_lsp6client8protocolNtB2_17RequestDispatcher17make_notification
FN:25,_RNvMNtNtCscBgZELoTFF0_14pathfinder_lsp6client8protocolNtB2_17RequestDispatcher3new
FN:103,_RNvMNtNtCscBgZELoTFF0_14pathfinder_lsp6client8protocolNtB2_17RequestDispatcher6remove
FN:37,_RNvMNtNtCscBgZELoTFF0_14pathfinder_lsp6client8protocolNtB2_17RequestDispatcher8register
FN:199,_RNCNvNtNtNtCs4F9smGagOs0_14pathfinder_lsp6client8protocol5testss_19test_sequential_ids0B9_
FN:270,_RNCNvNtNtNtCs4F9smGagOs0_14pathfinder_lsp6client8protocol5testss_22test_string_id_ignored0B9_
FN:170,_RNCNvNtNtNtCs4F9smGagOs0_14pathfinder_lsp6client8protocol5testss_25test_notification_ignored0B9_
FN:257,_RNCNvNtNtNtCs4F9smGagOs0_14pathfinder_lsp6client8protocol5testss_25test_remove_drops_pending0B9_
FN:150,_RNCNvNtNtNtCs4F9smGagOs0_14pathfinder_lsp6client8protocol5testss_30test_error_response_propagated0B9_
FN:131,_RNCNvNtNtNtCs4F9smGagOs0_14pathfinder_lsp6client8protocol5testss_31test_request_response_roundtrip0B9_
FN:228,_RNCNvNtNtNtCs4F9smGagOs0_14pathfinder_lsp6client8protocol5testss_34test_dispatch_unmatched_id_ignored0B9_
FN:243,_RNCNvNtNtNtCs4F9smGagOs0_14pathfinder_lsp6client8protocol5testss_37test_cancel_all_sends_connection_lost0B9_
FN:111,_RNvMNtNtCs4F9smGagOs0_14pathfinder_lsp6client8protocolNtB2_17RequestDispatcher10cancel_all
FN:46,_RNvMNtNtCs4F9smGagOs0_14pathfinder_lsp6client8protocolNtB2_17RequestDispatcher12make_request
FN:71,_RNvMNtNtCs4F9smGagOs0_14pathfinder_lsp6client8protocolNtB2_17RequestDispatcher17dispatch_response
FN:57,_RNvMNtNtCs4F9smGagOs0_14pathfinder_lsp6client8protocolNtB2_17RequestDispatcher17make_notification
FN:25,_RNvMNtNtCs4F9smGagOs0_14pathfinder_lsp6client8protocolNtB2_17RequestDispatcher3new
FN:103,_RNvMNtNtCs4F9smGagOs0_14pathfinder_lsp6client8protocolNtB2_17RequestDispatcher6remove
FN:37,_RNvMNtNtCs4F9smGagOs0_14pathfinder_lsp6client8protocolNtB2_17RequestDispatcher8register
FN:199,_RNvNtNtNtCs4F9smGagOs0_14pathfinder_lsp6client8protocol5testss_19test_sequential_ids
FN:270,_RNvNtNtNtCs4F9smGagOs0_14pathfinder_lsp6client8protocol5testss_22test_string_id_ignored
FN:170,_RNvNtNtNtCs4F9smGagOs0_14pathfinder_lsp6client8protocol5testss_25test_notification_ignored
FN:257,_RNvNtNtNtCs4F9smGagOs0_14pathfinder_lsp6client8protocol5testss_25test_remove_drops_pending
FN:210,_RNvNtNtNtCs4F9smGagOs0_14pathfinder_lsp6client8protocol5testss_27test_make_request_structure
FN:188,_RNvNtNtNtCs4F9smGagOs0_14pathfinder_lsp6client8protocol5testss_30test_cancel_all_drains_pending
FN:150,_RNvNtNtNtCs4F9smGagOs0_14pathfinder_lsp6client8protocol5testss_30test_error_response_propagated
FN:131,_RNvNtNtNtCs4F9smGagOs0_14pathfinder_lsp6client8protocol5testss_31test_request_response_roundtrip
FN:220,_RNvNtNtNtCs4F9smGagOs0_14pathfinder_lsp6client8protocol5testss_32test_make_notification_structure
FN:228,_RNvNtNtNtCs4F9smGagOs0_14pathfinder_lsp6client8protocol5testss_34test_dispatch_unmatched_id_ignored
FN:243,_RNvNtNtNtCs4F9smGagOs0_14pathfinder_lsp6client8protocol5testss_37test_cancel_all_sends_connection_lost
FNDA:0,_RNvMNtNtCscBgZELoTFF0_14pathfinder_lsp6client8protocolNtB2_17RequestDispatcher10cancel_all
FNDA:0,_RNvMNtNtCscBgZELoTFF0_14pathfinder_lsp6client8protocolNtB2_17RequestDispatcher12make_request
FNDA:0,_RNvMNtNtCscBgZELoTFF0_14pathfinder_lsp6client8protocolNtB2_17RequestDispatcher17dispatch_response
FNDA:0,_RNvMNtNtCscBgZELoTFF0_14pathfinder_lsp6client8protocolNtB2_17RequestDispatcher17make_notification
FNDA:0,_RNvMNtNtCscBgZELoTFF0_14pathfinder_lsp6client8protocolNtB2_17RequestDispatcher3new
FNDA:0,_RNvMNtNtCscBgZELoTFF0_14pathfinder_lsp6client8protocolNtB2_17RequestDispatcher6remove
FNDA:0,_RNvMNtNtCscBgZELoTFF0_14pathfinder_lsp6client8protocolNtB2_17RequestDispatcher8register
FNDA:1,_RNCNvNtNtNtCs4F9smGagOs0_14pathfinder_lsp6client8protocol5testss_19test_sequential_ids0B9_
FNDA:1,_RNCNvNtNtNtCs4F9smGagOs0_14pathfinder_lsp6client8protocol5testss_22test_string_id_ignored0B9_
FNDA:1,_RNCNvNtNtNtCs4F9smGagOs0_14pathfinder_lsp6client8protocol5testss_25test_notification_ignored0B9_
FNDA:1,_RNCNvNtNtNtCs4F9smGagOs0_14pathfinder_lsp6client8protocol5testss_25test_remove_drops_pending0B9_
FNDA:1,_RNCNvNtNtNtCs4F9smGagOs0_14pathfinder_lsp6client8protocol5testss_30test_error_response_propagated0B9_
FNDA:1,_RNCNvNtNtNtCs4F9smGagOs0_14pathfinder_lsp6client8protocol5testss_31test_request_response_roundtrip0B9_
FNDA:1,_RNCNvNtNtNtCs4F9smGagOs0_14pathfinder_lsp6client8protocol5testss_34test_dispatch_unmatched_id_ignored0B9_
FNDA:1,_RNCNvNtNtNtCs4F9smGagOs0_14pathfinder_lsp6client8protocol5testss_37test_cancel_all_sends_connection_lost0B9_
FNDA:2,_RNvMNtNtCs4F9smGagOs0_14pathfinder_lsp6client8protocolNtB2_17RequestDispatcher10cancel_all
FNDA:6,_RNvMNtNtCs4F9smGagOs0_14pathfinder_lsp6client8protocolNtB2_17RequestDispatcher12make_request
FNDA:5,_RNvMNtNtCs4F9smGagOs0_14pathfinder_lsp6client8protocolNtB2_17RequestDispatcher17dispatch_response
FNDA:3,_RNvMNtNtCs4F9smGagOs0_14pathfinder_lsp6client8protocolNtB2_17RequestDispatcher17make_notification
FNDA:34,_RNvMNtNtCs4F9smGagOs0_14pathfinder_lsp6client8protocolNtB2_17RequestDispatcher3new
FNDA:1,_RNvMNtNtCs4F9smGagOs0_14pathfinder_lsp6client8protocolNtB2_17RequestDispatcher6remove
FNDA:15,_RNvMNtNtCs4F9smGagOs0_14pathfinder_lsp6client8protocolNtB2_17RequestDispatcher8register
FNDA:1,_RNvNtNtNtCs4F9smGagOs0_14pathfinder_lsp6client8protocol5testss_19test_sequential_ids
FNDA:1,_RNvNtNtNtCs4F9smGagOs0_14pathfinder_lsp6client8protocol5testss_22test_string_id_ignored
FNDA:1,_RNvNtNtNtCs4F9smGagOs0_14pathfinder_lsp6client8protocol5testss_25test_notification_ignored
FNDA:1,_RNvNtNtNtCs4F9smGagOs0_14pathfinder_lsp6client8protocol5testss_25test_remove_drops_pending
FNDA:1,_RNvNtNtNtCs4F9smGagOs0_14pathfinder_lsp6client8protocol5testss_27test_make_request_structure
FNDA:1,_RNvNtNtNtCs4F9smGagOs0_14pathfinder_lsp6client8protocol5testss_30test_cancel_all_drains_pending
FNDA:1,_RNvNtNtNtCs4F9smGagOs0_14pathfinder_lsp6client8protocol5testss_30test_error_response_propagated
FNDA:1,_RNvNtNtNtCs4F9smGagOs0_14pathfinder_lsp6client8protocol5testss_31test_request_response_roundtrip
FNDA:1,_RNvNtNtNtCs4F9smGagOs0_14pathfinder_lsp6client8protocol5testss_32test_make_notification_structure
FNDA:1,_RNvNtNtNtCs4F9smGagOs0_14pathfinder_lsp6client8protocol5testss_34test_dispatch_unmatched_id_ignored
FNDA:1,_RNvNtNtNtCs4F9smGagOs0_14pathfinder_lsp6client8protocol5testss_37test_cancel_all_sends_connection_lost
FNF:26
FNH:26
DA:25,34
DA:26,34
DA:27,34
DA:28,34
DA:29,34
DA:30,34
DA:37,15
DA:38,15
DA:39,15
DA:40,15
DA:41,15
DA:42,15
DA:46,6
DA:47,6
DA:48,6
DA:49,6
DA:50,6
DA:51,6
DA:53,6
DA:57,3
DA:58,3
DA:59,3
DA:60,3
DA:61,3
DA:63,3
DA:71,5
DA:72,5
DA:74,1
DA:76,4
DA:77,1
DA:80,3
DA:82,3
DA:83,2
DA:84,1
DA:85,1
DA:86,1
DA:87,1
DA:88,1
DA:90,1
DA:93,2
DA:94,1
DA:95,5
DA:103,1
DA:104,1
DA:105,1
DA:111,2
DA:112,2
DA:113,2
DA:114,2
DA:115,2
DA:116,2
DA:117,2
DA:118,4
DA:119,4
DA:120,4
DA:121,2
DA:131,1
DA:132,1
DA:133,1
DA:134,1
DA:137,1
DA:138,1
DA:139,1
DA:140,1
DA:142,1
DA:144,1
DA:145,1
DA:146,1
DA:147,1
DA:150,1
DA:151,1
DA:152,1
DA:154,1
DA:155,1
DA:156,1
DA:157,1
DA:159,1
DA:161,1
DA:162,1
DA:163,1
DA:164,1
DA:165,1
DA:166,1
DA:167,1
DA:170,1
DA:171,1
DA:172,1
DA:175,1
DA:176,1
DA:179,1
DA:180,1
DA:184,1
DA:185,1
DA:188,1
DA:189,1
DA:190,1
DA:191,1
DA:192,1
DA:194,1
DA:195,1
DA:196,1
DA:199,1
DA:200,1
DA:201,1
DA:202,1
DA:203,1
DA:204,1
DA:205,1
DA:206,1
DA:207,1
DA:210,1
DA:211,1
DA:212,1
DA:213,1
DA:214,1
DA:215,1
DA:216,1
DA:217,1
DA:220,1
DA:221,1
DA:222,1
DA:223,1
DA:224,1
DA:225,1
DA:228,1
DA:229,1
DA:230,1
DA:233,1
DA:234,1
DA:237,1
DA:239,1
DA:240,1
DA:243,1
DA:244,1
DA:245,1
DA:246,1
DA:248,1
DA:250,1
DA:251,1
DA:252,1
DA:253,1
DA:254,1
DA:257,1
DA:258,1
DA:259,1
DA:260,1
DA:262,1
DA:263,1
DA:266,1
DA:267,1
DA:270,1
DA:271,1
DA:272,1
DA:275,1
DA:276,1
DA:279,1
DA:280,1
DA:281,1
BRF:0
BRH:0
LF:176
LH:175
end_of_record
SF:/home/irahardianto/works/projects/pathfinder/crates/pathfinder-lsp/src/client/transport.rs
FN:27,_RINvNtNtCscBgZELoTFF0_14pathfinder_lsp6client9transport12read_messageNtNtCs9UGkyOyAmu4_5tokio7process11ChildStdoutEB6_
FN:98,_RINvNtNtCscBgZELoTFF0_14pathfinder_lsp6client9transport13write_messageINtNtNtNtCs9UGkyOyAmu4_5tokio2io4util10buf_writer9BufWriterNtNtB1f_7process10ChildStdinEEB6_
FN:30,_RNCINvNtNtCscBgZELoTFF0_14pathfinder_lsp6client9transport12read_messageNtNtCs9UGkyOyAmu4_5tokio7process11ChildStdoutE0B8_
FN:101,_RNCINvNtNtCscBgZELoTFF0_14pathfinder_lsp6client9transport13write_messageINtNtNtNtCs9UGkyOyAmu4_5tokio2io4util10buf_writer9BufWriterNtNtB1h_7process10ChildStdinEE0B8_
FN:38,_RNCNCINvNtNtCscBgZELoTFF0_14pathfinder_lsp6client9transport12read_messageNtNtCs9UGkyOyAmu4_5tokio7process11ChildStdoutE00Ba_
FN:58,_RNCNCINvNtNtCscBgZELoTFF0_14pathfinder_lsp6client9transport12read_messageNtNtCs9UGkyOyAmu4_5tokio7process11ChildStdoutE0s0_0Ba_
FN:65,_RNCNCINvNtNtCscBgZELoTFF0_14pathfinder_lsp6client9transport12read_messageNtNtCs9UGkyOyAmu4_5tokio7process11ChildStdoutE0s1_0Ba_
FN:76,_RNCNCINvNtNtCscBgZELoTFF0_14pathfinder_lsp6client9transport12read_messageNtNtCs9UGkyOyAmu4_5tokio7process11ChildStdoutE0s2_0Ba_
FN:84,_RNCNCINvNtNtCscBgZELoTFF0_14pathfinder_lsp6client9transport12read_messageNtNtCs9UGkyOyAmu4_5tokio7process11ChildStdoutE0s3_0Ba_
FN:56,_RNCNCINvNtNtCscBgZELoTFF0_14pathfinder_lsp6client9transport12read_messageNtNtCs9UGkyOyAmu4_5tokio7process11ChildStdoutE0s_0Ba_
FN:105,_RNCNCINvNtNtCscBgZELoTFF0_14pathfinder_lsp6client9transport13write_messageINtNtNtNtCs9UGkyOyAmu4_5tokio2io4util10buf_writer9BufWriterNtNtB1j_7process10ChildStdinEE00Ba_
FN:115,_RNCNCINvNtNtCscBgZELoTFF0_14pathfinder_lsp6client9transport13write_messageINtNtNtNtCs9UGkyOyAmu4_5tokio2io4util10buf_writer9BufWriterNtNtB1j_7process10ChildStdinEE0s0_0Ba_
FN:121,_RNCNCINvNtNtCscBgZELoTFF0_14pathfinder_lsp6client9transport13write_messageINtNtNtNtCs9UGkyOyAmu4_5tokio2io4util10buf_writer9BufWriterNtNtB1j_7process10ChildStdinEE0s1_0Ba_
FN:109,_RNCNCINvNtNtCscBgZELoTFF0_14pathfinder_lsp6client9transport13write_messageINtNtNtNtCs9UGkyOyAmu4_5tokio2io4util10buf_writer9BufWriterNtNtB1j_7process10ChildStdinEE0s_0Ba_
FN:138,_RNvNtNtNtCs4F9smGagOs0_14pathfinder_lsp6client9transport5tests9roundtrip
FN:254,_RNvNtNtNtCs4F9smGagOs0_14pathfinder_lsp6client9transport5testss_22test_invalid_json_body
FN:149,_RNvNtNtNtCs4F9smGagOs0_14pathfinder_lsp6client9transport5testss_22test_roundtrip_request
FN:270,_RNvNtNtNtCs4F9smGagOs0_14pathfinder_lsp6client9transport5testss_25test_write_message_format
FN:222,_RNvNtNtNtCs4F9smGagOs0_14pathfinder_lsp6client9transport5testss_26test_extra_headers_ignored
FN:161,_RNvNtNtNtCs4F9smGagOs0_14pathfinder_lsp6client9transport5testss_27test_roundtrip_notification
FN:185,_RNvNtNtNtCs4F9smGagOs0_14pathfinder_lsp6client9transport5testss_32test_eof_returns_connection_lost
FN:240,_RNvNtNtNtCs4F9smGagOs0_14pathfinder_lsp6client9transport5testss_33test_invalid_content_length_value
FN:208,_RNvNtNtNtCs4F9smGagOs0_14pathfinder_lsp6client9transport5testss_36test_case_insensitive_content_length
FN:172,_RNvNtNtNtCs4F9smGagOs0_14pathfinder_lsp6client9transport5testss_36test_missing_content_length_is_error
FN:193,_RNvNtNtNtCs4F9smGagOs0_14pathfinder_lsp6client9transport5testss_41test_oversized_content_length_is_rejected
FN:138,_RNCNvNtNtNtCs4F9smGagOs0_14pathfinder_lsp6client9transport5tests9roundtrip0B9_
FN:254,_RNCNvNtNtNtCs4F9smGagOs0_14pathfinder_lsp6client9transport5testss_22test_invalid_json_body0B9_
FN:149,_RNCNvNtNtNtCs4F9smGagOs0_14pathfinder_lsp6client9transport5testss_22test_roundtrip_request0B9_
FN:270,_RNCNvNtNtNtCs4F9smGagOs0_14pathfinder_lsp6client9transport5testss_25test_write_message_format0B9_
FN:222,_RNCNvNtNtNtCs4F9smGagOs0_14pathfinder_lsp6client9transport5testss_26test_extra_headers_ignored0B9_
FN:161,_RNCNvNtNtNtCs4F9smGagOs0_14pathfinder_lsp6client9transport5testss_27test_roundtrip_notification0B9_
FN:185,_RNCNvNtNtNtCs4F9smGagOs0_14pathfinder_lsp6client9transport5testss_32test_eof_returns_connection_lost0B9_
FN:240,_RNCNvNtNtNtCs4F9smGagOs0_14pathfinder_lsp6client9transport5testss_33test_invalid_content_length_value0B9_
FN:208,_RNCNvNtNtNtCs4F9smGagOs0_14pathfinder_lsp6client9transport5testss_36test_case_insensitive_content_length0B9_
FN:172,_RNCNvNtNtNtCs4F9smGagOs0_14pathfinder_lsp6client9transport5testss_36test_missing_content_length_is_error0B9_
FN:193,_RNCNvNtNtNtCs4F9smGagOs0_14pathfinder_lsp6client9transport5testss_41test_oversized_content_length_is_rejected0B9_
FN:27,_RINvNtNtCs4F9smGagOs0_14pathfinder_lsp6client9transport12read_messageNtNtCs9UGkyOyAmu4_5tokio7process11ChildStdoutEB6_
FN:27,_RINvNtNtCs4F9smGagOs0_14pathfinder_lsp6client9transport12read_messageRShEB6_
FN:98,_RINvNtNtCs4F9smGagOs0_14pathfinder_lsp6client9transport13write_messageINtNtCslNYArtu3iFV_5alloc3vec3VechEEB6_
FN:98,_RINvNtNtCs4F9smGagOs0_14pathfinder_lsp6client9transport13write_messageINtNtNtNtCs9UGkyOyAmu4_5tokio2io4util10buf_writer9BufWriterNtNtB1f_7process10ChildStdinEEB6_
FN:30,_RNCINvNtNtCs4F9smGagOs0_14pathfinder_lsp6client9transport12read_messageNtNtCs9UGkyOyAmu4_5tokio7process11ChildStdoutE0B8_
FN:30,_RNCINvNtNtCs4F9smGagOs0_14pathfinder_lsp6client9transport12read_messageRShE0B8_
FN:101,_RNCINvNtNtCs4F9smGagOs0_14pathfinder_lsp6client9transport13write_messageINtNtCslNYArtu3iFV_5alloc3vec3VechEE0B8_
FN:101,_RNCINvNtNtCs4F9smGagOs0_14pathfinder_lsp6client9transport13write_messageINtNtNtNtCs9UGkyOyAmu4_5tokio2io4util10buf_writer9BufWriterNtNtB1h_7process10ChildStdinEE0B8_
FN:38,_RNCNCINvNtNtCs4F9smGagOs0_14pathfinder_lsp6client9transport12read_messageNtNtCs9UGkyOyAmu4_5tokio7process11ChildStdoutE00Ba_
FN:58,_RNCNCINvNtNtCs4F9smGagOs0_14pathfinder_lsp6client9transport12read_messageNtNtCs9UGkyOyAmu4_5tokio7process11ChildStdoutE0s0_0Ba_
FN:65,_RNCNCINvNtNtCs4F9smGagOs0_14pathfinder_lsp6client9transport12read_messageNtNtCs9UGkyOyAmu4_5tokio7process11ChildStdoutE0s1_0Ba_
FN:76,_RNCNCINvNtNtCs4F9smGagOs0_14pathfinder_lsp6client9transport12read_messageNtNtCs9UGkyOyAmu4_5tokio7process11ChildStdoutE0s2_0Ba_
FN:84,_RNCNCINvNtNtCs4F9smGagOs0_14pathfinder_lsp6client9transport12read_messageNtNtCs9UGkyOyAmu4_5tokio7process11ChildStdoutE0s3_0Ba_
FN:56,_RNCNCINvNtNtCs4F9smGagOs0_14pathfinder_lsp6client9transport12read_messageNtNtCs9UGkyOyAmu4_5tokio7process11ChildStdoutE0s_0Ba_
FN:38,_RNCNCINvNtNtCs4F9smGagOs0_14pathfinder_lsp6client9transport12read_messageRShE00Ba_
FN:58,_RNCNCINvNtNtCs4F9smGagOs0_14pathfinder_lsp6client9transport12read_messageRShE0s0_0Ba_
FN:65,_RNCNCINvNtNtCs4F9smGagOs0_14pathfinder_lsp6client9transport12read_messageRShE0s1_0Ba_
FN:76,_RNCNCINvNtNtCs4F9smGagOs0_14pathfinder_lsp6client9transport12read_messageRShE0s2_0Ba_
FN:84,_RNCNCINvNtNtCs4F9smGagOs0_14pathfinder_lsp6client9transport12read_messageRShE0s3_0Ba_
FN:56,_RNCNCINvNtNtCs4F9smGagOs0_14pathfinder_lsp6client9transport12read_messageRShE0s_0Ba_
FN:105,_RNCNCINvNtNtCs4F9smGagOs0_14pathfinder_lsp6client9transport13write_messageINtNtCslNYArtu3iFV_5alloc3vec3VechEE00Ba_
FN:115,_RNCNCINvNtNtCs4F9smGagOs0_14pathfinder_lsp6client9transport13write_messageINtNtCslNYArtu3iFV_5alloc3vec3VechEE0s0_0Ba_
FN:121,_RNCNCINvNtNtCs4F9smGagOs0_14pathfinder_lsp6client9transport13write_messageINtNtCslNYArtu3iFV_5alloc3vec3VechEE0s1_0Ba_
FN:109,_RNCNCINvNtNtCs4F9smGagOs0_14pathfinder_lsp6client9transport13write_messageINtNtCslNYArtu3iFV_5alloc3vec3VechEE0s_0Ba_
FN:105,_RNCNCINvNtNtCs4F9smGagOs0_14pathfinder_lsp6client9transport13write_messageINtNtNtNtCs9UGkyOyAmu4_5tokio2io4util10buf_writer9BufWriterNtNtB1j_7process10ChildStdinEE00Ba_
FN:115,_RNCNCINvNtNtCs4F9smGagOs0_14pathfinder_lsp6client9transport13write_messageINtNtNtNtCs9UGkyOyAmu4_5tokio2io4util10buf_writer9BufWriterNtNtB1j_7process10ChildStdinEE0s0_0Ba_
FN:121,_RNCNCINvNtNtCs4F9smGagOs0_14pathfinder_lsp6client9transport13write_messageINtNtNtNtCs9UGkyOyAmu4_5tokio2io4util10buf_writer9BufWriterNtNtB1j_7process10ChildStdinEE0s1_0Ba_
FN:109,_RNCNCINvNtNtCs4F9smGagOs0_14pathfinder_lsp6client9transport13write_messageINtNtNtNtCs9UGkyOyAmu4_5tokio2io4util10buf_writer9BufWriterNtNtB1j_7process10ChildStdinEE0s_0Ba_
FNDA:0,_RINvNtNtCscBgZELoTFF0_14pathfinder_lsp6client9transport12read_messageNtNtCs9UGkyOyAmu4_5tokio7process11ChildStdoutEB6_
FNDA:0,_RINvNtNtCscBgZELoTFF0_14pathfinder_lsp6client9transport13write_messageINtNtNtNtCs9UGkyOyAmu4_5tokio2io4util10buf_writer9BufWriterNtNtB1f_7process10ChildStdinEEB6_
FNDA:0,_RNCINvNtNtCscBgZELoTFF0_14pathfinder_lsp6client9transport12read_messageNtNtCs9UGkyOyAmu4_5tokio7process11ChildStdoutE0B8_
FNDA:0,_RNCINvNtNtCscBgZELoTFF0_14pathfinder_lsp6client9transport13write_messageINtNtNtNtCs9UGkyOyAmu4_5tokio2io4util10buf_writer9BufWriterNtNtB1h_7process10ChildStdinEE0B8_
FNDA:0,_RNCNCINvNtNtCscBgZELoTFF0_14pathfinder_lsp6client9transport12read_messageNtNtCs9UGkyOyAmu4_5tokio7process11ChildStdoutE00Ba_
FNDA:0,_RNCNCINvNtNtCscBgZELoTFF0_14pathfinder_lsp6client9transport12read_messageNtNtCs9UGkyOyAmu4_5tokio7process11ChildStdoutE0s0_0Ba_
FNDA:0,_RNCNCINvNtNtCscBgZELoTFF0_14pathfinder_lsp6client9transport12read_messageNtNtCs9UGkyOyAmu4_5tokio7process11ChildStdoutE0s1_0Ba_
FNDA:0,_RNCNCINvNtNtCscBgZELoTFF0_14pathfinder_lsp6client9transport12read_messageNtNtCs9UGkyOyAmu4_5tokio7process11ChildStdoutE0s2_0Ba_
FNDA:0,_RNCNCINvNtNtCscBgZELoTFF0_14pathfinder_lsp6client9transport12read_messageNtNtCs9UGkyOyAmu4_5tokio7process11ChildStdoutE0s3_0Ba_
FNDA:0,_RNCNCINvNtNtCscBgZELoTFF0_14pathfinder_lsp6client9transport12read_messageNtNtCs9UGkyOyAmu4_5tokio7process11ChildStdoutE0s_0Ba_
FNDA:0,_RNCNCINvNtNtCscBgZELoTFF0_14pathfinder_lsp6client9transport13write_messageINtNtNtNtCs9UGkyOyAmu4_5tokio2io4util10buf_writer9BufWriterNtNtB1j_7process10ChildStdinEE00Ba_
FNDA:0,_RNCNCINvNtNtCscBgZELoTFF0_14pathfinder_lsp6client9transport13write_messageINtNtNtNtCs9UGkyOyAmu4_5tokio2io4util10buf_writer9BufWriterNtNtB1j_7process10ChildStdinEE0s0_0Ba_
FNDA:0,_RNCNCINvNtNtCscBgZELoTFF0_14pathfinder_lsp6client9transport13write_messageINtNtNtNtCs9UGkyOyAmu4_5tokio2io4util10buf_writer9BufWriterNtNtB1j_7process10ChildStdinEE0s1_0Ba_
FNDA:0,_RNCNCINvNtNtCscBgZELoTFF0_14pathfinder_lsp6client9transport13write_messageINtNtNtNtCs9UGkyOyAmu4_5tokio2io4util10buf_writer9BufWriterNtNtB1j_7process10ChildStdinEE0s_0Ba_
FNDA:2,_RNvNtNtNtCs4F9smGagOs0_14pathfinder_lsp6client9transport5tests9roundtrip
FNDA:1,_RNvNtNtNtCs4F9smGagOs0_14pathfinder_lsp6client9transport5testss_22test_invalid_json_body
FNDA:1,_RNvNtNtNtCs4F9smGagOs0_14pathfinder_lsp6client9transport5testss_22test_roundtrip_request
FNDA:1,_RNvNtNtNtCs4F9smGagOs0_14pathfinder_lsp6client9transport5testss_25test_write_message_format
FNDA:1,_RNvNtNtNtCs4F9smGagOs0_14pathfinder_lsp6client9transport5testss_26test_extra_headers_ignored
FNDA:1,_RNvNtNtNtCs4F9smGagOs0_14pathfinder_lsp6client9transport5testss_27test_roundtrip_notification
FNDA:1,_RNvNtNtNtCs4F9smGagOs0_14pathfinder_lsp6client9transport5testss_32test_eof_returns_connection_lost
FNDA:1,_RNvNtNtNtCs4F9smGagOs0_14pathfinder_lsp6client9transport5testss_33test_invalid_content_length_value
FNDA:1,_RNvNtNtNtCs4F9smGagOs0_14pathfinder_lsp6client9transport5testss_36test_case_insensitive_content_length
FNDA:1,_RNvNtNtNtCs4F9smGagOs0_14pathfinder_lsp6client9transport5testss_36test_missing_content_length_is_error
FNDA:1,_RNvNtNtNtCs4F9smGagOs0_14pathfinder_lsp6client9transport5testss_41test_oversized_content_length_is_rejected
FNDA:2,_RNCNvNtNtNtCs4F9smGagOs0_14pathfinder_lsp6client9transport5tests9roundtrip0B9_
FNDA:1,_RNCNvNtNtNtCs4F9smGagOs0_14pathfinder_lsp6client9transport5testss_22test_invalid_json_body0B9_
FNDA:1,_RNCNvNtNtNtCs4F9smGagOs0_14pathfinder_lsp6client9transport5testss_22test_roundtrip_request0B9_
FNDA:1,_RNCNvNtNtNtCs4F9smGagOs0_14pathfinder_lsp6client9transport5testss_25test_write_message_format0B9_
FNDA:1,_RNCNvNtNtNtCs4F9smGagOs0_14pathfinder_lsp6client9transport5testss_26test_extra_headers_ignored0B9_
FNDA:1,_RNCNvNtNtNtCs4F9smGagOs0_14pathfinder_lsp6client9transport5testss_27test_roundtrip_notification0B9_
FNDA:1,_RNCNvNtNtNtCs4F9smGagOs0_14pathfinder_lsp6client9transport5testss_32test_eof_returns_connection_lost0B9_
FNDA:1,_RNCNvNtNtNtCs4F9smGagOs0_14pathfinder_lsp6client9transport5testss_33test_invalid_content_length_value0B9_
FNDA:1,_RNCNvNtNtNtCs4F9smGagOs0_14pathfinder_lsp6client9transport5testss_36test_case_insensitive_content_length0B9_
FNDA:1,_RNCNvNtNtNtCs4F9smGagOs0_14pathfinder_lsp6client9transport5testss_36test_missing_content_length_is_error0B9_
FNDA:1,_RNCNvNtNtNtCs4F9smGagOs0_14pathfinder_lsp6client9transport5testss_41test_oversized_content_length_is_rejected0B9_
FNDA:0,_RINvNtNtCs4F9smGagOs0_14pathfinder_lsp6client9transport12read_messageNtNtCs9UGkyOyAmu4_5tokio7process11ChildStdoutEB6_
FNDA:9,_RINvNtNtCs4F9smGagOs0_14pathfinder_lsp6client9transport12read_messageRShEB6_
FNDA:3,_RINvNtNtCs4F9smGagOs0_14pathfinder_lsp6client9transport13write_messageINtNtCslNYArtu3iFV_5alloc3vec3VechEEB6_
FNDA:0,_RINvNtNtCs4F9smGagOs0_14pathfinder_lsp6client9transport13write_messageINtNtNtNtCs9UGkyOyAmu4_5tokio2io4util10buf_writer9BufWriterNtNtB1f_7process10ChildStdinEEB6_
FNDA:0,_RNCINvNtNtCs4F9smGagOs0_14pathfinder_lsp6client9transport12read_messageNtNtCs9UGkyOyAmu4_5tokio7process11ChildStdoutE0B8_
FNDA:9,_RNCINvNtNtCs4F9smGagOs0_14pathfinder_lsp6client9transport12read_messageRShE0B8_
FNDA:3,_RNCINvNtNtCs4F9smGagOs0_14pathfinder_lsp6client9transport13write_messageINtNtCslNYArtu3iFV_5alloc3vec3VechEE0B8_
FNDA:0,_RNCINvNtNtCs4F9smGagOs0_14pathfinder_lsp6client9transport13write_messageINtNtNtNtCs9UGkyOyAmu4_5tokio2io4util10buf_writer9BufWriterNtNtB1h_7process10ChildStdinEE0B8_
FNDA:0,_RNCNCINvNtNtCs4F9smGagOs0_14pathfinder_lsp6client9transport12read_messageNtNtCs9UGkyOyAmu4_5tokio7process11ChildStdoutE00Ba_
FNDA:0,_RNCNCINvNtNtCs4F9smGagOs0_14pathfinder_lsp6client9transport12read_messageNtNtCs9UGkyOyAmu4_5tokio7process11ChildStdoutE0s0_0Ba_
FNDA:0,_RNCNCINvNtNtCs4F9smGagOs0_14pathfinder_lsp6client9transport12read_messageNtNtCs9UGkyOyAmu4_5tokio7process11ChildStdoutE0s1_0Ba_
FNDA:0,_RNCNCINvNtNtCs4F9smGagOs0_14pathfinder_lsp6client9transport12read_messageNtNtCs9UGkyOyAmu4_5tokio7process11ChildStdoutE0s2_0Ba_
FNDA:0,_RNCNCINvNtNtCs4F9smGagOs0_14pathfinder_lsp6client9transport12read_messageNtNtCs9UGkyOyAmu4_5tokio7process11ChildStdoutE0s3_0Ba_
FNDA:0,_RNCNCINvNtNtCs4F9smGagOs0_14pathfinder_lsp6client9transport12read_messageNtNtCs9UGkyOyAmu4_5tokio7process11ChildStdoutE0s_0Ba_
FNDA:0,_RNCNCINvNtNtCs4F9smGagOs0_14pathfinder_lsp6client9transport12read_messageRShE00Ba_
FNDA:1,_RNCNCINvNtNtCs4F9smGagOs0_14pathfinder_lsp6client9transport12read_messageRShE0s0_0Ba_
FNDA:1,_RNCNCINvNtNtCs4F9smGagOs0_14pathfinder_lsp6client9transport12read_messageRShE0s1_0Ba_
FNDA:0,_RNCNCINvNtNtCs4F9smGagOs0_14pathfinder_lsp6client9transport12read_messageRShE0s2_0Ba_
FNDA:1,_RNCNCINvNtNtCs4F9smGagOs0_14pathfinder_lsp6client9transport12read_messageRShE0s3_0Ba_
FNDA:2,_RNCNCINvNtNtCs4F9smGagOs0_14pathfinder_lsp6client9transport12read_messageRShE0s_0Ba_
FNDA:0,_RNCNCINvNtNtCs4F9smGagOs0_14pathfinder_lsp6client9transport13write_messageINtNtCslNYArtu3iFV_5alloc3vec3VechEE00Ba_
FNDA:0,_RNCNCINvNtNtCs4F9smGagOs0_14pathfinder_lsp6client9transport13write_messageINtNtCslNYArtu3iFV_5alloc3vec3VechEE0s0_0Ba_
FNDA:0,_RNCNCINvNtNtCs4F9smGagOs0_14pathfinder_lsp6client9transport13write_messageINtNtCslNYArtu3iFV_5alloc3vec3VechEE0s1_0Ba_
FNDA:0,_RNCNCINvNtNtCs4F9smGagOs0_14pathfinder_lsp6client9transport13write_messageINtNtCslNYArtu3iFV_5alloc3vec3VechEE0s_0Ba_
FNDA:0,_RNCNCINvNtNtCs4F9smGagOs0_14pathfinder_lsp6client9transport13write_messageINtNtNtNtCs9UGkyOyAmu4_5tokio2io4util10buf_writer9BufWriterNtNtB1j_7process10ChildStdinEE00Ba_
FNDA:0,_RNCNCINvNtNtCs4F9smGagOs0_14pathfinder_lsp6client9transport13write_messageINtNtNtNtCs9UGkyOyAmu4_5tokio2io4util10buf_writer9BufWriterNtNtB1j_7process10ChildStdinEE0s0_0Ba_
FNDA:0,_RNCNCINvNtNtCs4F9smGagOs0_14pathfinder_lsp6client9transport13write_messageINtNtNtNtCs9UGkyOyAmu4_5tokio2io4util10buf_writer9BufWriterNtNtB1j_7process10ChildStdinEE0s1_0Ba_
FNDA:0,_RNCNCINvNtNtCs4F9smGagOs0_14pathfinder_lsp6client9transport13write_messageINtNtNtNtCs9UGkyOyAmu4_5tokio2io4util10buf_writer9BufWriterNtNtB1j_7process10ChildStdinEE0s_0Ba_
FNF:36
FNH:30
DA:27,9
DA:28,9
DA:29,9
DA:30,9
DA:34,9
DA:37,16
DA:38,16
DA:39,0
DA:40,0
DA:41,0
DA:42,0
DA:43,0
DA:44,16
DA:45,1
DA:46,15
DA:48,15
DA:49,15
DA:51,7
DA:52,8
DA:54,8
DA:55,8
DA:56,8
DA:58,7
DA:59,1
DA:60,1
DA:61,1
DA:65,7
DA:66,1
DA:67,1
DA:69,6
DA:70,1
DA:71,1
DA:72,1
DA:73,5
DA:75,5
DA:76,5
DA:77,0
DA:78,0
DA:79,0
DA:80,0
DA:81,0
DA:83,5
DA:84,5
DA:86,4
DA:88,4
DA:89,9
DA:98,3
DA:99,3
DA:100,3
DA:101,3
DA:102,3
DA:104,3
DA:105,3
DA:107,3
DA:109,3
DA:110,0
DA:111,0
DA:112,0
DA:113,0
DA:114,0
DA:115,3
DA:116,0
DA:117,0
DA:118,0
DA:119,0
DA:120,0
DA:121,3
DA:122,0
DA:123,0
DA:124,0
DA:125,0
DA:126,0
DA:128,3
DA:129,3
DA:138,2
DA:140,2
DA:141,2
DA:144,2
DA:145,2
DA:146,2
DA:149,1
DA:150,1
DA:151,1
DA:152,1
DA:153,1
DA:154,1
DA:156,1
DA:157,1
DA:158,1
DA:161,1
DA:162,1
DA:163,1
DA:164,1
DA:165,1
DA:167,1
DA:168,1
DA:169,1
DA:172,1
DA:174,1
DA:175,1
DA:176,1
DA:177,1
DA:178,1
DA:179,1
DA:180,1
DA:181,1
DA:182,1
DA:185,1
DA:186,1
DA:187,1
DA:188,1
DA:189,1
DA:190,1
DA:193,1
DA:195,1
DA:196,1
DA:197,1
DA:198,1
DA:199,1
DA:200,1
DA:201,1
DA:202,1
DA:203,1
DA:204,1
DA:205,1
DA:208,1
DA:210,1
DA:211,1
DA:212,1
DA:213,1
DA:214,1
DA:216,1
DA:217,1
DA:218,1
DA:219,1
DA:222,1
DA:224,1
DA:225,1
DA:226,1
DA:228,1
DA:230,1
DA:231,1
DA:233,1
DA:234,1
DA:235,1
DA:236,1
DA:237,1
DA:240,1
DA:241,1
DA:242,1
DA:243,1
DA:244,1
DA:245,1
DA:246,1
DA:247,1
DA:248,1
DA:249,1
DA:250,1
DA:251,1
DA:254,1
DA:255,1
DA:256,1
DA:257,1
DA:258,1
DA:260,1
DA:261,1
DA:262,1
DA:263,1
DA:264,1
DA:265,1
DA:266,1
DA:267,1
DA:270,1
DA:272,1
DA:273,1
DA:274,1
DA:275,1
DA:276,1
DA:279,1
DA:280,1
DA:282,1
DA:284,1
DA:285,1
DA:286,1
DA:287,1
DA:288,1
BRF:0
BRH:0
LF:234
LH:194
end_of_record
SF:/home/irahardianto/works/projects/pathfinder/crates/pathfinder-lsp/src/mock.rs
FN:163,_RNvMNtCscBgZELoTFF0_14pathfinder_lsp4mockNtB2_10MockLawyer18set_did_open_error
FN:225,_RNvMNtCscBgZELoTFF0_14pathfinder_lsp4mockNtB2_10MockLawyer19did_open_call_count
FN:243,_RNvMNtCscBgZELoTFF0_14pathfinder_lsp4mockNtB2_10MockLawyer20did_close_call_count
FN:234,_RNvMNtCscBgZELoTFF0_14pathfinder_lsp4mockNtB2_10MockLawyer21did_change_call_count
FN:151,_RNvMNtCscBgZELoTFF0_14pathfinder_lsp4mockNtB2_10MockLawyer21goto_definition_calls
FN:208,_RNvMNtCscBgZELoTFF0_14pathfinder_lsp4mockNtB2_10MockLawyer25push_incoming_call_result
FN:216,_RNvMNtCscBgZELoTFF0_14pathfinder_lsp4mockNtB2_10MockLawyer25push_outgoing_call_result
FN:142,_RNvMNtCscBgZELoTFF0_14pathfinder_lsp4mockNtB2_10MockLawyer26goto_definition_call_count
FN:132,_RNvMNtCscBgZELoTFF0_14pathfinder_lsp4mockNtB2_10MockLawyer26set_goto_definition_result
FN:252,_RNvMNtCscBgZELoTFF0_14pathfinder_lsp4mockNtB2_10MockLawyer26watched_file_changes_count
FN:262,_RNvMNtCscBgZELoTFF0_14pathfinder_lsp4mockNtB2_10MockLawyer27set_range_formatting_result
FN:176,_RNvMNtCscBgZELoTFF0_14pathfinder_lsp4mockNtB2_10MockLawyer28push_pull_diagnostics_result
FN:197,_RNvMNtCscBgZELoTFF0_14pathfinder_lsp4mockNtB2_10MockLawyer34push_prepare_call_hierarchy_result
FN:184,_RNvMNtCscBgZELoTFF0_14pathfinder_lsp4mockNtB2_10MockLawyer38push_pull_workspace_diagnostics_result
FN:360,_RNvXs1_NtCscBgZELoTFF0_14pathfinder_lsp4mockNtB5_10MockLawyerNtNtB7_6lawyer6Lawyer10did_change
FN:279,_RNvXs1_NtCscBgZELoTFF0_14pathfinder_lsp4mockNtB5_10MockLawyerNtNtB7_6lawyer6Lawyer15goto_definition
FN:384,_RNvXs1_NtCscBgZELoTFF0_14pathfinder_lsp4mockNtB5_10MockLawyerNtNtB7_6lawyer6Lawyer16pull_diagnostics
FN:404,_RNvXs1_NtCscBgZELoTFF0_14pathfinder_lsp4mockNtB5_10MockLawyerNtNtB7_6lawyer6Lawyer16range_formatting
FN:422,_RNvXs1_NtCscBgZELoTFF0_14pathfinder_lsp4mockNtB5_10MockLawyerNtNtB7_6lawyer6Lawyer17capability_status
FN:309,_RNvXs1_NtCscBgZELoTFF0_14pathfinder_lsp4mockNtB5_10MockLawyerNtNtB7_6lawyer6Lawyer22call_hierarchy_prepare
FN:317,_RNvXs1_NtCscBgZELoTFF0_14pathfinder_lsp4mockNtB5_10MockLawyerNtNtB7_6lawyer6Lawyer23call_hierarchy_incoming
FN:325,_RNvXs1_NtCscBgZELoTFF0_14pathfinder_lsp4mockNtB5_10MockLawyerNtNtB7_6lawyer6Lawyer23call_hierarchy_outgoing
FN:426,_RNvXs1_NtCscBgZELoTFF0_14pathfinder_lsp4mockNtB5_10MockLawyerNtNtB7_6lawyer6Lawyer24did_change_watched_files
FN:392,_RNvXs1_NtCscBgZELoTFF0_14pathfinder_lsp4mockNtB5_10MockLawyerNtNtB7_6lawyer6Lawyer26pull_workspace_diagnostics
FN:334,_RNvXs1_NtCscBgZELoTFF0_14pathfinder_lsp4mockNtB5_10MockLawyerNtNtB7_6lawyer6Lawyer8did_open
FN:372,_RNvXs1_NtCscBgZELoTFF0_14pathfinder_lsp4mockNtB5_10MockLawyerNtNtB7_6lawyer6Lawyer9did_close
FN:114,_RINvMNtCscBgZELoTFF0_14pathfinder_lsp4mockNtB3_10MockLawyer17pop_queued_resultINtNtCslNYArtu3iFV_5alloc3vec3VecNtNtB5_5types13LspDiagnosticEEB5_
FN:114,_RINvMNtCscBgZELoTFF0_14pathfinder_lsp4mockNtB3_10MockLawyer17pop_queued_resultINtNtCslNYArtu3iFV_5alloc3vec3VecNtNtB5_5types17CallHierarchyCallEEB5_
FN:114,_RINvMNtCscBgZELoTFF0_14pathfinder_lsp4mockNtB3_10MockLawyer17pop_queued_resultINtNtCslNYArtu3iFV_5alloc3vec3VecNtNtB5_5types17CallHierarchyItemEEB5_
FN:385,_RNCNCNvXs1_NtCscBgZELoTFF0_14pathfinder_lsp4mockNtB9_10MockLawyerNtNtBb_6lawyer6Lawyer16pull_diagnostics00Bb_
FN:310,_RNCNCNvXs1_NtCscBgZELoTFF0_14pathfinder_lsp4mockNtB9_10MockLawyerNtNtBb_6lawyer6Lawyer22call_hierarchy_prepare00Bb_
FN:318,_RNCNCNvXs1_NtCscBgZELoTFF0_14pathfinder_lsp4mockNtB9_10MockLawyerNtNtBb_6lawyer6Lawyer23call_hierarchy_incoming00Bb_
FN:326,_RNCNCNvXs1_NtCscBgZELoTFF0_14pathfinder_lsp4mockNtB9_10MockLawyerNtNtBb_6lawyer6Lawyer23call_hierarchy_outgoing00Bb_
FN:394,_RNCNCNvXs1_NtCscBgZELoTFF0_14pathfinder_lsp4mockNtB9_10MockLawyerNtNtBb_6lawyer6Lawyer26pull_workspace_diagnostics00Bb_
FN:225,_RNvMNtCs4F9smGagOs0_14pathfinder_lsp4mockNtB2_10MockLawyer19did_open_call_count
FN:243,_RNvMNtCs4F9smGagOs0_14pathfinder_lsp4mockNtB2_10MockLawyer20did_close_call_count
FN:234,_RNvMNtCs4F9smGagOs0_14pathfinder_lsp4mockNtB2_10MockLawyer21did_change_call_count
FN:151,_RNvMNtCs4F9smGagOs0_14pathfinder_lsp4mockNtB2_10MockLawyer21goto_definition_calls
FN:142,_RNvMNtCs4F9smGagOs0_14pathfinder_lsp4mockNtB2_10MockLawyer26goto_definition_call_count
FN:132,_RNvMNtCs4F9smGagOs0_14pathfinder_lsp4mockNtB2_10MockLawyer26set_goto_definition_result
FN:252,_RNvMNtCs4F9smGagOs0_14pathfinder_lsp4mockNtB2_10MockLawyer26watched_file_changes_count
FN:262,_RNvMNtCs4F9smGagOs0_14pathfinder_lsp4mockNtB2_10MockLawyer27set_range_formatting_result
FN:176,_RNvMNtCs4F9smGagOs0_14pathfinder_lsp4mockNtB2_10MockLawyer28push_pull_diagnostics_result
FN:184,_RNvMNtCs4F9smGagOs0_14pathfinder_lsp4mockNtB2_10MockLawyer38push_pull_workspace_diagnostics_result
FN:360,_RNvXs1_NtCs4F9smGagOs0_14pathfinder_lsp4mockNtB5_10MockLawyerNtNtB7_6lawyer6Lawyer10did_change
FN:279,_RNvXs1_NtCs4F9smGagOs0_14pathfinder_lsp4mockNtB5_10MockLawyerNtNtB7_6lawyer6Lawyer15goto_definition
FN:384,_RNvXs1_NtCs4F9smGagOs0_14pathfinder_lsp4mockNtB5_10MockLawyerNtNtB7_6lawyer6Lawyer16pull_diagnostics
FN:404,_RNvXs1_NtCs4F9smGagOs0_14pathfinder_lsp4mockNtB5_10MockLawyerNtNtB7_6lawyer6Lawyer16range_formatting
FN:426,_RNvXs1_NtCs4F9smGagOs0_14pathfinder_lsp4mockNtB5_10MockLawyerNtNtB7_6lawyer6Lawyer24did_change_watched_files
FN:392,_RNvXs1_NtCs4F9smGagOs0_14pathfinder_lsp4mockNtB5_10MockLawyerNtNtB7_6lawyer6Lawyer26pull_workspace_diagnostics
FN:334,_RNvXs1_NtCs4F9smGagOs0_14pathfinder_lsp4mockNtB5_10MockLawyerNtNtB7_6lawyer6Lawyer8did_open
FN:372,_RNvXs1_NtCs4F9smGagOs0_14pathfinder_lsp4mockNtB5_10MockLawyerNtNtB7_6lawyer6Lawyer9did_close
FN:475,_RNCNvNtNtCs4F9smGagOs0_14pathfinder_lsp4mock5testss_23test_mock_records_calls0B7_
FN:450,_RNCNvNtNtCs4F9smGagOs0_14pathfinder_lsp4mock5testss_26test_mock_defaults_to_none0B7_
FN:495,_RNCNvNtNtCs4F9smGagOs0_14pathfinder_lsp4mock5testss_32test_mock_did_open_records_calls0B7_
FN:518,_RNCNvNtNtCs4F9smGagOs0_14pathfinder_lsp4mock5testss_33test_mock_did_close_records_calls0B7_
FN:507,_RNCNvNtNtCs4F9smGagOs0_14pathfinder_lsp4mock5testss_34test_mock_did_change_records_calls0B7_
FN:457,_RNCNvNtNtCs4F9smGagOs0_14pathfinder_lsp4mock5testss_39test_mock_returns_configured_definition0B7_
FN:487,_RNCNvNtNtCs4F9smGagOs0_14pathfinder_lsp4mock5testss_39test_mock_returns_error_when_configured0B7_
FN:595,_RNCNvNtNtCs4F9smGagOs0_14pathfinder_lsp4mock5testss_43test_mock_range_formatting_defaults_to_none0B7_
FN:543,_RNCNvNtNtCs4F9smGagOs0_14pathfinder_lsp4mock5testss_45test_mock_pull_diagnostics_returns_configured0B7_
FN:605,_RNCNvNtNtCs4F9smGagOs0_14pathfinder_lsp4mock5testss_45test_mock_range_formatting_returns_configured0B7_
FN:616,_RNCNvNtNtCs4F9smGagOs0_14pathfinder_lsp4mock5testss_48test_mock_did_change_watched_files_records_calls0B7_
FN:529,_RNCNvNtNtCs4F9smGagOs0_14pathfinder_lsp4mock5testss_52test_mock_pull_diagnostics_empty_queue_returns_empty0B7_
FN:574,_RNCNvNtNtCs4F9smGagOs0_14pathfinder_lsp4mock5testss_55test_mock_pull_workspace_diagnostics_returns_configured0B7_
FN:564,_RNCNvNtNtCs4F9smGagOs0_14pathfinder_lsp4mock5testss_62test_mock_pull_workspace_diagnostics_empty_queue_returns_empty0B7_
FN:114,_RINvMNtCs4F9smGagOs0_14pathfinder_lsp4mockNtB3_10MockLawyer17pop_queued_resultINtNtCslNYArtu3iFV_5alloc3vec3VecNtNtB5_5types13LspDiagnosticEEB5_
FN:385,_RNCNCNvXs1_NtCs4F9smGagOs0_14pathfinder_lsp4mockNtB9_10MockLawyerNtNtBb_6lawyer6Lawyer16pull_diagnostics00Bb_
FN:394,_RNCNCNvXs1_NtCs4F9smGagOs0_14pathfinder_lsp4mockNtB9_10MockLawyerNtNtBb_6lawyer6Lawyer26pull_workspace_diagnostics00Bb_
FN:445,_RNvNtNtCs4F9smGagOs0_14pathfinder_lsp4mock5tests4file
FN:441,_RNvNtNtCs4F9smGagOs0_14pathfinder_lsp4mock5tests9workspace
FN:475,_RNvNtNtCs4F9smGagOs0_14pathfinder_lsp4mock5testss_23test_mock_records_calls
FN:450,_RNvNtNtCs4F9smGagOs0_14pathfinder_lsp4mock5testss_26test_mock_defaults_to_none
FN:495,_RNvNtNtCs4F9smGagOs0_14pathfinder_lsp4mock5testss_32test_mock_did_open_records_calls
FN:518,_RNvNtNtCs4F9smGagOs0_14pathfinder_lsp4mock5testss_33test_mock_did_close_records_calls
FN:507,_RNvNtNtCs4F9smGagOs0_14pathfinder_lsp4mock5testss_34test_mock_did_change_records_calls
FN:457,_RNvNtNtCs4F9smGagOs0_14pathfinder_lsp4mock5testss_39test_mock_returns_configured_definition
FN:487,_RNvNtNtCs4F9smGagOs0_14pathfinder_lsp4mock5testss_39test_mock_returns_error_when_configured
FN:595,_RNvNtNtCs4F9smGagOs0_14pathfinder_lsp4mock5testss_43test_mock_range_formatting_defaults_to_none
FN:543,_RNvNtNtCs4F9smGagOs0_14pathfinder_lsp4mock5testss_45test_mock_pull_diagnostics_returns_configured
FN:605,_RNvNtNtCs4F9smGagOs0_14pathfinder_lsp4mock5testss_45test_mock_range_formatting_returns_configured
FN:616,_RNvNtNtCs4F9smGagOs0_14pathfinder_lsp4mock5testss_48test_mock_did_change_watched_files_records_calls
FN:529,_RNvNtNtCs4F9smGagOs0_14pathfinder_lsp4mock5testss_52test_mock_pull_diagnostics_empty_queue_returns_empty
FN:574,_RNvNtNtCs4F9smGagOs0_14pathfinder_lsp4mock5testss_55test_mock_pull_workspace_diagnostics_returns_configured
FN:564,_RNvNtNtCs4F9smGagOs0_14pathfinder_lsp4mock5testss_62test_mock_pull_workspace_diagnostics_empty_queue_returns_empty
FN:310,_RNCNCNvXs1_NtCs4F9smGagOs0_14pathfinder_lsp4mockNtB9_10MockLawyerNtNtBb_6lawyer6Lawyer22call_hierarchy_prepare00Bb_
FN:318,_RNCNCNvXs1_NtCs4F9smGagOs0_14pathfinder_lsp4mockNtB9_10MockLawyerNtNtBb_6lawyer6Lawyer23call_hierarchy_incoming00Bb_
FN:326,_RNCNCNvXs1_NtCs4F9smGagOs0_14pathfinder_lsp4mockNtB9_10MockLawyerNtNtBb_6lawyer6Lawyer23call_hierarchy_outgoing00Bb_
FN:163,_RNvMNtCs4F9smGagOs0_14pathfinder_lsp4mockNtB2_10MockLawyer18set_did_open_error
FN:208,_RNvMNtCs4F9smGagOs0_14pathfinder_lsp4mockNtB2_10MockLawyer25push_incoming_call_result
FN:216,_RNvMNtCs4F9smGagOs0_14pathfinder_lsp4mockNtB2_10MockLawyer25push_outgoing_call_result
FN:197,_RNvMNtCs4F9smGagOs0_14pathfinder_lsp4mockNtB2_10MockLawyer34push_prepare_call_hierarchy_result
FN:422,_RNvXs1_NtCs4F9smGagOs0_14pathfinder_lsp4mockNtB5_10MockLawyerNtNtB7_6lawyer6Lawyer17capability_status
FN:309,_RNvXs1_NtCs4F9smGagOs0_14pathfinder_lsp4mockNtB5_10MockLawyerNtNtB7_6lawyer6Lawyer22call_hierarchy_prepare
FN:317,_RNvXs1_NtCs4F9smGagOs0_14pathfinder_lsp4mockNtB5_10MockLawyerNtNtB7_6lawyer6Lawyer23call_hierarchy_incoming
FN:325,_RNvXs1_NtCs4F9smGagOs0_14pathfinder_lsp4mockNtB5_10MockLawyerNtNtB7_6lawyer6Lawyer23call_hierarchy_outgoing
FNDA:4,_RNvMNtCscBgZELoTFF0_14pathfinder_lsp4mockNtB2_10MockLawyer18set_did_open_error
FNDA:0,_RNvMNtCscBgZELoTFF0_14pathfinder_lsp4mockNtB2_10MockLawyer19did_open_call_count
FNDA:0,_RNvMNtCscBgZELoTFF0_14pathfinder_lsp4mockNtB2_10MockLawyer20did_close_call_count
FNDA:0,_RNvMNtCscBgZELoTFF0_14pathfinder_lsp4mockNtB2_10MockLawyer21did_change_call_count
FNDA:0,_RNvMNtCscBgZELoTFF0_14pathfinder_lsp4mockNtB2_10MockLawyer21goto_definition_calls
FNDA:6,_RNvMNtCscBgZELoTFF0_14pathfinder_lsp4mockNtB2_10MockLawyer25push_incoming_call_result
FNDA:8,_RNvMNtCscBgZELoTFF0_14pathfinder_lsp4mockNtB2_10MockLawyer25push_outgoing_call_result
FNDA:2,_RNvMNtCscBgZELoTFF0_14pathfinder_lsp4mockNtB2_10MockLawyer26goto_definition_call_count
FNDA:4,_RNvMNtCscBgZELoTFF0_14pathfinder_lsp4mockNtB2_10MockLawyer26set_goto_definition_result
FNDA:6,_RNvMNtCscBgZELoTFF0_14pathfinder_lsp4mockNtB2_10MockLawyer26watched_file_changes_count
FNDA:0,_RNvMNtCscBgZELoTFF0_14pathfinder_lsp4mockNtB2_10MockLawyer27set_range_formatting_result
FNDA:22,_RNvMNtCscBgZELoTFF0_14pathfinder_lsp4mockNtB2_10MockLawyer28push_pull_diagnostics_result
FNDA:14,_RNvMNtCscBgZELoTFF0_14pathfinder_lsp4mockNtB2_10MockLawyer34push_prepare_call_hierarchy_result
FNDA:4,_RNvMNtCscBgZELoTFF0_14pathfinder_lsp4mockNtB2_10MockLawyer38push_pull_workspace_diagnostics_result
FNDA:20,_RNvXs1_NtCscBgZELoTFF0_14pathfinder_lsp4mockNtB5_10MockLawyerNtNtB7_6lawyer6Lawyer10did_change
FNDA:6,_RNvXs1_NtCscBgZELoTFF0_14pathfinder_lsp4mockNtB5_10MockLawyerNtNtB7_6lawyer6Lawyer15goto_definition
FNDA:22,_RNvXs1_NtCscBgZELoTFF0_14pathfinder_lsp4mockNtB5_10MockLawyerNtNtB7_6lawyer6Lawyer16pull_diagnostics
FNDA:0,_RNvXs1_NtCscBgZELoTFF0_14pathfinder_lsp4mockNtB5_10MockLawyerNtNtB7_6lawyer6Lawyer16range_formatting
FNDA:0,_RNvXs1_NtCscBgZELoTFF0_14pathfinder_lsp4mockNtB5_10MockLawyerNtNtB7_6lawyer6Lawyer17capability_status
FNDA:14,_RNvXs1_NtCscBgZELoTFF0_14pathfinder_lsp4mockNtB5_10MockLawyerNtNtB7_6lawyer6Lawyer22call_hierarchy_prepare
FNDA:4,_RNvXs1_NtCscBgZELoTFF0_14pathfinder_lsp4mockNtB5_10MockLawyerNtNtB7_6lawyer6Lawyer23call_hierarchy_incoming
FNDA:8,_RNvXs1_NtCscBgZELoTFF0_14pathfinder_lsp4mockNtB5_10MockLawyerNtNtB7_6lawyer6Lawyer23call_hierarchy_outgoing
FNDA:18,_RNvXs1_NtCscBgZELoTFF0_14pathfinder_lsp4mockNtB5_10MockLawyerNtNtB7_6lawyer6Lawyer24did_change_watched_files
FNDA:18,_RNvXs1_NtCscBgZELoTFF0_14pathfinder_lsp4mockNtB5_10MockLawyerNtNtB7_6lawyer6Lawyer26pull_workspace_diagnostics
FNDA:16,_RNvXs1_NtCscBgZELoTFF0_14pathfinder_lsp4mockNtB5_10MockLawyerNtNtB7_6lawyer6Lawyer8did_open
FNDA:14,_RNvXs1_NtCscBgZELoTFF0_14pathfinder_lsp4mockNtB5_10MockLawyerNtNtB7_6lawyer6Lawyer9did_close
FNDA:40,_RINvMNtCscBgZELoTFF0_14pathfinder_lsp4mockNtB3_10MockLawyer17pop_queued_resultINtNtCslNYArtu3iFV_5alloc3vec3VecNtNtB5_5types13LspDiagnosticEEB5_
FNDA:12,_RINvMNtCscBgZELoTFF0_14pathfinder_lsp4mockNtB3_10MockLawyer17pop_queued_resultINtNtCslNYArtu3iFV_5alloc3vec3VecNtNtB5_5types17CallHierarchyCallEEB5_
FNDA:14,_RINvMNtCscBgZELoTFF0_14pathfinder_lsp4mockNtB3_10MockLawyer17pop_queued_resultINtNtCslNYArtu3iFV_5alloc3vec3VecNtNtB5_5types17CallHierarchyItemEEB5_
FNDA:0,_RNCNCNvXs1_NtCscBgZELoTFF0_14pathfinder_lsp4mockNtB9_10MockLawyerNtNtBb_6lawyer6Lawyer16pull_diagnostics00Bb_
FNDA:0,_RNCNCNvXs1_NtCscBgZELoTFF0_14pathfinder_lsp4mockNtB9_10MockLawyerNtNtBb_6lawyer6Lawyer22call_hierarchy_prepare00Bb_
FNDA:0,_RNCNCNvXs1_NtCscBgZELoTFF0_14pathfinder_lsp4mockNtB9_10MockLawyerNtNtBb_6lawyer6Lawyer23call_hierarchy_incoming00Bb_
FNDA:0,_RNCNCNvXs1_NtCscBgZELoTFF0_14pathfinder_lsp4mockNtB9_10MockLawyerNtNtBb_6lawyer6Lawyer23call_hierarchy_outgoing00Bb_
FNDA:14,_RNCNCNvXs1_NtCscBgZELoTFF0_14pathfinder_lsp4mockNtB9_10MockLawyerNtNtBb_6lawyer6Lawyer26pull_workspace_diagnostics00Bb_
FNDA:1,_RNvMNtCs4F9smGagOs0_14pathfinder_lsp4mockNtB2_10MockLawyer19did_open_call_count
FNDA:1,_RNvMNtCs4F9smGagOs0_14pathfinder_lsp4mockNtB2_10MockLawyer20did_close_call_count
FNDA:1,_RNvMNtCs4F9smGagOs0_14pathfinder_lsp4mockNtB2_10MockLawyer21did_change_call_count
FNDA:1,_RNvMNtCs4F9smGagOs0_14pathfinder_lsp4mockNtB2_10MockLawyer21goto_definition_calls
FNDA:1,_RNvMNtCs4F9smGagOs0_14pathfinder_lsp4mockNtB2_10MockLawyer26goto_definition_call_count
FNDA:2,_RNvMNtCs4F9smGagOs0_14pathfinder_lsp4mockNtB2_10MockLawyer26set_goto_definition_result
FNDA:1,_RNvMNtCs4F9smGagOs0_14pathfinder_lsp4mockNtB2_10MockLawyer26watched_file_changes_count
FNDA:1,_RNvMNtCs4F9smGagOs0_14pathfinder_lsp4mockNtB2_10MockLawyer27set_range_formatting_result
FNDA:1,_RNvMNtCs4F9smGagOs0_14pathfinder_lsp4mockNtB2_10MockLawyer28push_pull_diagnostics_result
FNDA:1,_RNvMNtCs4F9smGagOs0_14pathfinder_lsp4mockNtB2_10MockLawyer38push_pull_workspace_diagnostics_result
FNDA:1,_RNvXs1_NtCs4F9smGagOs0_14pathfinder_lsp4mockNtB5_10MockLawyerNtNtB7_6lawyer6Lawyer10did_change
FNDA:5,_RNvXs1_NtCs4F9smGagOs0_14pathfinder_lsp4mockNtB5_10MockLawyerNtNtB7_6lawyer6Lawyer15goto_definition
FNDA:2,_RNvXs1_NtCs4F9smGagOs0_14pathfinder_lsp4mockNtB5_10MockLawyerNtNtB7_6lawyer6Lawyer16pull_diagnostics
FNDA:2,_RNvXs1_NtCs4F9smGagOs0_14pathfinder_lsp4mockNtB5_10MockLawyerNtNtB7_6lawyer6Lawyer16range_formatting
FNDA:1,_RNvXs1_NtCs4F9smGagOs0_14pathfinder_lsp4mockNtB5_10MockLawyerNtNtB7_6lawyer6Lawyer24did_change_watched_files
FNDA:2,_RNvXs1_NtCs4F9smGagOs0_14pathfinder_lsp4mockNtB5_10MockLawyerNtNtB7_6lawyer6Lawyer26pull_workspace_diagnostics
FNDA:1,_RNvXs1_NtCs4F9smGagOs0_14pathfinder_lsp4mockNtB5_10MockLawyerNtNtB7_6lawyer6Lawyer8did_open
FNDA:1,_RNvXs1_NtCs4F9smGagOs0_14pathfinder_lsp4mockNtB5_10MockLawyerNtNtB7_6lawyer6Lawyer9did_close
FNDA:1,_RNCNvNtNtCs4F9smGagOs0_14pathfinder_lsp4mock5testss_23test_mock_records_calls0B7_
FNDA:1,_RNCNvNtNtCs4F9smGagOs0_14pathfinder_lsp4mock5testss_26test_mock_defaults_to_none0B7_
FNDA:1,_RNCNvNtNtCs4F9smGagOs0_14pathfinder_lsp4mock5testss_32test_mock_did_open_records_calls0B7_
FNDA:1,_RNCNvNtNtCs4F9smGagOs0_14pathfinder_lsp4mock5testss_33test_mock_did_close_records_calls0B7_
FNDA:1,_RNCNvNtNtCs4F9smGagOs0_14pathfinder_lsp4mock5testss_34test_mock_did_change_records_calls0B7_
FNDA:1,_RNCNvNtNtCs4F9smGagOs0_14pathfinder_lsp4mock5testss_39test_mock_returns_configured_definition0B7_
FNDA:1,_RNCNvNtNtCs4F9smGagOs0_14pathfinder_lsp4mock5testss_39test_mock_returns_error_when_configured0B7_
FNDA:1,_RNCNvNtNtCs4F9smGagOs0_14pathfinder_lsp4mock5testss_43test_mock_range_formatting_defaults_to_none0B7_
FNDA:1,_RNCNvNtNtCs4F9smGagOs0_14pathfinder_lsp4mock5testss_45test_mock_pull_diagnostics_returns_configured0B7_
FNDA:1,_RNCNvNtNtCs4F9smGagOs0_14pathfinder_lsp4mock5testss_45test_mock_range_formatting_returns_configured0B7_
FNDA:1,_RNCNvNtNtCs4F9smGagOs0_14pathfinder_lsp4mock5testss_48test_mock_did_change_watched_files_records_calls0B7_
FNDA:1,_RNCNvNtNtCs4F9smGagOs0_14pathfinder_lsp4mock5testss_52test_mock_pull_diagnostics_empty_queue_returns_empty0B7_
FNDA:1,_RNCNvNtNtCs4F9smGagOs0_14pathfinder_lsp4mock5testss_55test_mock_pull_workspace_diagnostics_returns_configured0B7_
FNDA:1,_RNCNvNtNtCs4F9smGagOs0_14pathfinder_lsp4mock5testss_62test_mock_pull_workspace_diagnostics_empty_queue_returns_empty0B7_
FNDA:4,_RINvMNtCs4F9smGagOs0_14pathfinder_lsp4mockNtB3_10MockLawyer17pop_queued_resultINtNtCslNYArtu3iFV_5alloc3vec3VecNtNtB5_5types13LspDiagnosticEEB5_
FNDA:1,_RNCNCNvXs1_NtCs4F9smGagOs0_14pathfinder_lsp4mockNtB9_10MockLawyerNtNtBb_6lawyer6Lawyer16pull_diagnostics00Bb_
FNDA:1,_RNCNCNvXs1_NtCs4F9smGagOs0_14pathfinder_lsp4mockNtB9_10MockLawyerNtNtBb_6lawyer6Lawyer26pull_workspace_diagnostics00Bb_
FNDA:14,_RNvNtNtCs4F9smGagOs0_14pathfinder_lsp4mock5tests4file
FNDA:14,_RNvNtNtCs4F9smGagOs0_14pathfinder_lsp4mock5tests9workspace
FNDA:1,_RNvNtNtCs4F9smGagOs0_14pathfinder_lsp4mock5testss_23test_mock_records_calls
FNDA:1,_RNvNtNtCs4F9smGagOs0_14pathfinder_lsp4mock5testss_26test_mock_defaults_to_none
FNDA:1,_RNvNtNtCs4F9smGagOs0_14pathfinder_lsp4mock5testss_32test_mock_did_open_records_calls
FNDA:1,_RNvNtNtCs4F9smGagOs0_14pathfinder_lsp4mock5testss_33test_mock_did_close_records_calls
FNDA:1,_RNvNtNtCs4F9smGagOs0_14pathfinder_lsp4mock5testss_34test_mock_did_change_records_calls
FNDA:1,_RNvNtNtCs4F9smGagOs0_14pathfinder_lsp4mock5testss_39test_mock_returns_configured_definition
FNDA:1,_RNvNtNtCs4F9smGagOs0_14pathfinder_lsp4mock5testss_39test_mock_returns_error_when_configured
FNDA:1,_RNvNtNtCs4F9smGagOs0_14pathfinder_lsp4mock5testss_43test_mock_range_formatting_defaults_to_none
FNDA:1,_RNvNtNtCs4F9smGagOs0_14pathfinder_lsp4mock5testss_45test_mock_pull_diagnostics_returns_configured
FNDA:1,_RNvNtNtCs4F9smGagOs0_14pathfinder_lsp4mock5testss_45test_mock_range_formatting_returns_configured
FNDA:1,_RNvNtNtCs4F9smGagOs0_14pathfinder_lsp4mock5testss_48test_mock_did_change_watched_files_records_calls
FNDA:1,_RNvNtNtCs4F9smGagOs0_14pathfinder_lsp4mock5testss_52test_mock_pull_diagnostics_empty_queue_returns_empty
FNDA:1,_RNvNtNtCs4F9smGagOs0_14pathfinder_lsp4mock5testss_55test_mock_pull_workspace_diagnostics_returns_configured
FNDA:1,_RNvNtNtCs4F9smGagOs0_14pathfinder_lsp4mock5testss_62test_mock_pull_workspace_diagnostics_empty_queue_returns_empty
FNDA:0,_RNCNCNvXs1_NtCs4F9smGagOs0_14pathfinder_lsp4mockNtB9_10MockLawyerNtNtBb_6lawyer6Lawyer22call_hierarchy_prepare00Bb_
FNDA:0,_RNCNCNvXs1_NtCs4F9smGagOs0_14pathfinder_lsp4mockNtB9_10MockLawyerNtNtBb_6lawyer6Lawyer23call_hierarchy_incoming00Bb_
FNDA:0,_RNCNCNvXs1_NtCs4F9smGagOs0_14pathfinder_lsp4mockNtB9_10MockLawyerNtNtBb_6lawyer6Lawyer23call_hierarchy_outgoing00Bb_
FNDA:0,_RNvMNtCs4F9smGagOs0_14pathfinder_lsp4mockNtB2_10MockLawyer18set_did_open_error
FNDA:0,_RNvMNtCs4F9smGagOs0_14pathfinder_lsp4mockNtB2_10MockLawyer25push_incoming_call_result
FNDA:0,_RNvMNtCs4F9smGagOs0_14pathfinder_lsp4mockNtB2_10MockLawyer25push_outgoing_call_result
FNDA:0,_RNvMNtCs4F9smGagOs0_14pathfinder_lsp4mockNtB2_10MockLawyer34push_prepare_call_hierarchy_result
FNDA:0,_RNvXs1_NtCs4F9smGagOs0_14pathfinder_lsp4mockNtB5_10MockLawyerNtNtB7_6lawyer6Lawyer17capability_status
FNDA:0,_RNvXs1_NtCs4F9smGagOs0_14pathfinder_lsp4mockNtB5_10MockLawyerNtNtB7_6lawyer6Lawyer22call_hierarchy_prepare
FNDA:0,_RNvXs1_NtCs4F9smGagOs0_14pathfinder_lsp4mockNtB5_10MockLawyerNtNtB7_6lawyer6Lawyer23call_hierarchy_incoming
FNDA:0,_RNvXs1_NtCs4F9smGagOs0_14pathfinder_lsp4mockNtB5_10MockLawyerNtNtB7_6lawyer6Lawyer23call_hierarchy_outgoing
FNF:62
FNH:58
DA:114,70
DA:115,70
DA:116,70
DA:117,70
DA:118,70
DA:119,70
DA:120,70
DA:121,16
DA:122,54
DA:123,54
DA:124,46
DA:125,8
DA:127,70
DA:132,6
DA:133,6
DA:134,6
DA:135,6
DA:136,6
DA:137,6
DA:138,6
DA:142,3
DA:143,3
DA:144,3
DA:145,3
DA:146,3
DA:147,3
DA:151,1
DA:152,1
DA:153,1
DA:154,1
DA:155,1
DA:156,1
DA:163,4
DA:164,4
DA:165,4
DA:166,4
DA:167,4
DA:168,4
DA:169,4
DA:176,23
DA:177,23
DA:178,23
DA:179,23
DA:180,23
DA:181,23
DA:184,5
DA:185,5
DA:186,5
DA:187,5
DA:188,5
DA:189,5
DA:190,5
DA:191,5
DA:192,5
DA:197,14
DA:198,14
DA:199,14
DA:200,14
DA:201,14
DA:202,14
DA:203,14
DA:204,14
DA:205,14
DA:208,6
DA:209,6
DA:210,6
DA:211,6
DA:212,6
DA:213,6
DA:216,8
DA:217,8
DA:218,8
DA:219,8
DA:220,8
DA:221,8
DA:225,1
DA:226,1
DA:227,1
DA:228,1
DA:229,1
DA:230,1
DA:234,1
DA:235,1
DA:236,1
DA:237,1
DA:238,1
DA:239,1
DA:243,1
DA:244,1
DA:245,1
DA:246,1
DA:247,1
DA:248,1
DA:252,7
DA:253,7
DA:254,7
DA:255,7
DA:256,7
DA:257,7
DA:262,1
DA:263,1
DA:264,1
DA:265,1
DA:266,1
DA:267,1
DA:268,1
DA:279,11
DA:301,11
DA:309,14
DA:310,0
DA:311,14
DA:317,4
DA:318,0
DA:319,4
DA:325,8
DA:326,0
DA:327,8
DA:334,17
DA:352,17
DA:360,21
DA:370,21
DA:372,15
DA:378,15
DA:384,24
DA:385,1
DA:386,24
DA:392,20
DA:394,15
DA:395,20
DA:404,2
DA:418,2
DA:422,0
DA:424,0
DA:426,19
DA:432,19
DA:441,14
DA:442,14
DA:443,14
DA:445,14
DA:446,14
DA:447,14
DA:450,1
DA:451,1
DA:452,1
DA:453,1
DA:454,1
DA:457,1
DA:458,1
DA:459,1
DA:460,1
DA:461,1
DA:462,1
DA:463,1
DA:464,1
DA:465,1
DA:467,1
DA:468,1
DA:469,1
DA:470,1
DA:471,1
DA:472,1
DA:475,1
DA:476,1
DA:477,1
DA:478,1
DA:480,1
DA:481,1
DA:482,1
DA:483,1
DA:484,1
DA:487,1
DA:488,1
DA:489,1
DA:490,1
DA:491,1
DA:492,1
DA:495,1
DA:496,1
DA:497,1
DA:498,1
DA:499,1
DA:500,1
DA:501,1
DA:502,1
DA:503,1
DA:504,1
DA:507,1
DA:508,1
DA:509,1
DA:510,1
DA:511,1
DA:512,1
DA:513,1
DA:514,1
DA:515,1
DA:518,1
DA:519,1
DA:520,1
DA:521,1
DA:522,1
DA:523,1
DA:524,1
DA:525,1
DA:526,1
DA:529,1
DA:530,1
DA:531,1
DA:532,1
DA:533,1
DA:534,1
DA:535,1
DA:536,1
DA:543,1
DA:545,1
DA:546,1
DA:547,1
DA:548,1
DA:549,1
DA:550,1
DA:551,1
DA:552,1
DA:553,1
DA:554,1
DA:555,1
DA:556,1
DA:557,1
DA:558,1
DA:559,1
DA:560,1
DA:561,1
DA:564,1
DA:565,1
DA:566,1
DA:567,1
DA:568,1
DA:569,1
DA:570,1
DA:571,1
DA:574,1
DA:576,1
DA:577,1
DA:578,1
DA:579,1
DA:580,1
DA:581,1
DA:582,1
DA:583,1
DA:584,1
DA:585,1
DA:586,1
DA:587,1
DA:588,1
DA:589,1
DA:590,1
DA:591,1
DA:592,1
DA:595,1
DA:596,1
DA:597,1
DA:598,1
DA:599,1
DA:600,1
DA:601,1
DA:602,1
DA:605,1
DA:606,1
DA:607,1
DA:608,1
DA:609,1
DA:610,1
DA:611,1
DA:612,1
DA:613,1
DA:616,1
DA:618,1
DA:619,1
DA:620,1
DA:621,1
DA:622,1
DA:623,1
DA:624,1
DA:625,1
DA:626,1
DA:627,1
DA:628,1
BRF:0
BRH:0
LF:313
LH:308
end_of_record
SF:/home/irahardianto/works/projects/pathfinder/crates/pathfinder-lsp/src/no_op.rs
FN:78,_RNvXs1_NtCscBgZELoTFF0_14pathfinder_lsp5no_opNtB5_10NoOpLawyerNtNtB7_6lawyer6Lawyer10did_change
FN:33,_RNvXs1_NtCscBgZELoTFF0_14pathfinder_lsp5no_opNtB5_10NoOpLawyerNtNtB7_6lawyer6Lawyer15goto_definition
FN:90,_RNvXs1_NtCscBgZELoTFF0_14pathfinder_lsp5no_opNtB5_10NoOpLawyerNtNtB7_6lawyer6Lawyer16pull_diagnostics
FN:109,_RNvXs1_NtCscBgZELoTFF0_14pathfinder_lsp5no_opNtB5_10NoOpLawyerNtNtB7_6lawyer6Lawyer16range_formatting
FN:115,_RNvXs1_NtCscBgZELoTFF0_14pathfinder_lsp5no_opNtB5_10NoOpLawyerNtNtB7_6lawyer6Lawyer17capability_status
FN:43,_RNvXs1_NtCscBgZELoTFF0_14pathfinder_lsp5no_opNtB5_10NoOpLawyerNtNtB7_6lawyer6Lawyer22call_hierarchy_prepare
FN:51,_RNvXs1_NtCscBgZELoTFF0_14pathfinder_lsp5no_opNtB5_10NoOpLawyerNtNtB7_6lawyer6Lawyer23call_hierarchy_incoming
FN:59,_RNvXs1_NtCscBgZELoTFF0_14pathfinder_lsp5no_opNtB5_10NoOpLawyerNtNtB7_6lawyer6Lawyer23call_hierarchy_outgoing
FN:119,_RNvXs1_NtCscBgZELoTFF0_14pathfinder_lsp5no_opNtB5_10NoOpLawyerNtNtB7_6lawyer6Lawyer24did_change_watched_files
FN:98,_RNvXs1_NtCscBgZELoTFF0_14pathfinder_lsp5no_opNtB5_10NoOpLawyerNtNtB7_6lawyer6Lawyer26pull_workspace_diagnostics
FN:68,_RNvXs1_NtCscBgZELoTFF0_14pathfinder_lsp5no_opNtB5_10NoOpLawyerNtNtB7_6lawyer6Lawyer8did_open
FN:82,_RNvXs1_NtCscBgZELoTFF0_14pathfinder_lsp5no_opNtB5_10NoOpLawyerNtNtB7_6lawyer6Lawyer9did_close
FN:78,_RNvXs1_NtCs4F9smGagOs0_14pathfinder_lsp5no_opNtB5_10NoOpLawyerNtNtB7_6lawyer6Lawyer10did_change
FN:33,_RNvXs1_NtCs4F9smGagOs0_14pathfinder_lsp5no_opNtB5_10NoOpLawyerNtNtB7_6lawyer6Lawyer15goto_definition
FN:90,_RNvXs1_NtCs4F9smGagOs0_14pathfinder_lsp5no_opNtB5_10NoOpLawyerNtNtB7_6lawyer6Lawyer16pull_diagnostics
FN:109,_RNvXs1_NtCs4F9smGagOs0_14pathfinder_lsp5no_opNtB5_10NoOpLawyerNtNtB7_6lawyer6Lawyer16range_formatting
FN:43,_RNvXs1_NtCs4F9smGagOs0_14pathfinder_lsp5no_opNtB5_10NoOpLawyerNtNtB7_6lawyer6Lawyer22call_hierarchy_prepare
FN:51,_RNvXs1_NtCs4F9smGagOs0_14pathfinder_lsp5no_opNtB5_10NoOpLawyerNtNtB7_6lawyer6Lawyer23call_hierarchy_incoming
FN:59,_RNvXs1_NtCs4F9smGagOs0_14pathfinder_lsp5no_opNtB5_10NoOpLawyerNtNtB7_6lawyer6Lawyer23call_hierarchy_outgoing
FN:119,_RNvXs1_NtCs4F9smGagOs0_14pathfinder_lsp5no_opNtB5_10NoOpLawyerNtNtB7_6lawyer6Lawyer24did_change_watched_files
FN:98,_RNvXs1_NtCs4F9smGagOs0_14pathfinder_lsp5no_opNtB5_10NoOpLawyerNtNtB7_6lawyer6Lawyer26pull_workspace_diagnostics
FN:68,_RNvXs1_NtCs4F9smGagOs0_14pathfinder_lsp5no_opNtB5_10NoOpLawyerNtNtB7_6lawyer6Lawyer8did_open
FN:133,_RNvNtNtCs4F9smGagOs0_14pathfinder_lsp5no_op5tests4file
FN:129,_RNvNtNtCs4F9smGagOs0_14pathfinder_lsp5no_op5tests9workspace
FN:186,_RNvNtNtCs4F9smGagOs0_14pathfinder_lsp5no_op5testss_41test_no_op_lawyer_did_open_returns_no_lsp
FN:193,_RNvNtNtCs4F9smGagOs0_14pathfinder_lsp5no_op5testss_43test_no_op_lawyer_did_change_returns_no_lsp
FN:138,_RNvNtNtCs4F9smGagOs0_14pathfinder_lsp5no_op5testss_48test_no_op_lawyer_goto_definition_returns_no_lsp
FN:202,_RNvNtNtCs4F9smGagOs0_14pathfinder_lsp5no_op5testss_49test_no_op_lawyer_pull_diagnostics_returns_no_lsp
FN:218,_RNvNtNtCs4F9smGagOs0_14pathfinder_lsp5no_op5testss_49test_no_op_lawyer_range_formatting_returns_no_lsp
FN:227,_RNvNtNtCs4F9smGagOs0_14pathfinder_lsp5no_op5testss_53test_no_op_lawyer_did_change_watched_files_returns_ok
FN:145,_RNvNtNtCs4F9smGagOs0_14pathfinder_lsp5no_op5testss_55test_no_op_lawyer_call_hierarchy_prepare_returns_no_lsp
FN:154,_RNvNtNtCs4F9smGagOs0_14pathfinder_lsp5no_op5testss_56test_no_op_lawyer_call_hierarchy_incoming_returns_no_lsp
FN:170,_RNvNtNtCs4F9smGagOs0_14pathfinder_lsp5no_op5testss_56test_no_op_lawyer_call_hierarchy_outgoing_returns_no_lsp
FN:209,_RNvNtNtCs4F9smGagOs0_14pathfinder_lsp5no_op5testss_59test_no_op_lawyer_pull_workspace_diagnostics_returns_no_lsp
FN:186,_RNCNvNtNtCs4F9smGagOs0_14pathfinder_lsp5no_op5testss_41test_no_op_lawyer_did_open_returns_no_lsp0B7_
FN:193,_RNCNvNtNtCs4F9smGagOs0_14pathfinder_lsp5no_op5testss_43test_no_op_lawyer_did_change_returns_no_lsp0B7_
FN:138,_RNCNvNtNtCs4F9smGagOs0_14pathfinder_lsp5no_op5testss_48test_no_op_lawyer_goto_definition_returns_no_lsp0B7_
FN:202,_RNCNvNtNtCs4F9smGagOs0_14pathfinder_lsp5no_op5testss_49test_no_op_lawyer_pull_diagnostics_returns_no_lsp0B7_
FN:218,_RNCNvNtNtCs4F9smGagOs0_14pathfinder_lsp5no_op5testss_49test_no_op_lawyer_range_formatting_returns_no_lsp0B7_
FN:227,_RNCNvNtNtCs4F9smGagOs0_14pathfinder_lsp5no_op5testss_53test_no_op_lawyer_did_change_watched_files_returns_ok0B7_
FN:145,_RNCNvNtNtCs4F9smGagOs0_14pathfinder_lsp5no_op5testss_55test_no_op_lawyer_call_hierarchy_prepare_returns_no_lsp0B7_
FN:154,_RNCNvNtNtCs4F9smGagOs0_14pathfinder_lsp5no_op5testss_56test_no_op_lawyer_call_hierarchy_incoming_returns_no_lsp0B7_
FN:170,_RNCNvNtNtCs4F9smGagOs0_14pathfinder_lsp5no_op5testss_56test_no_op_lawyer_call_hierarchy_outgoing_returns_no_lsp0B7_
FN:209,_RNCNvNtNtCs4F9smGagOs0_14pathfinder_lsp5no_op5testss_59test_no_op_lawyer_pull_workspace_diagnostics_returns_no_lsp0B7_
FN:115,_RNvXs1_NtCs4F9smGagOs0_14pathfinder_lsp5no_opNtB5_10NoOpLawyerNtNtB7_6lawyer6Lawyer17capability_status
FN:82,_RNvXs1_NtCs4F9smGagOs0_14pathfinder_lsp5no_opNtB5_10NoOpLawyerNtNtB7_6lawyer6Lawyer9did_close
FNDA:0,_RNvXs1_NtCscBgZELoTFF0_14pathfinder_lsp5no_opNtB5_10NoOpLawyerNtNtB7_6lawyer6Lawyer10did_change
FNDA:6,_RNvXs1_NtCscBgZELoTFF0_14pathfinder_lsp5no_opNtB5_10NoOpLawyerNtNtB7_6lawyer6Lawyer15goto_definition
FNDA:0,_RNvXs1_NtCscBgZELoTFF0_14pathfinder_lsp5no_opNtB5_10NoOpLawyerNtNtB7_6lawyer6Lawyer16pull_diagnostics
FNDA:0,_RNvXs1_NtCscBgZELoTFF0_14pathfinder_lsp5no_opNtB5_10NoOpLawyerNtNtB7_6lawyer6Lawyer16range_formatting
FNDA:4,_RNvXs1_NtCscBgZELoTFF0_14pathfinder_lsp5no_opNtB5_10NoOpLawyerNtNtB7_6lawyer6Lawyer17capability_status
FNDA:4,_RNvXs1_NtCscBgZELoTFF0_14pathfinder_lsp5no_opNtB5_10NoOpLawyerNtNtB7_6lawyer6Lawyer22call_hierarchy_prepare
FNDA:0,_RNvXs1_NtCscBgZELoTFF0_14pathfinder_lsp5no_opNtB5_10NoOpLawyerNtNtB7_6lawyer6Lawyer23call_hierarchy_incoming
FNDA:0,_RNvXs1_NtCscBgZELoTFF0_14pathfinder_lsp5no_opNtB5_10NoOpLawyerNtNtB7_6lawyer6Lawyer23call_hierarchy_outgoing
FNDA:48,_RNvXs1_NtCscBgZELoTFF0_14pathfinder_lsp5no_opNtB5_10NoOpLawyerNtNtB7_6lawyer6Lawyer24did_change_watched_files
FNDA:0,_RNvXs1_NtCscBgZELoTFF0_14pathfinder_lsp5no_opNtB5_10NoOpLawyerNtNtB7_6lawyer6Lawyer26pull_workspace_diagnostics
FNDA:46,_RNvXs1_NtCscBgZELoTFF0_14pathfinder_lsp5no_opNtB5_10NoOpLawyerNtNtB7_6lawyer6Lawyer8did_open
FNDA:0,_RNvXs1_NtCscBgZELoTFF0_14pathfinder_lsp5no_opNtB5_10NoOpLawyerNtNtB7_6lawyer6Lawyer9did_close
FNDA:1,_RNvXs1_NtCs4F9smGagOs0_14pathfinder_lsp5no_opNtB5_10NoOpLawyerNtNtB7_6lawyer6Lawyer10did_change
FNDA:1,_RNvXs1_NtCs4F9smGagOs0_14pathfinder_lsp5no_opNtB5_10NoOpLawyerNtNtB7_6lawyer6Lawyer15goto_definition
FNDA:1,_RNvXs1_NtCs4F9smGagOs0_14pathfinder_lsp5no_opNtB5_10NoOpLawyerNtNtB7_6lawyer6Lawyer16pull_diagnostics
FNDA:1,_RNvXs1_NtCs4F9smGagOs0_14pathfinder_lsp5no_opNtB5_10NoOpLawyerNtNtB7_6lawyer6Lawyer16range_formatting
FNDA:1,_RNvXs1_NtCs4F9smGagOs0_14pathfinder_lsp5no_opNtB5_10NoOpLawyerNtNtB7_6lawyer6Lawyer22call_hierarchy_prepare
FNDA:1,_RNvXs1_NtCs4F9smGagOs0_14pathfinder_lsp5no_opNtB5_10NoOpLawyerNtNtB7_6lawyer6Lawyer23call_hierarchy_incoming
FNDA:1,_RNvXs1_NtCs4F9smGagOs0_14pathfinder_lsp5no_opNtB5_10NoOpLawyerNtNtB7_6lawyer6Lawyer23call_hierarchy_outgoing
FNDA:1,_RNvXs1_NtCs4F9smGagOs0_14pathfinder_lsp5no_opNtB5_10NoOpLawyerNtNtB7_6lawyer6Lawyer24did_change_watched_files
FNDA:1,_RNvXs1_NtCs4F9smGagOs0_14pathfinder_lsp5no_opNtB5_10NoOpLawyerNtNtB7_6lawyer6Lawyer26pull_workspace_diagnostics
FNDA:1,_RNvXs1_NtCs4F9smGagOs0_14pathfinder_lsp5no_opNtB5_10NoOpLawyerNtNtB7_6lawyer6Lawyer8did_open
FNDA:7,_RNvNtNtCs4F9smGagOs0_14pathfinder_lsp5no_op5tests4file
FNDA:9,_RNvNtNtCs4F9smGagOs0_14pathfinder_lsp5no_op5tests9workspace
FNDA:1,_RNvNtNtCs4F9smGagOs0_14pathfinder_lsp5no_op5testss_41test_no_op_lawyer_did_open_returns_no_lsp
FNDA:1,_RNvNtNtCs4F9smGagOs0_14pathfinder_lsp5no_op5testss_43test_no_op_lawyer_did_change_returns_no_lsp
FNDA:1,_RNvNtNtCs4F9smGagOs0_14pathfinder_lsp5no_op5testss_48test_no_op_lawyer_goto_definition_returns_no_lsp
FNDA:1,_RNvNtNtCs4F9smGagOs0_14pathfinder_lsp5no_op5testss_49test_no_op_lawyer_pull_diagnostics_returns_no_lsp
FNDA:1,_RNvNtNtCs4F9smGagOs0_14pathfinder_lsp5no_op5testss_49test_no_op_lawyer_range_formatting_returns_no_lsp
FNDA:1,_RNvNtNtCs4F9smGagOs0_14pathfinder_lsp5no_op5testss_53test_no_op_lawyer_did_change_watched_files_returns_ok
FNDA:1,_RNvNtNtCs4F9smGagOs0_14pathfinder_lsp5no_op5testss_55test_no_op_lawyer_call_hierarchy_prepare_returns_no_lsp
FNDA:1,_RNvNtNtCs4F9smGagOs0_14pathfinder_lsp5no_op5testss_56test_no_op_lawyer_call_hierarchy_incoming_returns_no_lsp
FNDA:1,_RNvNtNtCs4F9smGagOs0_14pathfinder_lsp5no_op5testss_56test_no_op_lawyer_call_hierarchy_outgoing_returns_no_lsp
FNDA:1,_RNvNtNtCs4F9smGagOs0_14pathfinder_lsp5no_op5testss_59test_no_op_lawyer_pull_workspace_diagnostics_returns_no_lsp
FNDA:1,_RNCNvNtNtCs4F9smGagOs0_14pathfinder_lsp5no_op5testss_41test_no_op_lawyer_did_open_returns_no_lsp0B7_
FNDA:1,_RNCNvNtNtCs4F9smGagOs0_14pathfinder_lsp5no_op5testss_43test_no_op_lawyer_did_change_returns_no_lsp0B7_
FNDA:1,_RNCNvNtNtCs4F9smGagOs0_14pathfinder_lsp5no_op5testss_48test_no_op_lawyer_goto_definition_returns_no_lsp0B7_
FNDA:1,_RNCNvNtNtCs4F9smGagOs0_14pathfinder_lsp5no_op5testss_49test_no_op_lawyer_pull_diagnostics_returns_no_lsp0B7_
FNDA:1,_RNCNvNtNtCs4F9smGagOs0_14pathfinder_lsp5no_op5testss_49test_no_op_lawyer_range_formatting_returns_no_lsp0B7_
FNDA:1,_RNCNvNtNtCs4F9smGagOs0_14pathfinder_lsp5no_op5testss_53test_no_op_lawyer_did_change_watched_files_returns_ok0B7_
FNDA:1,_RNCNvNtNtCs4F9smGagOs0_14pathfinder_lsp5no_op5testss_55test_no_op_lawyer_call_hierarchy_prepare_returns_no_lsp0B7_
FNDA:1,_RNCNvNtNtCs4F9smGagOs0_14pathfinder_lsp5no_op5testss_56test_no_op_lawyer_call_hierarchy_incoming_returns_no_lsp0B7_
FNDA:1,_RNCNvNtNtCs4F9smGagOs0_14pathfinder_lsp5no_op5testss_56test_no_op_lawyer_call_hierarchy_outgoing_returns_no_lsp0B7_
FNDA:1,_RNCNvNtNtCs4F9smGagOs0_14pathfinder_lsp5no_op5testss_59test_no_op_lawyer_pull_workspace_diagnostics_returns_no_lsp0B7_
FNDA:0,_RNvXs1_NtCs4F9smGagOs0_14pathfinder_lsp5no_opNtB5_10NoOpLawyerNtNtB7_6lawyer6Lawyer17capability_status
FNDA:0,_RNvXs1_NtCs4F9smGagOs0_14pathfinder_lsp5no_opNtB5_10NoOpLawyerNtNtB7_6lawyer6Lawyer9did_close
FNF:34
FNH:33
DA:33,7
DA:35,7
DA:43,5
DA:45,5
DA:51,1
DA:53,1
DA:59,1
DA:61,1
DA:68,47
DA:70,47
DA:78,1
DA:80,1
DA:82,0
DA:84,0
DA:90,1
DA:92,1
DA:98,1
DA:100,1
DA:109,1
DA:111,1
DA:115,4
DA:117,4
DA:119,49
DA:121,49
DA:129,9
DA:130,9
DA:131,9
DA:133,7
DA:134,7
DA:135,7
DA:138,1
DA:139,1
DA:140,1
DA:141,1
DA:142,1
DA:145,1
DA:146,1
DA:147,1
DA:148,1
DA:149,1
DA:150,1
DA:151,1
DA:154,1
DA:155,1
DA:156,1
DA:157,1
DA:158,1
DA:159,1
DA:160,1
DA:161,1
DA:162,1
DA:163,1
DA:164,1
DA:165,1
DA:166,1
DA:167,1
DA:170,1
DA:171,1
DA:172,1
DA:173,1
DA:174,1
DA:175,1
DA:176,1
DA:177,1
DA:178,1
DA:179,1
DA:180,1
DA:181,1
DA:182,1
DA:183,1
DA:186,1
DA:187,1
DA:188,1
DA:189,1
DA:190,1
DA:193,1
DA:194,1
DA:195,1
DA:196,1
DA:197,1
DA:198,1
DA:199,1
DA:202,1
DA:203,1
DA:204,1
DA:205,1
DA:206,1
DA:209,1
DA:210,1
DA:211,1
DA:212,1
DA:213,1
DA:214,1
DA:215,1
DA:218,1
DA:219,1
DA:220,1
DA:221,1
DA:222,1
DA:223,1
DA:224,1
DA:227,1
DA:228,1
DA:229,1
DA:230,1
DA:231,1
BRF:0
BRH:0
LF:126
LH:124
end_of_record
SF:/home/irahardianto/works/projects/pathfinder/crates/pathfinder-lsp/src/types.rs
FN:96,_RNvMNtCscBgZELoTFF0_14pathfinder_lsp5typesNtB2_13LspDiagnostic8is_error
FN:96,_RNvMNtCs4F9smGagOs0_14pathfinder_lsp5typesNtB2_13LspDiagnostic8is_error
FNDA:12,_RNvMNtCscBgZELoTFF0_14pathfinder_lsp5typesNtB2_13LspDiagnostic8is_error
FNDA:0,_RNvMNtCs4F9smGagOs0_14pathfinder_lsp5typesNtB2_13LspDiagnostic8is_error
FNF:1
FNH:1
DA:96,12
DA:97,12
DA:98,12
BRF:0
BRH:0
LF:3
LH:3
end_of_record
SF:/home/irahardianto/works/projects/pathfinder/crates/pathfinder-search/src/mock.rs
FN:49,_RNvMNtCs3WHQeEEeoul_17pathfinder_search4mockNtB2_9MockScout10call_count
FN:30,_RNvMNtCs3WHQeEEeoul_17pathfinder_search4mockNtB2_9MockScout10set_result
FN:40,_RNvMNtCs3WHQeEEeoul_17pathfinder_search4mockNtB2_9MockScout5calls
FN:56,_RNvXs1_NtCs3WHQeEEeoul_17pathfinder_search4mockNtB5_9MockScoutNtNtB7_8searcher5Scout6search
FN:121,_RNCNvNtNtCs42RwvxWtfCK_17pathfinder_search4mock5testss_23test_mock_records_calls0B7_
FN:100,_RNCNvNtNtCs42RwvxWtfCK_17pathfinder_search4mock5testss_34test_mock_defaults_to_empty_result0B7_
FN:108,_RNCNvNtNtCs42RwvxWtfCK_17pathfinder_search4mock5testss_35test_mock_returns_configured_result0B7_
FN:129,_RNCNvNtNtCs42RwvxWtfCK_17pathfinder_search4mock5testss_39test_mock_returns_error_when_configured0B7_
FN:49,_RNvMNtCs42RwvxWtfCK_17pathfinder_search4mockNtB2_9MockScout10call_count
FN:30,_RNvMNtCs42RwvxWtfCK_17pathfinder_search4mockNtB2_9MockScout10set_result
FN:40,_RNvMNtCs42RwvxWtfCK_17pathfinder_search4mockNtB2_9MockScout5calls
FN:56,_RNvXs1_NtCs42RwvxWtfCK_17pathfinder_search4mockNtB5_9MockScoutNtNtB7_8searcher5Scout6search
FN:90,_RNvNtNtCs42RwvxWtfCK_17pathfinder_search4mock5tests6params
FN:121,_RNvNtNtCs42RwvxWtfCK_17pathfinder_search4mock5testss_23test_mock_records_calls
FN:100,_RNvNtNtCs42RwvxWtfCK_17pathfinder_search4mock5testss_34test_mock_defaults_to_empty_result
FN:108,_RNvNtNtCs42RwvxWtfCK_17pathfinder_search4mock5testss_35test_mock_returns_configured_result
FN:129,_RNvNtNtCs42RwvxWtfCK_17pathfinder_search4mock5testss_39test_mock_returns_error_when_configured
FNDA:0,_RNvMNtCs3WHQeEEeoul_17pathfinder_search4mockNtB2_9MockScout10call_count
FNDA:20,_RNvMNtCs3WHQeEEeoul_17pathfinder_search4mockNtB2_9MockScout10set_result
FNDA:4,_RNvMNtCs3WHQeEEeoul_17pathfinder_search4mockNtB2_9MockScout5calls
FNDA:28,_RNvXs1_NtCs3WHQeEEeoul_17pathfinder_search4mockNtB5_9MockScoutNtNtB7_8searcher5Scout6search
FNDA:1,_RNCNvNtNtCs42RwvxWtfCK_17pathfinder_search4mock5testss_23test_mock_records_calls0B7_
FNDA:1,_RNCNvNtNtCs42RwvxWtfCK_17pathfinder_search4mock5testss_34test_mock_defaults_to_empty_result0B7_
FNDA:1,_RNCNvNtNtCs42RwvxWtfCK_17pathfinder_search4mock5testss_35test_mock_returns_configured_result0B7_
FNDA:1,_RNCNvNtNtCs42RwvxWtfCK_17pathfinder_search4mock5testss_39test_mock_returns_error_when_configured0B7_
FNDA:1,_RNvMNtCs42RwvxWtfCK_17pathfinder_search4mockNtB2_9MockScout10call_count
FNDA:2,_RNvMNtCs42RwvxWtfCK_17pathfinder_search4mockNtB2_9MockScout10set_result
FNDA:1,_RNvMNtCs42RwvxWtfCK_17pathfinder_search4mockNtB2_9MockScout5calls
FNDA:5,_RNvXs1_NtCs42RwvxWtfCK_17pathfinder_search4mockNtB5_9MockScoutNtNtB7_8searcher5Scout6search
FNDA:5,_RNvNtNtCs42RwvxWtfCK_17pathfinder_search4mock5tests6params
FNDA:1,_RNvNtNtCs42RwvxWtfCK_17pathfinder_search4mock5testss_23test_mock_records_calls
FNDA:1,_RNvNtNtCs42RwvxWtfCK_17pathfinder_search4mock5testss_34test_mock_defaults_to_empty_result
FNDA:1,_RNvNtNtCs42RwvxWtfCK_17pathfinder_search4mock5testss_35test_mock_returns_configured_result
FNDA:1,_RNvNtNtCs42RwvxWtfCK_17pathfinder_search4mock5testss_39test_mock_returns_error_when_configured
FNF:13
FNH:13
DA:30,22
DA:31,22
DA:32,22
DA:33,22
DA:34,22
DA:35,22
DA:36,22
DA:40,5
DA:41,5
DA:42,5
DA:43,5
DA:44,5
DA:45,5
DA:49,1
DA:50,1
DA:51,1
DA:56,33
DA:82,33
DA:90,5
DA:91,5
DA:92,5
DA:93,5
DA:94,5
DA:95,5
DA:96,5
DA:97,5
DA:100,1
DA:101,1
DA:102,1
DA:103,1
DA:104,1
DA:105,1
DA:108,1
DA:109,1
DA:110,1
DA:111,1
DA:112,1
DA:113,1
DA:114,1
DA:115,1
DA:116,1
DA:117,1
DA:118,1
DA:121,1
DA:122,1
DA:123,1
DA:124,1
DA:125,1
DA:126,1
DA:129,1
DA:130,1
DA:131,1
DA:132,1
DA:133,1
DA:134,1
BRF:0
BRH:0
LF:63
LH:63
end_of_record
SF:/home/irahardianto/works/projects/pathfinder/crates/pathfinder-search/src/ripgrep.rs
FN:27,_RINvNtCs3WHQeEEeoul_17pathfinder_search7ripgrep15lock_or_recoverINtNtCslNYArtu3iFV_5alloc3vec3VecNtNtB4_5types11SearchMatchEEB4_
FN:27,_RINvNtCs3WHQeEEeoul_17pathfinder_search7ripgrep15lock_or_recoverjEB4_
FN:370,_RNCNCNvXs2_NtCs3WHQeEEeoul_17pathfinder_search7ripgrepNtB9_12RipgrepScoutNtNtBb_8searcher5Scout6search00Bb_
FN:447,_RNCNCNvXs2_NtCs3WHQeEEeoul_17pathfinder_search7ripgrepNtB9_12RipgrepScoutNtNtBb_8searcher5Scout6search0s_0Bb_
FN:299,_RNCNvMs0_NtCs3WHQeEEeoul_17pathfinder_search7ripgrepNtB7_12RipgrepScout10walk_files0B9_
FN:310,_RNCNvMs0_NtCs3WHQeEEeoul_17pathfinder_search7ripgrepNtB7_12RipgrepScout10walk_filess0_0B9_
FN:311,_RNCNvMs0_NtCs3WHQeEEeoul_17pathfinder_search7ripgrepNtB7_12RipgrepScout10walk_filess1_0B9_
FN:355,_RNCNvMs0_NtCs3WHQeEEeoul_17pathfinder_search7ripgrepNtB7_12RipgrepScout10walk_filess2_0B9_
FN:300,_RNCNvMs0_NtCs3WHQeEEeoul_17pathfinder_search7ripgrepNtB7_12RipgrepScout10walk_filess_0B9_
FN:282,_RNCNvMs0_NtCs3WHQeEEeoul_17pathfinder_search7ripgrepNtB7_12RipgrepScout13build_matcher0B9_
FN:114,_RNvMNtCs3WHQeEEeoul_17pathfinder_search7ripgrepNtB2_14MatchCollector13backfill_hash
FN:123,_RNvMNtCs3WHQeEEeoul_17pathfinder_search7ripgrepNtB2_14MatchCollector19current_match_count
FN:86,_RNvMNtCs3WHQeEEeoul_17pathfinder_search7ripgrepNtB2_14MatchCollector3new
FN:291,_RNvMs0_NtCs3WHQeEEeoul_17pathfinder_search7ripgrepNtB5_12RipgrepScout10walk_files
FN:269,_RNvMs0_NtCs3WHQeEEeoul_17pathfinder_search7ripgrepNtB5_12RipgrepScout13build_matcher
FN:264,_RNvMs0_NtCs3WHQeEEeoul_17pathfinder_search7ripgrepNtB5_12RipgrepScout3new
FN:41,_RNvNtCs3WHQeEEeoul_17pathfinder_search7ripgrep13truncate_line
FN:361,_RNvXs1_NtCs3WHQeEEeoul_17pathfinder_search7ripgrepNtB5_12RipgrepScoutNtNtCsgEmfK2I1SDS_4core7default7Default7default
FN:368,_RNvXs2_NtCs3WHQeEEeoul_17pathfinder_search7ripgrepNtB5_12RipgrepScoutNtNtB7_8searcher5Scout6search
FN:237,_RNvXs_NtCs3WHQeEEeoul_17pathfinder_search7ripgrepNtB4_14MatchCollectorNtNtCsozJ0dcEF8G_13grep_searcher4sink4Sink6finish
FN:205,_RNvXs_NtCs3WHQeEEeoul_17pathfinder_search7ripgrepNtB4_14MatchCollectorNtNtCsozJ0dcEF8G_13grep_searcher4sink4Sink7context
FN:131,_RNvXs_NtCs3WHQeEEeoul_17pathfinder_search7ripgrepNtB4_14MatchCollectorNtNtCsozJ0dcEF8G_13grep_searcher4sink4Sink7matched
FN:114,_RNvMNtCs42RwvxWtfCK_17pathfinder_search7ripgrepNtB2_14MatchCollector13backfill_hash
FN:123,_RNvMNtCs42RwvxWtfCK_17pathfinder_search7ripgrepNtB2_14MatchCollector19current_match_count
FN:86,_RNvMNtCs42RwvxWtfCK_17pathfinder_search7ripgrepNtB2_14MatchCollector3new
FN:291,_RNvMs0_NtCs42RwvxWtfCK_17pathfinder_search7ripgrepNtB5_12RipgrepScout10walk_files
FN:269,_RNvMs0_NtCs42RwvxWtfCK_17pathfinder_search7ripgrepNtB5_12RipgrepScout13build_matcher
FN:264,_RNvMs0_NtCs42RwvxWtfCK_17pathfinder_search7ripgrepNtB5_12RipgrepScout3new
FN:41,_RNvNtCs42RwvxWtfCK_17pathfinder_search7ripgrep13truncate_line
FN:368,_RNvXs2_NtCs42RwvxWtfCK_17pathfinder_search7ripgrepNtB5_12RipgrepScoutNtNtB7_8searcher5Scout6search
FN:237,_RNvXs_NtCs42RwvxWtfCK_17pathfinder_search7ripgrepNtB4_14MatchCollectorNtNtCsozJ0dcEF8G_13grep_searcher4sink4Sink6finish
FN:205,_RNvXs_NtCs42RwvxWtfCK_17pathfinder_search7ripgrepNtB4_14MatchCollectorNtNtCsozJ0dcEF8G_13grep_searcher4sink4Sink7context
FN:131,_RNvXs_NtCs42RwvxWtfCK_17pathfinder_search7ripgrepNtB4_14MatchCollectorNtNtCsozJ0dcEF8G_13grep_searcher4sink4Sink7matched
FN:361,_RNvXs1_NtCs42RwvxWtfCK_17pathfinder_search7ripgrepNtB5_12RipgrepScoutNtNtCsgEmfK2I1SDS_4core7default7Default7default
FN:27,_RINvNtCs42RwvxWtfCK_17pathfinder_search7ripgrep15lock_or_recoverINtNtCslNYArtu3iFV_5alloc3vec3VecNtNtB4_5types11SearchMatchEEB4_
FN:27,_RINvNtCs42RwvxWtfCK_17pathfinder_search7ripgrep15lock_or_recoverjEB4_
FN:370,_RNCNCNvXs2_NtCs42RwvxWtfCK_17pathfinder_search7ripgrepNtB9_12RipgrepScoutNtNtBb_8searcher5Scout6search00Bb_
FN:447,_RNCNCNvXs2_NtCs42RwvxWtfCK_17pathfinder_search7ripgrepNtB9_12RipgrepScoutNtNtBb_8searcher5Scout6search0s_0Bb_
FN:299,_RNCNvMs0_NtCs42RwvxWtfCK_17pathfinder_search7ripgrepNtB7_12RipgrepScout10walk_files0B9_
FN:310,_RNCNvMs0_NtCs42RwvxWtfCK_17pathfinder_search7ripgrepNtB7_12RipgrepScout10walk_filess0_0B9_
FN:311,_RNCNvMs0_NtCs42RwvxWtfCK_17pathfinder_search7ripgrepNtB7_12RipgrepScout10walk_filess1_0B9_
FN:355,_RNCNvMs0_NtCs42RwvxWtfCK_17pathfinder_search7ripgrepNtB7_12RipgrepScout10walk_filess2_0B9_
FN:300,_RNCNvMs0_NtCs42RwvxWtfCK_17pathfinder_search7ripgrepNtB7_12RipgrepScout10walk_filess_0B9_
FN:282,_RNCNvMs0_NtCs42RwvxWtfCK_17pathfinder_search7ripgrepNtB7_12RipgrepScout13build_matcher0B9_
FN:587,_RNCNCNvNtNtCs42RwvxWtfCK_17pathfinder_search7ripgrep5testss_37test_search_path_glob_restricts_files00B9_
FN:838,_RNCNvNtNtCs42RwvxWtfCK_17pathfinder_search7ripgrep5testss_24test_search_default_impl0B7_
FN:822,_RNCNvNtNtCs42RwvxWtfCK_17pathfinder_search7ripgrep5testss_25test_search_column_offset0B7_
FN:626,_RNCNvNtNtCs42RwvxWtfCK_17pathfinder_search7ripgrep5testss_25test_search_context_lines0B7_
FN:526,_RNCNvNtNtCs42RwvxWtfCK_17pathfinder_search7ripgrep5testss_25test_search_regex_pattern0B7_
FN:789,_RNCNvNtNtCs42RwvxWtfCK_17pathfinder_search7ripgrep5testss_27test_search_line_truncation0B7_
FN:510,_RNCNvNtNtCs42RwvxWtfCK_17pathfinder_search7ripgrep5testss_29test_search_literal_not_found0B7_
FN:863,_RNCNvNtNtCs42RwvxWtfCK_17pathfinder_search7ripgrep5testss_30test_search_zero_context_lines0B7_
FN:756,_RNCNvNtNtCs42RwvxWtfCK_17pathfinder_search7ripgrep5testss_33test_search_context_lines_overlap0B7_
FN:485,_RNCNvNtNtCs42RwvxWtfCK_17pathfinder_search7ripgrep5testss_33test_search_literal_pattern_found0B7_
FN:650,_RNCNvNtNtCs42RwvxWtfCK_17pathfinder_search7ripgrep5testss_34test_search_match_has_version_hash0B7_
FN:597,_RNCNvNtNtCs42RwvxWtfCK_17pathfinder_search7ripgrep5testss_34test_search_max_results_truncation0B7_
FN:943,_RNCNvNtNtCs42RwvxWtfCK_17pathfinder_search7ripgrep5testss_37test_search_known_field_default_false0B7_
FN:561,_RNCNvNtNtCs42RwvxWtfCK_17pathfinder_search7ripgrep5testss_37test_search_path_glob_restricts_files0B7_
FN:731,_RNCNvNtNtCs42RwvxWtfCK_17pathfinder_search7ripgrep5testss_38test_search_invalid_glob_returns_error0B7_
FN:544,_RNCNvNtNtCs42RwvxWtfCK_17pathfinder_search7ripgrep5testss_39test_search_invalid_regex_returns_error0B7_
FN:850,_RNCNvNtNtCs42RwvxWtfCK_17pathfinder_search7ripgrep5testss_39test_search_match_column_for_first_char0B7_
FN:717,_RNCNvNtNtCs42RwvxWtfCK_17pathfinder_search7ripgrep5testss_40test_search_multiple_matches_in_one_file0B7_
FN:670,_RNCNvNtNtCs42RwvxWtfCK_17pathfinder_search7ripgrep5testss_43test_search_enclosing_semantic_path_is_null0B7_
FN:688,_RNCNvNtNtCs42RwvxWtfCK_17pathfinder_search7ripgrep5testss_45test_search_exclude_glob_skips_matching_files0B7_
FN:880,_RNCNvNtNtCs42RwvxWtfCK_17pathfinder_search7ripgrep5testss_48test_search_match_count_exceeds_max_across_files0B7_
FN:474,_RNvNtNtCs42RwvxWtfCK_17pathfinder_search7ripgrep5tests10params_for
FN:461,_RNvNtNtCs42RwvxWtfCK_17pathfinder_search7ripgrep5tests14make_workspace
FN:838,_RNvNtNtCs42RwvxWtfCK_17pathfinder_search7ripgrep5testss_24test_search_default_impl
FN:906,_RNvNtNtCs42RwvxWtfCK_17pathfinder_search7ripgrep5testss_24test_truncate_line_short
FN:822,_RNvNtNtCs42RwvxWtfCK_17pathfinder_search7ripgrep5testss_25test_search_column_offset
FN:626,_RNvNtNtCs42RwvxWtfCK_17pathfinder_search7ripgrep5testss_25test_search_context_lines
FN:526,_RNvNtNtCs42RwvxWtfCK_17pathfinder_search7ripgrep5testss_25test_search_regex_pattern
FN:789,_RNvNtNtCs42RwvxWtfCK_17pathfinder_search7ripgrep5testss_27test_search_line_truncation
FN:510,_RNvNtNtCs42RwvxWtfCK_17pathfinder_search7ripgrep5testss_29test_search_literal_not_found
FN:863,_RNvNtNtCs42RwvxWtfCK_17pathfinder_search7ripgrep5testss_30test_search_zero_context_lines
FN:921,_RNvNtNtCs42RwvxWtfCK_17pathfinder_search7ripgrep5testss_32test_truncate_line_over_boundary
FN:756,_RNvNtNtCs42RwvxWtfCK_17pathfinder_search7ripgrep5testss_33test_search_context_lines_overlap
FN:485,_RNvNtNtCs42RwvxWtfCK_17pathfinder_search7ripgrep5testss_33test_search_literal_pattern_found
FN:913,_RNvNtNtCs42RwvxWtfCK_17pathfinder_search7ripgrep5testss_33test_truncate_line_exact_boundary
FN:650,_RNvNtNtCs42RwvxWtfCK_17pathfinder_search7ripgrep5testss_34test_search_match_has_version_hash
FN:597,_RNvNtNtCs42RwvxWtfCK_17pathfinder_search7ripgrep5testss_34test_search_max_results_truncation
FN:943,_RNvNtNtCs42RwvxWtfCK_17pathfinder_search7ripgrep5testss_37test_search_known_field_default_false
FN:561,_RNvNtNtCs42RwvxWtfCK_17pathfinder_search7ripgrep5testss_37test_search_path_glob_restricts_files
FN:731,_RNvNtNtCs42RwvxWtfCK_17pathfinder_search7ripgrep5testss_38test_search_invalid_glob_returns_error
FN:544,_RNvNtNtCs42RwvxWtfCK_17pathfinder_search7ripgrep5testss_39test_search_invalid_regex_returns_error
FN:850,_RNvNtNtCs42RwvxWtfCK_17pathfinder_search7ripgrep5testss_39test_search_match_column_for_first_char
FN:717,_RNvNtNtCs42RwvxWtfCK_17pathfinder_search7ripgrep5testss_40test_search_multiple_matches_in_one_file
FN:933,_RNvNtNtCs42RwvxWtfCK_17pathfinder_search7ripgrep5testss_42test_truncate_line_multibyte_char_boundary
FN:670,_RNvNtNtCs42RwvxWtfCK_17pathfinder_search7ripgrep5testss_43test_search_enclosing_semantic_path_is_null
FN:688,_RNvNtNtCs42RwvxWtfCK_17pathfinder_search7ripgrep5testss_45test_search_exclude_glob_skips_matching_files
FN:880,_RNvNtNtCs42RwvxWtfCK_17pathfinder_search7ripgrep5testss_48test_search_match_count_exceeds_max_across_files
FNDA:0,_RINvNtCs3WHQeEEeoul_17pathfinder_search7ripgrep15lock_or_recoverINtNtCslNYArtu3iFV_5alloc3vec3VecNtNtB4_5types11SearchMatchEEB4_
FNDA:0,_RINvNtCs3WHQeEEeoul_17pathfinder_search7ripgrep15lock_or_recoverjEB4_
FNDA:0,_RNCNCNvXs2_NtCs3WHQeEEeoul_17pathfinder_search7ripgrepNtB9_12RipgrepScoutNtNtBb_8searcher5Scout6search00Bb_
FNDA:0,_RNCNCNvXs2_NtCs3WHQeEEeoul_17pathfinder_search7ripgrepNtB9_12RipgrepScoutNtNtBb_8searcher5Scout6search0s_0Bb_
FNDA:0,_RNCNvMs0_NtCs3WHQeEEeoul_17pathfinder_search7ripgrepNtB7_12RipgrepScout10walk_files0B9_
FNDA:0,_RNCNvMs0_NtCs3WHQeEEeoul_17pathfinder_search7ripgrepNtB7_12RipgrepScout10walk_filess0_0B9_
FNDA:0,_RNCNvMs0_NtCs3WHQeEEeoul_17pathfinder_search7ripgrepNtB7_12RipgrepScout10walk_filess1_0B9_
FNDA:0,_RNCNvMs0_NtCs3WHQeEEeoul_17pathfinder_search7ripgrepNtB7_12RipgrepScout10walk_filess2_0B9_
FNDA:0,_RNCNvMs0_NtCs3WHQeEEeoul_17pathfinder_search7ripgrepNtB7_12RipgrepScout10walk_filess_0B9_
FNDA:0,_RNCNvMs0_NtCs3WHQeEEeoul_17pathfinder_search7ripgrepNtB7_12RipgrepScout13build_matcher0B9_
FNDA:0,_RNvMNtCs3WHQeEEeoul_17pathfinder_search7ripgrepNtB2_14MatchCollector13backfill_hash
FNDA:0,_RNvMNtCs3WHQeEEeoul_17pathfinder_search7ripgrepNtB2_14MatchCollector19current_match_count
FNDA:0,_RNvMNtCs3WHQeEEeoul_17pathfinder_search7ripgrepNtB2_14MatchCollector3new
FNDA:0,_RNvMs0_NtCs3WHQeEEeoul_17pathfinder_search7ripgrepNtB5_12RipgrepScout10walk_files
FNDA:0,_RNvMs0_NtCs3WHQeEEeoul_17pathfinder_search7ripgrepNtB5_12RipgrepScout13build_matcher
FNDA:0,_RNvMs0_NtCs3WHQeEEeoul_17pathfinder_search7ripgrepNtB5_12RipgrepScout3new
FNDA:0,_RNvNtCs3WHQeEEeoul_17pathfinder_search7ripgrep13truncate_line
FNDA:0,_RNvXs1_NtCs3WHQeEEeoul_17pathfinder_search7ripgrepNtB5_12RipgrepScoutNtNtCsgEmfK2I1SDS_4core7default7Default7default
FNDA:0,_RNvXs2_NtCs3WHQeEEeoul_17pathfinder_search7ripgrepNtB5_12RipgrepScoutNtNtB7_8searcher5Scout6search
FNDA:0,_RNvXs_NtCs3WHQeEEeoul_17pathfinder_search7ripgrepNtB4_14MatchCollectorNtNtCsozJ0dcEF8G_13grep_searcher4sink4Sink6finish
FNDA:0,_RNvXs_NtCs3WHQeEEeoul_17pathfinder_search7ripgrepNtB4_14MatchCollectorNtNtCsozJ0dcEF8G_13grep_searcher4sink4Sink7context
FNDA:0,_RNvXs_NtCs3WHQeEEeoul_17pathfinder_search7ripgrepNtB4_14MatchCollectorNtNtCsozJ0dcEF8G_13grep_searcher4sink4Sink7matched
FNDA:21,_RNvMNtCs42RwvxWtfCK_17pathfinder_search7ripgrepNtB2_14MatchCollector13backfill_hash
FNDA:28,_RNvMNtCs42RwvxWtfCK_17pathfinder_search7ripgrepNtB2_14MatchCollector19current_match_count
FNDA:25,_RNvMNtCs42RwvxWtfCK_17pathfinder_search7ripgrepNtB2_14MatchCollector3new
FNDA:20,_RNvMs0_NtCs42RwvxWtfCK_17pathfinder_search7ripgrepNtB5_12RipgrepScout10walk_files
FNDA:21,_RNvMs0_NtCs42RwvxWtfCK_17pathfinder_search7ripgrepNtB5_12RipgrepScout13build_matcher
FNDA:19,_RNvMs0_NtCs42RwvxWtfCK_17pathfinder_search7ripgrepNtB5_12RipgrepScout3new
FNDA:45,_RNvNtCs42RwvxWtfCK_17pathfinder_search7ripgrep13truncate_line
FNDA:21,_RNvXs2_NtCs42RwvxWtfCK_17pathfinder_search7ripgrepNtB5_12RipgrepScoutNtNtB7_8searcher5Scout6search
FNDA:25,_RNvXs_NtCs42RwvxWtfCK_17pathfinder_search7ripgrepNtB4_14MatchCollectorNtNtCsozJ0dcEF8G_13grep_searcher4sink4Sink6finish
FNDA:15,_RNvXs_NtCs42RwvxWtfCK_17pathfinder_search7ripgrepNtB4_14MatchCollectorNtNtCsozJ0dcEF8G_13grep_searcher4sink4Sink7context
FNDA:28,_RNvXs_NtCs42RwvxWtfCK_17pathfinder_search7ripgrepNtB4_14MatchCollectorNtNtCsozJ0dcEF8G_13grep_searcher4sink4Sink7matched
FNDA:0,_RNvXs1_NtCs42RwvxWtfCK_17pathfinder_search7ripgrepNtB5_12RipgrepScoutNtNtCsgEmfK2I1SDS_4core7default7Default7default
FNDA:132,_RINvNtCs42RwvxWtfCK_17pathfinder_search7ripgrep15lock_or_recoverINtNtCslNYArtu3iFV_5alloc3vec3VecNtNtB4_5types11SearchMatchEEB4_
FNDA:28,_RINvNtCs42RwvxWtfCK_17pathfinder_search7ripgrep15lock_or_recoverjEB4_
FNDA:21,_RNCNCNvXs2_NtCs42RwvxWtfCK_17pathfinder_search7ripgrepNtB9_12RipgrepScoutNtNtBb_8searcher5Scout6search00Bb_
FNDA:0,_RNCNCNvXs2_NtCs42RwvxWtfCK_17pathfinder_search7ripgrepNtB9_12RipgrepScoutNtNtBb_8searcher5Scout6search0s_0Bb_
FNDA:19,_RNCNvMs0_NtCs42RwvxWtfCK_17pathfinder_search7ripgrepNtB7_12RipgrepScout10walk_files0B9_
FNDA:1,_RNCNvMs0_NtCs42RwvxWtfCK_17pathfinder_search7ripgrepNtB7_12RipgrepScout10walk_filess0_0B9_
FNDA:1,_RNCNvMs0_NtCs42RwvxWtfCK_17pathfinder_search7ripgrepNtB7_12RipgrepScout10walk_filess1_0B9_
FNDA:13,_RNCNvMs0_NtCs42RwvxWtfCK_17pathfinder_search7ripgrepNtB7_12RipgrepScout10walk_filess2_0B9_
FNDA:1,_RNCNvMs0_NtCs42RwvxWtfCK_17pathfinder_search7ripgrepNtB7_12RipgrepScout10walk_filess_0B9_
FNDA:1,_RNCNvMs0_NtCs42RwvxWtfCK_17pathfinder_search7ripgrepNtB7_12RipgrepScout13build_matcher0B9_
FNDA:2,_RNCNCNvNtNtCs42RwvxWtfCK_17pathfinder_search7ripgrep5testss_37test_search_path_glob_restricts_files00B9_
FNDA:1,_RNCNvNtNtCs42RwvxWtfCK_17pathfinder_search7ripgrep5testss_24test_search_default_impl0B7_
FNDA:1,_RNCNvNtNtCs42RwvxWtfCK_17pathfinder_search7ripgrep5testss_25test_search_column_offset0B7_
FNDA:1,_RNCNvNtNtCs42RwvxWtfCK_17pathfinder_search7ripgrep5testss_25test_search_context_lines0B7_
FNDA:1,_RNCNvNtNtCs42RwvxWtfCK_17pathfinder_search7ripgrep5testss_25test_search_regex_pattern0B7_
FNDA:1,_RNCNvNtNtCs42RwvxWtfCK_17pathfinder_search7ripgrep5testss_27test_search_line_truncation0B7_
FNDA:1,_RNCNvNtNtCs42RwvxWtfCK_17pathfinder_search7ripgrep5testss_29test_search_literal_not_found0B7_
FNDA:1,_RNCNvNtNtCs42RwvxWtfCK_17pathfinder_search7ripgrep5testss_30test_search_zero_context_lines0B7_
FNDA:1,_RNCNvNtNtCs42RwvxWtfCK_17pathfinder_search7ripgrep5testss_33test_search_context_lines_overlap0B7_
FNDA:1,_RNCNvNtNtCs42RwvxWtfCK_17pathfinder_search7ripgrep5testss_33test_search_literal_pattern_found0B7_
FNDA:1,_RNCNvNtNtCs42RwvxWtfCK_17pathfinder_search7ripgrep5testss_34test_search_match_has_version_hash0B7_
FNDA:1,_RNCNvNtNtCs42RwvxWtfCK_17pathfinder_search7ripgrep5testss_34test_search_max_results_truncation0B7_
FNDA:1,_RNCNvNtNtCs42RwvxWtfCK_17pathfinder_search7ripgrep5testss_37test_search_known_field_default_false0B7_
FNDA:1,_RNCNvNtNtCs42RwvxWtfCK_17pathfinder_search7ripgrep5testss_37test_search_path_glob_restricts_files0B7_
FNDA:1,_RNCNvNtNtCs42RwvxWtfCK_17pathfinder_search7ripgrep5testss_38test_search_invalid_glob_returns_error0B7_
FNDA:1,_RNCNvNtNtCs42RwvxWtfCK_17pathfinder_search7ripgrep5testss_39test_search_invalid_regex_returns_error0B7_
FNDA:1,_RNCNvNtNtCs42RwvxWtfCK_17pathfinder_search7ripgrep5testss_39test_search_match_column_for_first_char0B7_
FNDA:1,_RNCNvNtNtCs42RwvxWtfCK_17pathfinder_search7ripgrep5testss_40test_search_multiple_matches_in_one_file0B7_
FNDA:1,_RNCNvNtNtCs42RwvxWtfCK_17pathfinder_search7ripgrep5testss_43test_search_enclosing_semantic_path_is_null0B7_
FNDA:1,_RNCNvNtNtCs42RwvxWtfCK_17pathfinder_search7ripgrep5testss_45test_search_exclude_glob_skips_matching_files0B7_
FNDA:1,_RNCNvNtNtCs42RwvxWtfCK_17pathfinder_search7ripgrep5testss_48test_search_match_count_exceeds_max_across_files0B7_
FNDA:9,_RNvNtNtCs42RwvxWtfCK_17pathfinder_search7ripgrep5tests10params_for
FNDA:20,_RNvNtNtCs42RwvxWtfCK_17pathfinder_search7ripgrep5tests14make_workspace
FNDA:1,_RNvNtNtCs42RwvxWtfCK_17pathfinder_search7ripgrep5testss_24test_search_default_impl
FNDA:1,_RNvNtNtCs42RwvxWtfCK_17pathfinder_search7ripgrep5testss_24test_truncate_line_short
FNDA:1,_RNvNtNtCs42RwvxWtfCK_17pathfinder_search7ripgrep5testss_25test_search_column_offset
FNDA:1,_RNvNtNtCs42RwvxWtfCK_17pathfinder_search7ripgrep5testss_25test_search_context_lines
FNDA:1,_RNvNtNtCs42RwvxWtfCK_17pathfinder_search7ripgrep5testss_25test_search_regex_pattern
FNDA:1,_RNvNtNtCs42RwvxWtfCK_17pathfinder_search7ripgrep5testss_27test_search_line_truncation
FNDA:1,_RNvNtNtCs42RwvxWtfCK_17pathfinder_search7ripgrep5testss_29test_search_literal_not_found
FNDA:1,_RNvNtNtCs42RwvxWtfCK_17pathfinder_search7ripgrep5testss_30test_search_zero_context_lines
FNDA:1,_RNvNtNtCs42RwvxWtfCK_17pathfinder_search7ripgrep5testss_32test_truncate_line_over_boundary
FNDA:1,_RNvNtNtCs42RwvxWtfCK_17pathfinder_search7ripgrep5testss_33test_search_context_lines_overlap
FNDA:1,_RNvNtNtCs42RwvxWtfCK_17pathfinder_search7ripgrep5testss_33test_search_literal_pattern_found
FNDA:1,_RNvNtNtCs42RwvxWtfCK_17pathfinder_search7ripgrep5testss_33test_truncate_line_exact_boundary
FNDA:1,_RNvNtNtCs42RwvxWtfCK_17pathfinder_search7ripgrep5testss_34test_search_match_has_version_hash
FNDA:1,_RNvNtNtCs42RwvxWtfCK_17pathfinder_search7ripgrep5testss_34test_search_max_results_truncation
FNDA:1,_RNvNtNtCs42RwvxWtfCK_17pathfinder_search7ripgrep5testss_37test_search_known_field_default_false
FNDA:1,_RNvNtNtCs42RwvxWtfCK_17pathfinder_search7ripgrep5testss_37test_search_path_glob_restricts_files
FNDA:1,_RNvNtNtCs42RwvxWtfCK_17pathfinder_search7ripgrep5testss_38test_search_invalid_glob_returns_error
FNDA:1,_RNvNtNtCs42RwvxWtfCK_17pathfinder_search7ripgrep5testss_39test_search_invalid_regex_returns_error
FNDA:1,_RNvNtNtCs42RwvxWtfCK_17pathfinder_search7ripgrep5testss_39test_search_match_column_for_first_char
FNDA:1,_RNvNtNtCs42RwvxWtfCK_17pathfinder_search7ripgrep5testss_40test_search_multiple_matches_in_one_file
FNDA:1,_RNvNtNtCs42RwvxWtfCK_17pathfinder_search7ripgrep5testss_42test_truncate_line_multibyte_char_boundary
FNDA:1,_RNvNtNtCs42RwvxWtfCK_17pathfinder_search7ripgrep5testss_43test_search_enclosing_semantic_path_is_null
FNDA:1,_RNvNtNtCs42RwvxWtfCK_17pathfinder_search7ripgrep5testss_45test_search_exclude_glob_skips_matching_files
FNDA:1,_RNvNtNtCs42RwvxWtfCK_17pathfinder_search7ripgrep5testss_48test_search_match_count_exceeds_max_across_files
FNF:68
FNH:66
DA:27,160
DA:28,160
DA:29,160
DA:30,0
DA:31,0
DA:34,0
DA:37,160
DA:41,45
DA:42,45
DA:43,40
DA:44,5
DA:45,5
DA:46,6
DA:47,1
DA:48,1
DA:49,5
DA:50,45
DA:86,25
DA:87,25
DA:88,25
DA:89,25
DA:90,25
DA:91,25
DA:92,25
DA:93,25
DA:94,25
DA:95,25
DA:96,25
DA:97,25
DA:98,25
DA:99,25
DA:100,25
DA:101,25
DA:102,25
DA:103,25
DA:104,25
DA:105,25
DA:106,25
DA:107,25
DA:108,25
DA:114,21
DA:115,21
DA:116,31
DA:117,31
DA:118,26
DA:119,26
DA:121,21
DA:123,28
DA:124,28
DA:125,28
DA:131,28
DA:137,28
DA:138,28
DA:139,28
DA:140,28
DA:142,28
DA:143,28
DA:144,2
DA:146,2
DA:147,26
DA:150,26
DA:151,3
DA:152,3
DA:153,3
DA:154,3
DA:155,23
DA:156,26
DA:159,26
DA:160,26
DA:161,1
DA:162,25
DA:163,26
DA:165,26
DA:166,26
DA:167,26
DA:168,26
DA:169,26
DA:170,26
DA:173,26
DA:174,26
DA:175,26
DA:176,26
DA:177,26
DA:178,0
DA:180,26
DA:181,26
DA:182,26
DA:183,26
DA:184,26
DA:185,26
DA:186,26
DA:187,26
DA:188,26
DA:189,26
DA:190,26
DA:193,26
DA:194,25
DA:195,25
DA:197,26
DA:198,26
DA:199,26
DA:200,26
DA:202,26
DA:203,28
DA:205,15
DA:206,15
DA:207,15
DA:208,15
DA:209,15
DA:210,15
DA:211,15
DA:212,0
DA:213,15
DA:214,15
DA:216,15
DA:217,15
DA:218,15
DA:219,15
DA:220,15
DA:222,15
DA:223,15
DA:224,3
DA:225,12
DA:226,15
DA:227,0
DA:229,15
DA:230,9
DA:231,9
DA:232,9
DA:234,15
DA:235,15
DA:237,25
DA:238,25
DA:239,25
DA:240,25
DA:241,25
DA:243,25
DA:244,4
DA:245,4
DA:246,4
DA:247,4
DA:248,21
DA:249,25
DA:250,25
DA:264,19
DA:265,19
DA:266,19
DA:269,21
DA:270,21
DA:271,21
DA:273,21
DA:274,2
DA:277,19
DA:280,21
DA:281,21
DA:282,21
DA:283,21
DA:291,20
DA:292,20
DA:293,20
DA:296,20
DA:297,20
DA:298,20
DA:299,20
DA:300,20
DA:303,19
DA:304,17
DA:307,2
DA:308,2
DA:309,2
DA:310,2
DA:311,2
DA:312,1
DA:313,1
DA:317,18
DA:318,18
DA:319,18
DA:320,18
DA:321,18
DA:322,18
DA:324,18
DA:326,64
DA:327,64
DA:328,64
DA:329,35
DA:330,29
DA:333,29
DA:334,29
DA:335,0
DA:339,29
DA:340,29
DA:341,1
DA:342,28
DA:346,28
DA:347,3
DA:348,1
DA:349,2
DA:350,25
DA:352,27
DA:355,18
DA:356,18
DA:357,20
DA:361,0
DA:362,0
DA:363,0
DA:368,21
DA:370,21
DA:371,21
DA:372,21
DA:380,21
DA:381,20
DA:383,18
DA:384,18
DA:385,18
DA:387,18
DA:388,18
DA:389,18
DA:390,18
DA:391,18
DA:393,25
DA:394,25
DA:396,25
DA:397,25
DA:398,25
DA:399,25
DA:400,25
DA:401,25
DA:402,25
DA:405,25
DA:406,0
DA:407,0
DA:408,25
DA:412,25
DA:413,25
DA:414,21
DA:415,0
DA:416,0
DA:418,21
DA:419,21
DA:420,4
DA:422,25
DA:423,2
DA:425,2
DA:426,23
DA:430,18
DA:431,18
DA:433,18
DA:435,0
DA:440,18
DA:441,18
DA:442,18
DA:443,18
DA:444,18
DA:445,21
DA:447,0
DA:448,21
DA:461,20
DA:462,20
DA:463,31
DA:464,31
DA:465,31
DA:466,31
DA:467,31
DA:468,31
DA:469,31
DA:471,20
DA:472,20
DA:474,9
DA:475,9
DA:476,9
DA:477,9
DA:478,9
DA:479,9
DA:480,9
DA:485,1
DA:486,1
DA:487,1
DA:488,1
DA:489,1
DA:490,1
DA:491,1
DA:492,1
DA:493,1
DA:494,1
DA:495,1
DA:496,1
DA:497,1
DA:498,1
DA:499,1
DA:500,1
DA:502,1
DA:503,1
DA:504,1
DA:505,1
DA:506,1
DA:507,1
DA:510,1
DA:511,1
DA:512,1
DA:513,1
DA:514,1
DA:515,1
DA:516,1
DA:518,1
DA:519,1
DA:520,1
DA:521,1
DA:526,1
DA:527,1
DA:528,1
DA:529,1
DA:530,1
DA:531,1
DA:532,1
DA:533,1
DA:534,1
DA:535,1
DA:537,1
DA:538,1
DA:539,1
DA:540,1
DA:541,1
DA:544,1
DA:545,1
DA:546,1
DA:547,1
DA:548,1
DA:549,1
DA:550,1
DA:551,1
DA:552,1
DA:553,1
DA:554,1
DA:555,1
DA:556,1
DA:561,1
DA:562,1
DA:563,1
DA:564,1
DA:565,1
DA:566,1
DA:567,1
DA:568,1
DA:569,1
DA:570,1
DA:571,1
DA:572,1
DA:573,1
DA:574,1
DA:577,1
DA:578,2
DA:579,2
DA:580,2
DA:581,1
DA:582,1
DA:583,1
DA:584,2
DA:585,2
DA:586,2
DA:587,2
DA:588,1
DA:589,1
DA:590,1
DA:591,1
DA:592,1
DA:597,1
DA:599,1
DA:600,1
DA:601,1
DA:602,1
DA:603,1
DA:604,1
DA:605,1
DA:606,1
DA:607,1
DA:608,1
DA:609,1
DA:610,1
DA:611,1
DA:612,1
DA:613,1
DA:615,1
DA:616,1
DA:617,1
DA:620,1
DA:621,1
DA:626,1
DA:627,1
DA:628,1
DA:629,1
DA:630,1
DA:631,1
DA:632,1
DA:633,1
DA:634,1
DA:635,1
DA:637,1
DA:638,1
DA:639,1
DA:640,1
DA:641,1
DA:642,1
DA:643,1
DA:644,1
DA:645,1
DA:650,1
DA:651,1
DA:652,1
DA:653,1
DA:654,1
DA:655,1
DA:656,1
DA:658,1
DA:659,1
DA:660,1
DA:661,1
DA:664,1
DA:665,1
DA:670,1
DA:671,1
DA:672,1
DA:673,1
DA:674,1
DA:675,1
DA:676,1
DA:678,1
DA:679,1
DA:680,1
DA:681,1
DA:682,1
DA:683,1
DA:688,1
DA:689,1
DA:690,1
DA:691,1
DA:692,1
DA:693,1
DA:694,1
DA:695,1
DA:696,1
DA:697,1
DA:698,1
DA:699,1
DA:700,1
DA:701,1
DA:704,1
DA:705,2
DA:706,2
DA:707,2
DA:708,1
DA:709,1
DA:710,1
DA:711,1
DA:712,1
DA:717,1
DA:718,1
DA:719,1
DA:720,1
DA:721,1
DA:722,1
DA:723,1
DA:725,1
DA:726,1
DA:727,1
DA:728,1
DA:731,1
DA:732,1
DA:733,1
DA:734,1
DA:735,1
DA:736,1
DA:737,1
DA:738,1
DA:739,1
DA:740,1
DA:741,1
DA:742,1
DA:744,1
DA:745,1
DA:746,1
DA:747,1
DA:748,1
DA:749,1
DA:750,1
DA:751,1
DA:752,1
DA:753,1
DA:756,1
DA:757,1
DA:758,1
DA:759,1
DA:760,1
DA:761,1
DA:762,1
DA:763,1
DA:764,1
DA:765,1
DA:766,1
DA:767,1
DA:768,1
DA:770,1
DA:773,1
DA:774,1
DA:775,1
DA:778,1
DA:779,1
DA:780,1
DA:783,1
DA:784,1
DA:785,1
DA:786,1
DA:789,1
DA:790,1
DA:791,1
DA:792,1
DA:793,1
DA:794,1
DA:795,1
DA:796,1
DA:797,1
DA:798,1
DA:799,1
DA:800,1
DA:801,1
DA:802,1
DA:804,1
DA:805,1
DA:806,1
DA:807,1
DA:809,1
DA:810,1
DA:812,1
DA:813,1
DA:815,1
DA:816,1
DA:817,1
DA:822,1
DA:824,1
DA:825,1
DA:826,1
DA:827,1
DA:828,1
DA:829,1
DA:831,1
DA:832,1
DA:834,1
DA:835,1
DA:838,1
DA:840,1
DA:841,1
DA:842,1
DA:843,1
DA:844,1
DA:845,1
DA:846,1
DA:847,1
DA:850,1
DA:852,1
DA:853,1
DA:854,1
DA:855,1
DA:856,1
DA:857,1
DA:859,1
DA:860,1
DA:863,1
DA:864,1
DA:865,1
DA:866,1
DA:867,1
DA:868,1
DA:869,1
DA:870,1
DA:871,1
DA:872,1
DA:874,1
DA:875,1
DA:876,1
DA:877,1
DA:880,1
DA:882,1
DA:883,1
DA:884,1
DA:885,1
DA:886,1
DA:887,1
DA:888,1
DA:889,1
DA:890,1
DA:891,1
DA:892,1
DA:893,1
DA:894,1
DA:896,1
DA:897,1
DA:898,1
DA:902,1
DA:903,1
DA:906,1
DA:908,1
DA:909,1
DA:910,1
DA:913,1
DA:915,1
DA:916,1
DA:917,1
DA:918,1
DA:921,1
DA:922,1
DA:923,1
DA:924,1
DA:926,1
DA:928,1
DA:929,1
DA:930,1
DA:933,1
DA:935,1
DA:936,1
DA:937,1
DA:939,1
DA:940,1
DA:943,1
DA:944,1
DA:945,1
DA:946,1
DA:947,1
DA:948,1
DA:949,1
DA:951,1
DA:952,1
BRF:0
BRH:0
LF:687
LH:671
end_of_record
SF:/home/irahardianto/works/projects/pathfinder/crates/pathfinder-search/src/types.rs
FN:28,_RNvXNtCs3WHQeEEeoul_17pathfinder_search5typesNtB2_12SearchParamsNtNtCsgEmfK2I1SDS_4core7default7Default7default
FN:28,_RNvXNtCs42RwvxWtfCK_17pathfinder_search5typesNtB2_12SearchParamsNtNtCsgEmfK2I1SDS_4core7default7Default7default
FNDA:0,_RNvXNtCs3WHQeEEeoul_17pathfinder_search5typesNtB2_12SearchParamsNtNtCsgEmfK2I1SDS_4core7default7Default7default
FNDA:26,_RNvXNtCs42RwvxWtfCK_17pathfinder_search5typesNtB2_12SearchParamsNtNtCsgEmfK2I1SDS_4core7default7Default7default
FNF:1
FNH:1
DA:28,26
DA:29,26
DA:30,26
DA:31,26
DA:32,26
DA:33,26
DA:34,26
DA:35,26
DA:36,26
DA:37,26
DA:38,26
BRF:0
BRH:0
LF:11
LH:11
end_of_record
SF:/home/irahardianto/works/projects/pathfinder/crates/pathfinder-treesitter/src/cache.rs
FN:344,_RNvMNtCs8udefrGgaFn_21pathfinder_treesitter5cacheNtB2_8AstCache10invalidate
FN:112,_RNvMNtCs8udefrGgaFn_21pathfinder_treesitter5cacheNtB2_8AstCache12get_or_parse
FN:223,_RNvMNtCs8udefrGgaFn_21pathfinder_treesitter5cacheNtB2_8AstCache16get_or_parse_vue
FN:92,_RNvMNtCs8udefrGgaFn_21pathfinder_treesitter5cacheNtB2_8AstCache3new
FN:159,_RNCNCNCNCNCNvMNtCs8udefrGgaFn_21pathfinder_treesitter5cacheNtBc_8AstCache12get_or_parse00s1_000Be_
FN:172,_RNCNCNCNCNCNvMNtCs8udefrGgaFn_21pathfinder_treesitter5cacheNtBc_8AstCache12get_or_parse00s1_00s_0Be_
FN:279,_RNCNCNCNCNCNvMNtCs8udefrGgaFn_21pathfinder_treesitter5cacheNtBc_8AstCache16get_or_parse_vue00s1_000Be_
FN:293,_RNCNCNCNCNCNvMNtCs8udefrGgaFn_21pathfinder_treesitter5cacheNtBc_8AstCache16get_or_parse_vue00s1_00s0_0Be_
FN:285,_RNCNCNCNCNCNvMNtCs8udefrGgaFn_21pathfinder_treesitter5cacheNtBc_8AstCache16get_or_parse_vue00s1_00s_0Be_
FN:153,_RNCNCNCNCNvMNtCs8udefrGgaFn_21pathfinder_treesitter5cacheNtBa_8AstCache12get_or_parse00s1_00Bc_
FN:273,_RNCNCNCNCNvMNtCs8udefrGgaFn_21pathfinder_treesitter5cacheNtBa_8AstCache16get_or_parse_vue00s1_00Bc_
FN:124,_RNCNCNCNvMNtCs8udefrGgaFn_21pathfinder_treesitter5cacheNtB8_8AstCache12get_or_parse000Ba_
FN:147,_RNCNCNCNvMNtCs8udefrGgaFn_21pathfinder_treesitter5cacheNtB8_8AstCache12get_or_parse00s0_0Ba_
FN:189,_RNCNCNCNvMNtCs8udefrGgaFn_21pathfinder_treesitter5cacheNtB8_8AstCache12get_or_parse00s1_0Ba_
FN:198,_RNCNCNCNvMNtCs8udefrGgaFn_21pathfinder_treesitter5cacheNtB8_8AstCache12get_or_parse00s2_0Ba_
FN:142,_RNCNCNCNvMNtCs8udefrGgaFn_21pathfinder_treesitter5cacheNtB8_8AstCache12get_or_parse00s_0Ba_
FN:236,_RNCNCNCNvMNtCs8udefrGgaFn_21pathfinder_treesitter5cacheNtB8_8AstCache16get_or_parse_vue000Ba_
FN:267,_RNCNCNCNvMNtCs8udefrGgaFn_21pathfinder_treesitter5cacheNtB8_8AstCache16get_or_parse_vue00s0_0Ba_
FN:316,_RNCNCNCNvMNtCs8udefrGgaFn_21pathfinder_treesitter5cacheNtB8_8AstCache16get_or_parse_vue00s1_0Ba_
FN:325,_RNCNCNCNvMNtCs8udefrGgaFn_21pathfinder_treesitter5cacheNtB8_8AstCache16get_or_parse_vue00s2_0Ba_
FN:262,_RNCNCNCNvMNtCs8udefrGgaFn_21pathfinder_treesitter5cacheNtB8_8AstCache16get_or_parse_vue00s_0Ba_
FN:116,_RNCNvMNtCs8udefrGgaFn_21pathfinder_treesitter5cacheNtB4_8AstCache12get_or_parse0B6_
FN:226,_RNCNvMNtCs8udefrGgaFn_21pathfinder_treesitter5cacheNtB4_8AstCache16get_or_parse_vue0B6_
FN:591,_RNCNCNCNvNtNtCsc3IEwSMbWof_21pathfinder_treesitter5cache5testss_21test_singleflight_vue000Bb_
FN:553,_RNCNCNCNvNtNtCsc3IEwSMbWof_21pathfinder_treesitter5cache5testss_44test_singleflight_prevents_redundant_parsing000Bb_
FN:588,_RNCNCNvNtNtCsc3IEwSMbWof_21pathfinder_treesitter5cache5testss_21test_singleflight_vue00B9_
FN:597,_RNCNCNvNtNtCsc3IEwSMbWof_21pathfinder_treesitter5cache5testss_21test_singleflight_vue0s_0B9_
FN:550,_RNCNCNvNtNtCsc3IEwSMbWof_21pathfinder_treesitter5cache5testss_44test_singleflight_prevents_redundant_parsing00B9_
FN:560,_RNCNCNvNtNtCsc3IEwSMbWof_21pathfinder_treesitter5cache5testss_44test_singleflight_prevents_redundant_parsing0s_0B9_
FN:578,_RNCNvNtNtCsc3IEwSMbWof_21pathfinder_treesitter5cache5testss_21test_singleflight_vue0B7_
FN:411,_RNCNvNtNtCsc3IEwSMbWof_21pathfinder_treesitter5cache5testss_23test_cache_eviction_lru0B7_
FN:463,_RNCNvNtNtCsc3IEwSMbWof_21pathfinder_treesitter5cache5testss_23test_cache_invalidation0B7_
FN:362,_RNCNvNtNtCsc3IEwSMbWof_21pathfinder_treesitter5cache5testss_26test_cache_hits_and_misses0B7_
FN:479,_RNCNvNtNtCsc3IEwSMbWof_21pathfinder_treesitter5cache5testss_30test_vue_cache_hits_and_misses0B7_
FN:539,_RNCNvNtNtCsc3IEwSMbWof_21pathfinder_treesitter5cache5testss_44test_singleflight_prevents_redundant_parsing0B7_
FN:503,_RNCNvNtNtCsc3IEwSMbWof_21pathfinder_treesitter5cache5testss_46test_vue_cache_invalidation_clears_both_caches0B7_
FN:159,_RNCNCNCNCNCNvMNtCsc3IEwSMbWof_21pathfinder_treesitter5cacheNtBc_8AstCache12get_or_parse00s1_000Be_
FN:172,_RNCNCNCNCNCNvMNtCsc3IEwSMbWof_21pathfinder_treesitter5cacheNtBc_8AstCache12get_or_parse00s1_00s_0Be_
FN:279,_RNCNCNCNCNCNvMNtCsc3IEwSMbWof_21pathfinder_treesitter5cacheNtBc_8AstCache16get_or_parse_vue00s1_000Be_
FN:293,_RNCNCNCNCNCNvMNtCsc3IEwSMbWof_21pathfinder_treesitter5cacheNtBc_8AstCache16get_or_parse_vue00s1_00s0_0Be_
FN:285,_RNCNCNCNCNCNvMNtCsc3IEwSMbWof_21pathfinder_treesitter5cacheNtBc_8AstCache16get_or_parse_vue00s1_00s_0Be_
FN:153,_RNCNCNCNCNvMNtCsc3IEwSMbWof_21pathfinder_treesitter5cacheNtBa_8AstCache12get_or_parse00s1_00Bc_
FN:273,_RNCNCNCNCNvMNtCsc3IEwSMbWof_21pathfinder_treesitter5cacheNtBa_8AstCache16get_or_parse_vue00s1_00Bc_
FN:124,_RNCNCNCNvMNtCsc3IEwSMbWof_21pathfinder_treesitter5cacheNtB8_8AstCache12get_or_parse000Ba_
FN:147,_RNCNCNCNvMNtCsc3IEwSMbWof_21pathfinder_treesitter5cacheNtB8_8AstCache12get_or_parse00s0_0Ba_
FN:189,_RNCNCNCNvMNtCsc3IEwSMbWof_21pathfinder_treesitter5cacheNtB8_8AstCache12get_or_parse00s1_0Ba_
FN:198,_RNCNCNCNvMNtCsc3IEwSMbWof_21pathfinder_treesitter5cacheNtB8_8AstCache12get_or_parse00s2_0Ba_
FN:142,_RNCNCNCNvMNtCsc3IEwSMbWof_21pathfinder_treesitter5cacheNtB8_8AstCache12get_or_parse00s_0Ba_
FN:236,_RNCNCNCNvMNtCsc3IEwSMbWof_21pathfinder_treesitter5cacheNtB8_8AstCache16get_or_parse_vue000Ba_
FN:267,_RNCNCNCNvMNtCsc3IEwSMbWof_21pathfinder_treesitter5cacheNtB8_8AstCache16get_or_parse_vue00s0_0Ba_
FN:316,_RNCNCNCNvMNtCsc3IEwSMbWof_21pathfinder_treesitter5cacheNtB8_8AstCache16get_or_parse_vue00s1_0Ba_
FN:325,_RNCNCNCNvMNtCsc3IEwSMbWof_21pathfinder_treesitter5cacheNtB8_8AstCache16get_or_parse_vue00s2_0Ba_
FN:262,_RNCNCNCNvMNtCsc3IEwSMbWof_21pathfinder_treesitter5cacheNtB8_8AstCache16get_or_parse_vue00s_0Ba_
FN:116,_RNCNvMNtCsc3IEwSMbWof_21pathfinder_treesitter5cacheNtB4_8AstCache12get_or_parse0B6_
FN:226,_RNCNvMNtCsc3IEwSMbWof_21pathfinder_treesitter5cacheNtB4_8AstCache16get_or_parse_vue0B6_
FN:578,_RNvNtNtCsc3IEwSMbWof_21pathfinder_treesitter5cache5testss_21test_singleflight_vue
FN:411,_RNvNtNtCsc3IEwSMbWof_21pathfinder_treesitter5cache5testss_23test_cache_eviction_lru
FN:463,_RNvNtNtCsc3IEwSMbWof_21pathfinder_treesitter5cache5testss_23test_cache_invalidation
FN:362,_RNvNtNtCsc3IEwSMbWof_21pathfinder_treesitter5cache5testss_26test_cache_hits_and_misses
FN:479,_RNvNtNtCsc3IEwSMbWof_21pathfinder_treesitter5cache5testss_30test_vue_cache_hits_and_misses
FN:539,_RNvNtNtCsc3IEwSMbWof_21pathfinder_treesitter5cache5testss_44test_singleflight_prevents_redundant_parsing
FN:503,_RNvNtNtCsc3IEwSMbWof_21pathfinder_treesitter5cache5testss_46test_vue_cache_invalidation_clears_both_caches
FN:344,_RNvMNtCsc3IEwSMbWof_21pathfinder_treesitter5cacheNtB2_8AstCache10invalidate
FN:112,_RNvMNtCsc3IEwSMbWof_21pathfinder_treesitter5cacheNtB2_8AstCache12get_or_parse
FN:223,_RNvMNtCsc3IEwSMbWof_21pathfinder_treesitter5cacheNtB2_8AstCache16get_or_parse_vue
FN:92,_RNvMNtCsc3IEwSMbWof_21pathfinder_treesitter5cacheNtB2_8AstCache3new
FNDA:10,_RNvMNtCs8udefrGgaFn_21pathfinder_treesitter5cacheNtB2_8AstCache10invalidate
FNDA:15,_RNvMNtCs8udefrGgaFn_21pathfinder_treesitter5cacheNtB2_8AstCache12get_or_parse
FNDA:0,_RNvMNtCs8udefrGgaFn_21pathfinder_treesitter5cacheNtB2_8AstCache16get_or_parse_vue
FNDA:13,_RNvMNtCs8udefrGgaFn_21pathfinder_treesitter5cacheNtB2_8AstCache3new
FNDA:0,_RNCNCNCNCNCNvMNtCs8udefrGgaFn_21pathfinder_treesitter5cacheNtBc_8AstCache12get_or_parse00s1_000Be_
FNDA:0,_RNCNCNCNCNCNvMNtCs8udefrGgaFn_21pathfinder_treesitter5cacheNtBc_8AstCache12get_or_parse00s1_00s_0Be_
FNDA:0,_RNCNCNCNCNCNvMNtCs8udefrGgaFn_21pathfinder_treesitter5cacheNtBc_8AstCache16get_or_parse_vue00s1_000Be_
FNDA:0,_RNCNCNCNCNCNvMNtCs8udefrGgaFn_21pathfinder_treesitter5cacheNtBc_8AstCache16get_or_parse_vue00s1_00s0_0Be_
FNDA:0,_RNCNCNCNCNCNvMNtCs8udefrGgaFn_21pathfinder_treesitter5cacheNtBc_8AstCache16get_or_parse_vue00s1_00s_0Be_
FNDA:13,_RNCNCNCNCNvMNtCs8udefrGgaFn_21pathfinder_treesitter5cacheNtBa_8AstCache12get_or_parse00s1_00Bc_
FNDA:0,_RNCNCNCNCNvMNtCs8udefrGgaFn_21pathfinder_treesitter5cacheNtBa_8AstCache16get_or_parse_vue00s1_00Bc_
FNDA:0,_RNCNCNCNvMNtCs8udefrGgaFn_21pathfinder_treesitter5cacheNtB8_8AstCache12get_or_parse000Ba_
FNDA:13,_RNCNCNCNvMNtCs8udefrGgaFn_21pathfinder_treesitter5cacheNtB8_8AstCache12get_or_parse00s0_0Ba_
FNDA:13,_RNCNCNCNvMNtCs8udefrGgaFn_21pathfinder_treesitter5cacheNtB8_8AstCache12get_or_parse00s1_0Ba_
FNDA:0,_RNCNCNCNvMNtCs8udefrGgaFn_21pathfinder_treesitter5cacheNtB8_8AstCache12get_or_parse00s2_0Ba_
FNDA:0,_RNCNCNCNvMNtCs8udefrGgaFn_21pathfinder_treesitter5cacheNtB8_8AstCache12get_or_parse00s_0Ba_
FNDA:0,_RNCNCNCNvMNtCs8udefrGgaFn_21pathfinder_treesitter5cacheNtB8_8AstCache16get_or_parse_vue000Ba_
FNDA:0,_RNCNCNCNvMNtCs8udefrGgaFn_21pathfinder_treesitter5cacheNtB8_8AstCache16get_or_parse_vue00s0_0Ba_
FNDA:0,_RNCNCNCNvMNtCs8udefrGgaFn_21pathfinder_treesitter5cacheNtB8_8AstCache16get_or_parse_vue00s1_0Ba_
FNDA:0,_RNCNCNCNvMNtCs8udefrGgaFn_21pathfinder_treesitter5cacheNtB8_8AstCache16get_or_parse_vue00s2_0Ba_
FNDA:0,_RNCNCNCNvMNtCs8udefrGgaFn_21pathfinder_treesitter5cacheNtB8_8AstCache16get_or_parse_vue00s_0Ba_
FNDA:15,_RNCNvMNtCs8udefrGgaFn_21pathfinder_treesitter5cacheNtB4_8AstCache12get_or_parse0B6_
FNDA:0,_RNCNvMNtCs8udefrGgaFn_21pathfinder_treesitter5cacheNtB4_8AstCache16get_or_parse_vue0B6_
FNDA:3,_RNCNCNCNvNtNtCsc3IEwSMbWof_21pathfinder_treesitter5cache5testss_21test_singleflight_vue000Bb_
FNDA:5,_RNCNCNCNvNtNtCsc3IEwSMbWof_21pathfinder_treesitter5cache5testss_44test_singleflight_prevents_redundant_parsing000Bb_
FNDA:3,_RNCNCNvNtNtCsc3IEwSMbWof_21pathfinder_treesitter5cache5testss_21test_singleflight_vue00B9_
FNDA:3,_RNCNCNvNtNtCsc3IEwSMbWof_21pathfinder_treesitter5cache5testss_21test_singleflight_vue0s_0B9_
FNDA:5,_RNCNCNvNtNtCsc3IEwSMbWof_21pathfinder_treesitter5cache5testss_44test_singleflight_prevents_redundant_parsing00B9_
FNDA:5,_RNCNCNvNtNtCsc3IEwSMbWof_21pathfinder_treesitter5cache5testss_44test_singleflight_prevents_redundant_parsing0s_0B9_
FNDA:1,_RNCNvNtNtCsc3IEwSMbWof_21pathfinder_treesitter5cache5testss_21test_singleflight_vue0B7_
FNDA:1,_RNCNvNtNtCsc3IEwSMbWof_21pathfinder_treesitter5cache5testss_23test_cache_eviction_lru0B7_
FNDA:1,_RNCNvNtNtCsc3IEwSMbWof_21pathfinder_treesitter5cache5testss_23test_cache_invalidation0B7_
FNDA:1,_RNCNvNtNtCsc3IEwSMbWof_21pathfinder_treesitter5cache5testss_26test_cache_hits_and_misses0B7_
FNDA:1,_RNCNvNtNtCsc3IEwSMbWof_21pathfinder_treesitter5cache5testss_30test_vue_cache_hits_and_misses0B7_
FNDA:1,_RNCNvNtNtCsc3IEwSMbWof_21pathfinder_treesitter5cache5testss_44test_singleflight_prevents_redundant_parsing0B7_
FNDA:1,_RNCNvNtNtCsc3IEwSMbWof_21pathfinder_treesitter5cache5testss_46test_vue_cache_invalidation_clears_both_caches0B7_
FNDA:0,_RNCNCNCNCNCNvMNtCsc3IEwSMbWof_21pathfinder_treesitter5cacheNtBc_8AstCache12get_or_parse00s1_000Be_
FNDA:0,_RNCNCNCNCNCNvMNtCsc3IEwSMbWof_21pathfinder_treesitter5cacheNtBc_8AstCache12get_or_parse00s1_00s_0Be_
FNDA:0,_RNCNCNCNCNCNvMNtCsc3IEwSMbWof_21pathfinder_treesitter5cacheNtBc_8AstCache16get_or_parse_vue00s1_000Be_
FNDA:0,_RNCNCNCNCNCNvMNtCsc3IEwSMbWof_21pathfinder_treesitter5cacheNtBc_8AstCache16get_or_parse_vue00s1_00s0_0Be_
FNDA:0,_RNCNCNCNCNCNvMNtCsc3IEwSMbWof_21pathfinder_treesitter5cacheNtBc_8AstCache16get_or_parse_vue00s1_00s_0Be_
FNDA:21,_RNCNCNCNCNvMNtCsc3IEwSMbWof_21pathfinder_treesitter5cacheNtBa_8AstCache12get_or_parse00s1_00Bc_
FNDA:5,_RNCNCNCNCNvMNtCsc3IEwSMbWof_21pathfinder_treesitter5cacheNtBa_8AstCache16get_or_parse_vue00s1_00Bc_
FNDA:0,_RNCNCNCNvMNtCsc3IEwSMbWof_21pathfinder_treesitter5cacheNtB8_8AstCache12get_or_parse000Ba_
FNDA:21,_RNCNCNCNvMNtCsc3IEwSMbWof_21pathfinder_treesitter5cacheNtB8_8AstCache12get_or_parse00s0_0Ba_
FNDA:21,_RNCNCNCNvMNtCsc3IEwSMbWof_21pathfinder_treesitter5cacheNtB8_8AstCache12get_or_parse00s1_0Ba_
FNDA:0,_RNCNCNCNvMNtCsc3IEwSMbWof_21pathfinder_treesitter5cacheNtB8_8AstCache12get_or_parse00s2_0Ba_
FNDA:0,_RNCNCNCNvMNtCsc3IEwSMbWof_21pathfinder_treesitter5cacheNtB8_8AstCache12get_or_parse00s_0Ba_
FNDA:0,_RNCNCNCNvMNtCsc3IEwSMbWof_21pathfinder_treesitter5cacheNtB8_8AstCache16get_or_parse_vue000Ba_
FNDA:5,_RNCNCNCNvMNtCsc3IEwSMbWof_21pathfinder_treesitter5cacheNtB8_8AstCache16get_or_parse_vue00s0_0Ba_
FNDA:5,_RNCNCNCNvMNtCsc3IEwSMbWof_21pathfinder_treesitter5cacheNtB8_8AstCache16get_or_parse_vue00s1_0Ba_
FNDA:0,_RNCNCNCNvMNtCsc3IEwSMbWof_21pathfinder_treesitter5cacheNtB8_8AstCache16get_or_parse_vue00s2_0Ba_
FNDA:0,_RNCNCNCNvMNtCsc3IEwSMbWof_21pathfinder_treesitter5cacheNtB8_8AstCache16get_or_parse_vue00s_0Ba_
FNDA:27,_RNCNvMNtCsc3IEwSMbWof_21pathfinder_treesitter5cacheNtB4_8AstCache12get_or_parse0B6_
FNDA:8,_RNCNvMNtCsc3IEwSMbWof_21pathfinder_treesitter5cacheNtB4_8AstCache16get_or_parse_vue0B6_
FNDA:1,_RNvNtNtCsc3IEwSMbWof_21pathfinder_treesitter5cache5testss_21test_singleflight_vue
FNDA:1,_RNvNtNtCsc3IEwSMbWof_21pathfinder_treesitter5cache5testss_23test_cache_eviction_lru
FNDA:1,_RNvNtNtCsc3IEwSMbWof_21pathfinder_treesitter5cache5testss_23test_cache_invalidation
FNDA:1,_RNvNtNtCsc3IEwSMbWof_21pathfinder_treesitter5cache5testss_26test_cache_hits_and_misses
FNDA:1,_RNvNtNtCsc3IEwSMbWof_21pathfinder_treesitter5cache5testss_30test_vue_cache_hits_and_misses
FNDA:1,_RNvNtNtCsc3IEwSMbWof_21pathfinder_treesitter5cache5testss_44test_singleflight_prevents_redundant_parsing
FNDA:1,_RNvNtNtCsc3IEwSMbWof_21pathfinder_treesitter5cache5testss_46test_vue_cache_invalidation_clears_both_caches
FNDA:2,_RNvMNtCsc3IEwSMbWof_21pathfinder_treesitter5cacheNtB2_8AstCache10invalidate
FNDA:27,_RNvMNtCsc3IEwSMbWof_21pathfinder_treesitter5cacheNtB2_8AstCache12get_or_parse
FNDA:8,_RNvMNtCsc3IEwSMbWof_21pathfinder_treesitter5cacheNtB2_8AstCache16get_or_parse_vue
FNDA:23,_RNvMNtCsc3IEwSMbWof_21pathfinder_treesitter5cacheNtB2_8AstCache3new
FNF:43
FNH:32
DA:92,36
DA:93,36
DA:94,36
DA:95,36
DA:96,36
DA:97,36
DA:98,36
DA:99,36
DA:100,36
DA:112,42
DA:113,42
DA:114,42
DA:115,42
DA:116,42
DA:124,0
DA:125,0
DA:126,0
DA:142,0
DA:143,0
DA:144,0
DA:147,34
DA:153,34
DA:155,34
DA:156,34
DA:157,34
DA:158,34
DA:159,0
DA:160,0
DA:161,0
DA:162,34
DA:163,34
DA:167,34
DA:168,34
DA:171,34
DA:172,0
DA:173,0
DA:174,0
DA:177,34
DA:178,34
DA:179,34
DA:180,34
DA:181,34
DA:182,34
DA:183,34
DA:184,34
DA:185,34
DA:186,34
DA:188,34
DA:189,68
DA:198,0
DA:199,0
DA:200,0
DA:211,42
DA:223,8
DA:224,8
DA:225,8
DA:226,8
DA:236,0
DA:237,0
DA:238,0
DA:262,0
DA:263,0
DA:264,0
DA:267,5
DA:273,5
DA:275,5
DA:276,5
DA:277,5
DA:278,5
DA:279,0
DA:280,0
DA:281,0
DA:282,5
DA:283,5
DA:284,5
DA:285,0
DA:286,0
DA:287,0
DA:289,5
DA:290,5
DA:291,5
DA:292,5
DA:293,0
DA:294,0
DA:295,0
DA:297,5
DA:298,5
DA:299,5
DA:300,5
DA:301,5
DA:302,5
DA:303,5
DA:304,5
DA:306,5
DA:307,5
DA:308,5
DA:309,5
DA:310,5
DA:311,5
DA:312,5
DA:313,5
DA:315,5
DA:316,10
DA:325,0
DA:326,0
DA:327,0
DA:338,8
DA:344,12
DA:345,12
DA:346,12
DA:347,12
DA:348,12
DA:349,12
DA:350,12
DA:351,12
DA:362,1
DA:363,1
DA:365,1
DA:366,1
DA:367,1
DA:370,1
DA:371,1
DA:372,1
DA:373,1
DA:374,1
DA:377,1
DA:378,1
DA:379,1
DA:380,1
DA:382,1
DA:384,1
DA:385,1
DA:386,1
DA:390,1
DA:391,1
DA:392,1
DA:393,1
DA:395,1
DA:401,1
DA:402,1
DA:403,1
DA:404,1
DA:405,1
DA:406,1
DA:407,1
DA:408,1
DA:411,1
DA:412,1
DA:414,1
DA:415,1
DA:416,1
DA:417,1
DA:418,1
DA:419,1
DA:422,1
DA:423,1
DA:424,1
DA:425,1
DA:427,1
DA:428,1
DA:429,1
DA:430,1
DA:431,1
DA:434,1
DA:435,1
DA:436,1
DA:437,1
DA:441,1
DA:442,1
DA:443,1
DA:444,1
DA:445,1
DA:448,1
DA:449,1
DA:450,1
DA:451,1
DA:453,1
DA:454,1
DA:455,1
DA:456,1
DA:457,1
DA:458,1
DA:459,1
DA:460,1
DA:463,1
DA:464,1
DA:465,1
DA:466,1
DA:468,1
DA:469,1
DA:470,1
DA:471,1
DA:472,1
DA:474,1
DA:475,1
DA:476,1
DA:479,1
DA:480,1
DA:482,1
DA:483,1
DA:484,1
DA:487,1
DA:488,1
DA:489,1
DA:490,1
DA:493,1
DA:494,1
DA:496,1
DA:497,1
DA:498,1
DA:499,1
DA:500,1
DA:503,1
DA:504,1
DA:507,1
DA:508,1
DA:509,1
DA:510,1
DA:511,1
DA:512,1
DA:515,1
DA:516,1
DA:517,1
DA:518,1
DA:520,1
DA:521,1
DA:525,1
DA:527,1
DA:528,1
DA:533,1
DA:534,1
DA:539,1
DA:540,1
DA:543,1
DA:544,1
DA:545,1
DA:546,1
DA:549,1
DA:550,5
DA:551,5
DA:552,5
DA:553,5
DA:554,5
DA:557,1
DA:558,1
DA:559,1
DA:560,5
DA:561,1
DA:564,4
DA:565,4
DA:566,4
DA:567,4
DA:568,1
DA:569,4
DA:570,1
DA:571,1
DA:572,1
DA:573,1
DA:574,1
DA:578,1
DA:579,1
DA:581,1
DA:582,1
DA:583,1
DA:584,1
DA:587,1
DA:588,3
DA:589,3
DA:590,3
DA:591,3
DA:592,3
DA:594,1
DA:595,1
DA:596,1
DA:597,3
DA:598,1
DA:601,2
DA:602,2
DA:603,1
DA:604,1
DA:605,1
DA:606,1
DA:607,1
BRF:0
BRH:0
LF:324
LH:286
end_of_record
SF:/home/irahardianto/works/projects/pathfinder/crates/pathfinder-treesitter/src/error.rs
FN:38,_RNvXNtCs8udefrGgaFn_21pathfinder_treesitter5errorNtNtCsuZExG01YC8_17pathfinder_common5error15PathfinderErrorINtNtCsgEmfK2I1SDS_4core7convert4FromNtB2_12SurgeonErrorE4from
FN:38,_RNvXNtCsc3IEwSMbWof_21pathfinder_treesitter5errorNtNtCsuZExG01YC8_17pathfinder_common5error15PathfinderErrorINtNtCsgEmfK2I1SDS_4core7convert4FromNtB2_12SurgeonErrorE4from
FNDA:4,_RNvXNtCs8udefrGgaFn_21pathfinder_treesitter5errorNtNtCsuZExG01YC8_17pathfinder_common5error15PathfinderErrorINtNtCsgEmfK2I1SDS_4core7convert4FromNtB2_12SurgeonErrorE4from
FNDA:0,_RNvXNtCsc3IEwSMbWof_21pathfinder_treesitter5errorNtNtCsuZExG01YC8_17pathfinder_common5error15PathfinderErrorINtNtCsgEmfK2I1SDS_4core7convert4FromNtB2_12SurgeonErrorE4from
FNF:1
FNH:1
DA:38,4
DA:39,4
DA:40,4
DA:41,4
DA:42,4
DA:43,4
DA:44,4
DA:46,0
DA:47,0
DA:49,0
DA:50,0
DA:52,0
DA:53,0
DA:54,0
DA:55,0
DA:56,0
DA:57,0
DA:58,0
DA:59,0
DA:60,0
DA:61,0
DA:64,4
BRF:0
BRH:0
LF:22
LH:8
end_of_record
SF:/home/irahardianto/works/projects/pathfinder/crates/pathfinder-treesitter/src/language.rs
FN:86,_RNvMNtCs8udefrGgaFn_21pathfinder_treesitter8languageNtB2_17SupportedLanguage10node_types
FN:129,_RNvMNtCs8udefrGgaFn_21pathfinder_treesitter8languageNtB2_17SupportedLanguage17preprocess_source
FN:59,_RNvMNtCs8udefrGgaFn_21pathfinder_treesitter8languageNtB2_17SupportedLanguage6as_str
FN:43,_RNvMNtCs8udefrGgaFn_21pathfinder_treesitter8languageNtB2_17SupportedLanguage6detect
FN:73,_RNvMNtCs8udefrGgaFn_21pathfinder_treesitter8languageNtB2_17SupportedLanguage7grammar
FN:147,_RNvNtCs8udefrGgaFn_21pathfinder_treesitter8language18extract_vue_script
FN:162,_RNCNvNtCs8udefrGgaFn_21pathfinder_treesitter8language18extract_vue_script0B5_
FN:86,_RNvMNtCsc3IEwSMbWof_21pathfinder_treesitter8languageNtB2_17SupportedLanguage10node_types
FN:129,_RNvMNtCsc3IEwSMbWof_21pathfinder_treesitter8languageNtB2_17SupportedLanguage17preprocess_source
FN:59,_RNvMNtCsc3IEwSMbWof_21pathfinder_treesitter8languageNtB2_17SupportedLanguage6as_str
FN:43,_RNvMNtCsc3IEwSMbWof_21pathfinder_treesitter8languageNtB2_17SupportedLanguage6detect
FN:73,_RNvMNtCsc3IEwSMbWof_21pathfinder_treesitter8languageNtB2_17SupportedLanguage7grammar
FN:147,_RNvNtCsc3IEwSMbWof_21pathfinder_treesitter8language18extract_vue_script
FN:207,_RNvNtNtCsc3IEwSMbWof_21pathfinder_treesitter8language5testss_20test_detect_language
FN:253,_RNvNtNtCsc3IEwSMbWof_21pathfinder_treesitter8language5testss_29test_extract_vue_script_basic
FN:266,_RNvNtNtCsc3IEwSMbWof_21pathfinder_treesitter8language5testss_29test_extract_vue_script_setup
FN:244,_RNvNtNtCsc3IEwSMbWof_21pathfinder_treesitter8language5testss_31test_grammar_loads_successfully
FN:274,_RNvNtNtCsc3IEwSMbWof_21pathfinder_treesitter8language5testss_39test_extract_vue_script_no_script_block
FN:162,_RNCNvNtCsc3IEwSMbWof_21pathfinder_treesitter8language18extract_vue_script0B5_
FNDA:17,_RNvMNtCs8udefrGgaFn_21pathfinder_treesitter8languageNtB2_17SupportedLanguage10node_types
FNDA:13,_RNvMNtCs8udefrGgaFn_21pathfinder_treesitter8languageNtB2_17SupportedLanguage17preprocess_source
FNDA:1,_RNvMNtCs8udefrGgaFn_21pathfinder_treesitter8languageNtB2_17SupportedLanguage6as_str
FNDA:47,_RNvMNtCs8udefrGgaFn_21pathfinder_treesitter8languageNtB2_17SupportedLanguage6detect
FNDA:15,_RNvMNtCs8udefrGgaFn_21pathfinder_treesitter8languageNtB2_17SupportedLanguage7grammar
FNDA:0,_RNvNtCs8udefrGgaFn_21pathfinder_treesitter8language18extract_vue_script
FNDA:0,_RNCNvNtCs8udefrGgaFn_21pathfinder_treesitter8language18extract_vue_script0B5_
FNDA:47,_RNvMNtCsc3IEwSMbWof_21pathfinder_treesitter8languageNtB2_17SupportedLanguage10node_types
FNDA:21,_RNvMNtCsc3IEwSMbWof_21pathfinder_treesitter8languageNtB2_17SupportedLanguage17preprocess_source
FNDA:8,_RNvMNtCsc3IEwSMbWof_21pathfinder_treesitter8languageNtB2_17SupportedLanguage6as_str
FNDA:29,_RNvMNtCsc3IEwSMbWof_21pathfinder_treesitter8languageNtB2_17SupportedLanguage6detect
FNDA:51,_RNvMNtCsc3IEwSMbWof_21pathfinder_treesitter8languageNtB2_17SupportedLanguage7grammar
FNDA:3,_RNvNtCsc3IEwSMbWof_21pathfinder_treesitter8language18extract_vue_script
FNDA:1,_RNvNtNtCsc3IEwSMbWof_21pathfinder_treesitter8language5testss_20test_detect_language
FNDA:1,_RNvNtNtCsc3IEwSMbWof_21pathfinder_treesitter8language5testss_29test_extract_vue_script_basic
FNDA:1,_RNvNtNtCsc3IEwSMbWof_21pathfinder_treesitter8language5testss_29test_extract_vue_script_setup
FNDA:1,_RNvNtNtCsc3IEwSMbWof_21pathfinder_treesitter8language5testss_31test_grammar_loads_successfully
FNDA:1,_RNvNtNtCsc3IEwSMbWof_21pathfinder_treesitter8language5testss_39test_extract_vue_script_no_script_block
FNDA:32,_RNCNvNtCsc3IEwSMbWof_21pathfinder_treesitter8language18extract_vue_script0B5_
FNF:12
FNH:12
DA:43,76
DA:44,76
DA:45,74
DA:46,74
DA:47,35
DA:48,19
DA:49,18
DA:50,17
DA:51,13
DA:52,5
DA:53,2
DA:55,76
DA:59,9
DA:60,9
DA:61,3
DA:62,2
DA:63,1
DA:64,0
DA:65,0
DA:66,1
DA:67,2
DA:69,9
DA:73,66
DA:74,66
DA:75,35
DA:76,10
DA:77,7
DA:78,0
DA:79,4
DA:80,10
DA:82,66
DA:86,64
DA:87,64
DA:88,26
DA:89,26
DA:90,26
DA:91,26
DA:92,26
DA:93,26
DA:94,26
DA:95,25
DA:96,25
DA:97,25
DA:98,25
DA:99,25
DA:100,25
DA:101,25
DA:102,3
DA:103,3
DA:104,3
DA:105,3
DA:106,3
DA:107,3
DA:108,3
DA:109,10
DA:110,10
DA:111,10
DA:112,10
DA:113,10
DA:114,10
DA:115,10
DA:116,10
DA:117,10
DA:119,64
DA:129,34
DA:130,34
DA:131,0
DA:133,34
DA:135,34
DA:147,3
DA:148,3
DA:149,0
DA:153,2
DA:154,3
DA:155,3
DA:156,3
DA:157,110
DA:159,109
DA:160,2
DA:162,32
DA:163,2
DA:165,2
DA:166,2
DA:167,2
DA:168,0
DA:169,0
DA:170,107
DA:171,107
DA:173,3
DA:174,2
DA:175,1
DA:180,2
DA:181,2
DA:182,0
DA:185,2
DA:189,2
DA:190,104
DA:191,104
DA:192,2
DA:193,102
DA:194,102
DA:195,102
DA:197,2
DA:198,2
DA:199,3
DA:207,1
DA:208,1
DA:209,1
DA:212,1
DA:213,1
DA:216,1
DA:217,1
DA:220,1
DA:221,1
DA:224,1
DA:225,1
DA:228,1
DA:229,1
DA:233,1
DA:234,1
DA:238,1
DA:239,1
DA:240,1
DA:241,1
DA:244,1
DA:246,1
DA:247,1
DA:248,1
DA:249,1
DA:250,1
DA:253,1
DA:254,1
DA:255,1
DA:256,1
DA:258,1
DA:259,1
DA:260,1
DA:262,1
DA:263,1
DA:266,1
DA:267,1
DA:268,1
DA:269,1
DA:270,1
DA:271,1
DA:274,1
DA:275,1
DA:276,1
DA:278,1
DA:279,1
BRF:0
BRH:0
LF:151
LH:143
end_of_record
SF:/home/irahardianto/works/projects/pathfinder/crates/pathfinder-treesitter/src/mock.rs
FN:67,_RNvMNtCs8udefrGgaFn_21pathfinder_treesitter4mockNtB2_11MockSurgeon3new
FN:144,_RNvXs1_NtCs8udefrGgaFn_21pathfinder_treesitter4mockNtB5_11MockSurgeonNtNtB7_7surgeon7Surgeon15extract_symbols
FN:163,_RNvXs1_NtCs8udefrGgaFn_21pathfinder_treesitter4mockNtB5_11MockSurgeonNtNtB7_7surgeon7Surgeon16enclosing_symbol
FN:123,_RNvXs1_NtCs8udefrGgaFn_21pathfinder_treesitter4mockNtB5_11MockSurgeonNtNtB7_7surgeon7Surgeon16read_source_file
FN:185,_RNvXs1_NtCs8udefrGgaFn_21pathfinder_treesitter4mockNtB5_11MockSurgeonNtNtB7_7surgeon7Surgeon17generate_skeleton
FN:102,_RNvXs1_NtCs8udefrGgaFn_21pathfinder_treesitter4mockNtB5_11MockSurgeonNtNtB7_7surgeon7Surgeon17read_symbol_scope
FN:217,_RNvXs1_NtCs8udefrGgaFn_21pathfinder_treesitter4mockNtB5_11MockSurgeonNtNtB7_7surgeon7Surgeon18resolve_body_range
FN:231,_RNvXs1_NtCs8udefrGgaFn_21pathfinder_treesitter4mockNtB5_11MockSurgeonNtNtB7_7surgeon7Surgeon18resolve_full_range
FN:245,_RNvXs1_NtCs8udefrGgaFn_21pathfinder_treesitter4mockNtB5_11MockSurgeonNtNtB7_7surgeon7Surgeon20resolve_symbol_range
FN:261,_RNvXs1_NtCs8udefrGgaFn_21pathfinder_treesitter4mockNtB5_11MockSurgeonNtNtB7_7surgeon7Surgeon21node_type_at_position
FN:75,_RINvMNtCs8udefrGgaFn_21pathfinder_treesitter4mockNtB3_11MockSurgeon22resolve_range_dispatchTNtNtB5_7surgeon11SymbolRangeINtNtCslNYArtu3iFV_5alloc4sync3ArcShENtNtCsuZExG01YC8_17pathfinder_common5types11VersionHashEEB5_
FN:75,_RINvMNtCs8udefrGgaFn_21pathfinder_treesitter4mockNtB3_11MockSurgeon22resolve_range_dispatchTNtNtB5_7surgeon9BodyRangeINtNtCslNYArtu3iFV_5alloc4sync3ArcShENtNtCsuZExG01YC8_17pathfinder_common5types11VersionHashEEB5_
FN:75,_RINvMNtCs8udefrGgaFn_21pathfinder_treesitter4mockNtB3_11MockSurgeon22resolve_range_dispatchTNtNtB5_7surgeon9FullRangeINtNtCslNYArtu3iFV_5alloc4sync3ArcShENtNtCsuZExG01YC8_17pathfinder_common5types11VersionHashEEB5_
FN:75,_RINvMNtCsc3IEwSMbWof_21pathfinder_treesitter4mockNtB3_11MockSurgeon22resolve_range_dispatchpEB5_
FN:163,_RNvXs1_NtCsc3IEwSMbWof_21pathfinder_treesitter4mockNtB5_11MockSurgeonNtNtB7_7surgeon7Surgeon16enclosing_symbol
FN:123,_RNvXs1_NtCsc3IEwSMbWof_21pathfinder_treesitter4mockNtB5_11MockSurgeonNtNtB7_7surgeon7Surgeon16read_source_file
FN:185,_RNvXs1_NtCsc3IEwSMbWof_21pathfinder_treesitter4mockNtB5_11MockSurgeonNtNtB7_7surgeon7Surgeon17generate_skeleton
FN:102,_RNvXs1_NtCsc3IEwSMbWof_21pathfinder_treesitter4mockNtB5_11MockSurgeonNtNtB7_7surgeon7Surgeon17read_symbol_scope
FN:217,_RNvXs1_NtCsc3IEwSMbWof_21pathfinder_treesitter4mockNtB5_11MockSurgeonNtNtB7_7surgeon7Surgeon18resolve_body_range
FN:231,_RNvXs1_NtCsc3IEwSMbWof_21pathfinder_treesitter4mockNtB5_11MockSurgeonNtNtB7_7surgeon7Surgeon18resolve_full_range
FN:245,_RNvXs1_NtCsc3IEwSMbWof_21pathfinder_treesitter4mockNtB5_11MockSurgeonNtNtB7_7surgeon7Surgeon20resolve_symbol_range
FN:261,_RNvXs1_NtCsc3IEwSMbWof_21pathfinder_treesitter4mockNtB5_11MockSurgeonNtNtB7_7surgeon7Surgeon21node_type_at_position
FN:67,_RNvMNtCsc3IEwSMbWof_21pathfinder_treesitter4mockNtB2_11MockSurgeon3new
FN:144,_RNvXs1_NtCsc3IEwSMbWof_21pathfinder_treesitter4mockNtB5_11MockSurgeonNtNtB7_7surgeon7Surgeon15extract_symbols
FNDA:168,_RNvMNtCs8udefrGgaFn_21pathfinder_treesitter4mockNtB2_11MockSurgeon3new
FNDA:0,_RNvXs1_NtCs8udefrGgaFn_21pathfinder_treesitter4mockNtB5_11MockSurgeonNtNtB7_7surgeon7Surgeon15extract_symbols
FNDA:32,_RNvXs1_NtCs8udefrGgaFn_21pathfinder_treesitter4mockNtB5_11MockSurgeonNtNtB7_7surgeon7Surgeon16enclosing_symbol
FNDA:0,_RNvXs1_NtCs8udefrGgaFn_21pathfinder_treesitter4mockNtB5_11MockSurgeonNtNtB7_7surgeon7Surgeon16read_source_file
FNDA:4,_RNvXs1_NtCs8udefrGgaFn_21pathfinder_treesitter4mockNtB5_11MockSurgeonNtNtB7_7surgeon7Surgeon17generate_skeleton
FNDA:34,_RNvXs1_NtCs8udefrGgaFn_21pathfinder_treesitter4mockNtB5_11MockSurgeonNtNtB7_7surgeon7Surgeon17read_symbol_scope
FNDA:50,_RNvXs1_NtCs8udefrGgaFn_21pathfinder_treesitter4mockNtB5_11MockSurgeonNtNtB7_7surgeon7Surgeon18resolve_body_range
FNDA:22,_RNvXs1_NtCs8udefrGgaFn_21pathfinder_treesitter4mockNtB5_11MockSurgeonNtNtB7_7surgeon7Surgeon18resolve_full_range
FNDA:4,_RNvXs1_NtCs8udefrGgaFn_21pathfinder_treesitter4mockNtB5_11MockSurgeonNtNtB7_7surgeon7Surgeon20resolve_symbol_range
FNDA:32,_RNvXs1_NtCs8udefrGgaFn_21pathfinder_treesitter4mockNtB5_11MockSurgeonNtNtB7_7surgeon7Surgeon21node_type_at_position
FNDA:4,_RINvMNtCs8udefrGgaFn_21pathfinder_treesitter4mockNtB3_11MockSurgeon22resolve_range_dispatchTNtNtB5_7surgeon11SymbolRangeINtNtCslNYArtu3iFV_5alloc4sync3ArcShENtNtCsuZExG01YC8_17pathfinder_common5types11VersionHashEEB5_
FNDA:50,_RINvMNtCs8udefrGgaFn_21pathfinder_treesitter4mockNtB3_11MockSurgeon22resolve_range_dispatchTNtNtB5_7surgeon9BodyRangeINtNtCslNYArtu3iFV_5alloc4sync3ArcShENtNtCsuZExG01YC8_17pathfinder_common5types11VersionHashEEB5_
FNDA:22,_RINvMNtCs8udefrGgaFn_21pathfinder_treesitter4mockNtB3_11MockSurgeon22resolve_range_dispatchTNtNtB5_7surgeon9FullRangeINtNtCslNYArtu3iFV_5alloc4sync3ArcShENtNtCsuZExG01YC8_17pathfinder_common5types11VersionHashEEB5_
FNDA:0,_RINvMNtCsc3IEwSMbWof_21pathfinder_treesitter4mockNtB3_11MockSurgeon22resolve_range_dispatchpEB5_
FNDA:0,_RNvXs1_NtCsc3IEwSMbWof_21pathfinder_treesitter4mockNtB5_11MockSurgeonNtNtB7_7surgeon7Surgeon16enclosing_symbol
FNDA:0,_RNvXs1_NtCsc3IEwSMbWof_21pathfinder_treesitter4mockNtB5_11MockSurgeonNtNtB7_7surgeon7Surgeon16read_source_file
FNDA:0,_RNvXs1_NtCsc3IEwSMbWof_21pathfinder_treesitter4mockNtB5_11MockSurgeonNtNtB7_7surgeon7Surgeon17generate_skeleton
FNDA:0,_RNvXs1_NtCsc3IEwSMbWof_21pathfinder_treesitter4mockNtB5_11MockSurgeonNtNtB7_7surgeon7Surgeon17read_symbol_scope
FNDA:0,_RNvXs1_NtCsc3IEwSMbWof_21pathfinder_treesitter4mockNtB5_11MockSurgeonNtNtB7_7surgeon7Surgeon18resolve_body_range
FNDA:0,_RNvXs1_NtCsc3IEwSMbWof_21pathfinder_treesitter4mockNtB5_11MockSurgeonNtNtB7_7surgeon7Surgeon18resolve_full_range
FNDA:0,_RNvXs1_NtCsc3IEwSMbWof_21pathfinder_treesitter4mockNtB5_11MockSurgeonNtNtB7_7surgeon7Surgeon20resolve_symbol_range
FNDA:0,_RNvXs1_NtCsc3IEwSMbWof_21pathfinder_treesitter4mockNtB5_11MockSurgeonNtNtB7_7surgeon7Surgeon21node_type_at_position
FNDA:3,_RNvMNtCsc3IEwSMbWof_21pathfinder_treesitter4mockNtB2_11MockSurgeon3new
FNDA:3,_RNvXs1_NtCsc3IEwSMbWof_21pathfinder_treesitter4mockNtB5_11MockSurgeonNtNtB7_7surgeon7Surgeon15extract_symbols
FNF:11
FNH:10
DA:67,171
DA:68,171
DA:69,171
DA:75,76
DA:76,76
DA:77,76
DA:78,76
DA:79,76
DA:80,76
DA:81,76
DA:82,76
DA:83,76
DA:84,76
DA:85,76
DA:87,76
DA:88,76
DA:89,76
DA:92,76
DA:93,76
DA:102,34
DA:117,34
DA:123,0
DA:138,0
DA:144,3
DA:156,3
DA:163,32
DA:178,32
DA:185,4
DA:211,4
DA:217,50
DA:225,50
DA:231,22
DA:239,22
DA:245,4
DA:253,4
DA:261,32
DA:283,32
BRF:0
BRH:0
LF:37
LH:35
end_of_record
SF:/home/irahardianto/works/projects/pathfinder/crates/pathfinder-treesitter/src/parser.rs
FN:21,_RNvMNtCs8udefrGgaFn_21pathfinder_treesitter6parserNtB2_9AstParser12parse_source
FN:31,_RNCNvMNtCs8udefrGgaFn_21pathfinder_treesitter6parserNtB4_9AstParser12parse_source0B6_
FN:42,_RNCNvMNtCs8udefrGgaFn_21pathfinder_treesitter6parserNtB4_9AstParser12parse_sources_0B6_
FN:21,_RNvMNtCsc3IEwSMbWof_21pathfinder_treesitter6parserNtB2_9AstParser12parse_source
FN:56,_RNvNtNtCsc3IEwSMbWof_21pathfinder_treesitter6parser5testss_20test_parse_go_source
FN:71,_RNvNtNtCsc3IEwSMbWof_21pathfinder_treesitter6parser5testss_28test_parse_typescript_source
FN:84,_RNvNtNtCsc3IEwSMbWof_21pathfinder_treesitter6parser5testss_50test_parse_invalid_source_returns_tree_with_errors
FN:31,_RNCNvMNtCsc3IEwSMbWof_21pathfinder_treesitter6parserNtB4_9AstParser12parse_source0B6_
FN:42,_RNCNvMNtCsc3IEwSMbWof_21pathfinder_treesitter6parserNtB4_9AstParser12parse_sources_0B6_
FNDA:15,_RNvMNtCs8udefrGgaFn_21pathfinder_treesitter6parserNtB2_9AstParser12parse_source
FNDA:0,_RNCNvMNtCs8udefrGgaFn_21pathfinder_treesitter6parserNtB4_9AstParser12parse_source0B6_
FNDA:0,_RNCNvMNtCs8udefrGgaFn_21pathfinder_treesitter6parserNtB4_9AstParser12parse_sources_0B6_
FNDA:47,_RNvMNtCsc3IEwSMbWof_21pathfinder_treesitter6parserNtB2_9AstParser12parse_source
FNDA:1,_RNvNtNtCsc3IEwSMbWof_21pathfinder_treesitter6parser5testss_20test_parse_go_source
FNDA:1,_RNvNtNtCsc3IEwSMbWof_21pathfinder_treesitter6parser5testss_28test_parse_typescript_source
FNDA:1,_RNvNtNtCsc3IEwSMbWof_21pathfinder_treesitter6parser5testss_50test_parse_invalid_source_returns_tree_with_errors
FNDA:0,_RNCNvMNtCsc3IEwSMbWof_21pathfinder_treesitter6parserNtB4_9AstParser12parse_source0B6_
FNDA:0,_RNCNvMNtCsc3IEwSMbWof_21pathfinder_treesitter6parserNtB4_9AstParser12parse_sources_0B6_
FNF:6
FNH:4
DA:21,62
DA:22,62
DA:23,62
DA:24,62
DA:25,62
DA:26,62
DA:28,62
DA:29,62
DA:30,62
DA:31,0
DA:32,0
DA:33,0
DA:37,62
DA:39,62
DA:40,62
DA:41,62
DA:42,0
DA:43,0
DA:44,0
DA:46,62
DA:47,62
DA:56,1
DA:57,1
DA:58,1
DA:59,1
DA:60,1
DA:61,1
DA:63,1
DA:64,1
DA:65,1
DA:67,1
DA:68,1
DA:71,1
DA:72,1
DA:73,1
DA:74,1
DA:75,1
DA:76,1
DA:78,1
DA:79,1
DA:80,1
DA:81,1
DA:84,1
DA:87,1
DA:88,1
DA:89,1
DA:90,1
DA:91,1
DA:93,1
DA:94,1
DA:95,1
BRF:0
BRH:0
LF:53
LH:45
end_of_record
SF:/home/irahardianto/works/projects/pathfinder/crates/pathfinder-treesitter/src/repo_map.rs
FN:51,_RNvMNtCs8udefrGgaFn_21pathfinder_treesitter8repo_mapNtB2_14SkeletonConfig18with_changed_files
FN:65,_RNvMNtCs8udefrGgaFn_21pathfinder_treesitter8repo_mapNtB2_14SkeletonConfig23with_exclude_extensions
FN:58,_RNvMNtCs8udefrGgaFn_21pathfinder_treesitter8repo_mapNtB2_14SkeletonConfig23with_include_extensions
FN:32,_RNvMNtCs8udefrGgaFn_21pathfinder_treesitter8repo_mapNtB2_14SkeletonConfig3new
FN:97,_RNvNtCs8udefrGgaFn_21pathfinder_treesitter8repo_map15estimate_tokens
FN:127,_RNvNtCs8udefrGgaFn_21pathfinder_treesitter8repo_map16is_symbol_public
FN:155,_RNvNtCs8udefrGgaFn_21pathfinder_treesitter8repo_map20filter_by_visibility
FN:180,_RNvNtCs8udefrGgaFn_21pathfinder_treesitter8repo_map20render_file_skeleton
FN:192,_RNvNtCs8udefrGgaFn_21pathfinder_treesitter8repo_map24render_symbols_recursive
FN:223,_RNvNtCs8udefrGgaFn_21pathfinder_treesitter8repo_map30render_truncated_file_skeleton
FN:263,_RINvNtCs8udefrGgaFn_21pathfinder_treesitter8repo_map22generate_skeleton_textNtNtB4_18treesitter_surgeon17TreeSitterSurgeonEB4_
FN:268,_RNCINvNtCs8udefrGgaFn_21pathfinder_treesitter8repo_map22generate_skeleton_textNtNtB6_18treesitter_surgeon17TreeSitterSurgeonE0B6_
FN:309,_RNCNCINvNtCs8udefrGgaFn_21pathfinder_treesitter8repo_map22generate_skeleton_textNtNtB8_18treesitter_surgeon17TreeSitterSurgeonE00B8_
FN:316,_RNCNCINvNtCs8udefrGgaFn_21pathfinder_treesitter8repo_map22generate_skeleton_textNtNtB8_18treesitter_surgeon17TreeSitterSurgeonE0s0_0B8_
FN:417,_RNCNCINvNtCs8udefrGgaFn_21pathfinder_treesitter8repo_map22generate_skeleton_textNtNtB8_18treesitter_surgeon17TreeSitterSurgeonE0s1_0B8_
FN:311,_RNCNCINvNtCs8udefrGgaFn_21pathfinder_treesitter8repo_map22generate_skeleton_textNtNtB8_18treesitter_surgeon17TreeSitterSurgeonE0s_0B8_
FN:144,_RNCNvNtCs8udefrGgaFn_21pathfinder_treesitter8repo_map16is_symbol_public0B5_
FN:165,_RNCNvNtCs8udefrGgaFn_21pathfinder_treesitter8repo_map20filter_by_visibility0B5_
FN:166,_RNCNvNtCs8udefrGgaFn_21pathfinder_treesitter8repo_map20filter_by_visibilitys_0B5_
FN:239,_RNCNvNtCs8udefrGgaFn_21pathfinder_treesitter8repo_map30render_truncated_file_skeleton0B5_
FN:65,_RNvMNtCsc3IEwSMbWof_21pathfinder_treesitter8repo_mapNtB2_14SkeletonConfig23with_exclude_extensions
FN:434,_RNvNtNtCsc3IEwSMbWof_21pathfinder_treesitter8repo_map5tests8make_sym
FN:495,_RNvNtNtCsc3IEwSMbWof_21pathfinder_treesitter8repo_map5testss_20test_estimate_tokens
FN:502,_RNvNtNtCsc3IEwSMbWof_21pathfinder_treesitter8repo_map5testss_25test_render_file_skeleton
FN:447,_RNvNtNtCsc3IEwSMbWof_21pathfinder_treesitter8repo_map5testss_32test_filter_all_keeps_everything
FN:677,_RNvNtNtCsc3IEwSMbWof_21pathfinder_treesitter8repo_map5testss_35test_generate_skeleton_with_filters
FN:565,_RNvNtNtCsc3IEwSMbWof_21pathfinder_treesitter8repo_map5testss_38test_render_symbols_recursive_directly
FN:457,_RNvNtNtCsc3IEwSMbWof_21pathfinder_treesitter8repo_map5testss_44test_filter_public_removes_underscore_prefix
FN:527,_RNvNtNtCsc3IEwSMbWof_21pathfinder_treesitter8repo_map5testss_44test_render_truncated_file_skeleton_fallback
FN:482,_RNvNtNtCsc3IEwSMbWof_21pathfinder_treesitter8repo_map5testss_46test_filter_public_recursively_prunes_children
FN:587,_RNvNtNtCsc3IEwSMbWof_21pathfinder_treesitter8repo_map5testss_58test_generate_skeleton_text_depth_reaches_nested_src_files
FN:468,_RNvNtNtCsc3IEwSMbWof_21pathfinder_treesitter8repo_map5testss_59test_filter_public_go_removes_lowercase_top_level_functions
FN:647,_RNvNtNtCsc3IEwSMbWof_21pathfinder_treesitter8repo_map5testss_59test_generate_skeleton_text_depth_3_misses_nested_src_files
FN:51,_RNvMNtCsc3IEwSMbWof_21pathfinder_treesitter8repo_mapNtB2_14SkeletonConfig18with_changed_files
FN:58,_RNvMNtCsc3IEwSMbWof_21pathfinder_treesitter8repo_mapNtB2_14SkeletonConfig23with_include_extensions
FN:32,_RNvMNtCsc3IEwSMbWof_21pathfinder_treesitter8repo_mapNtB2_14SkeletonConfig3new
FN:97,_RNvNtCsc3IEwSMbWof_21pathfinder_treesitter8repo_map15estimate_tokens
FN:127,_RNvNtCsc3IEwSMbWof_21pathfinder_treesitter8repo_map16is_symbol_public
FN:155,_RNvNtCsc3IEwSMbWof_21pathfinder_treesitter8repo_map20filter_by_visibility
FN:180,_RNvNtCsc3IEwSMbWof_21pathfinder_treesitter8repo_map20render_file_skeleton
FN:192,_RNvNtCsc3IEwSMbWof_21pathfinder_treesitter8repo_map24render_symbols_recursive
FN:223,_RNvNtCsc3IEwSMbWof_21pathfinder_treesitter8repo_map30render_truncated_file_skeleton
FN:677,_RNCNvNtNtCsc3IEwSMbWof_21pathfinder_treesitter8repo_map5testss_35test_generate_skeleton_with_filters0B7_
FN:587,_RNCNvNtNtCsc3IEwSMbWof_21pathfinder_treesitter8repo_map5testss_58test_generate_skeleton_text_depth_reaches_nested_src_files0B7_
FN:647,_RNCNvNtNtCsc3IEwSMbWof_21pathfinder_treesitter8repo_map5testss_59test_generate_skeleton_text_depth_3_misses_nested_src_files0B7_
FN:263,_RINvNtCsc3IEwSMbWof_21pathfinder_treesitter8repo_map22generate_skeleton_textNtNtB4_4mock11MockSurgeonEB4_
FN:268,_RNCINvNtCsc3IEwSMbWof_21pathfinder_treesitter8repo_map22generate_skeleton_textNtNtB6_4mock11MockSurgeonE0B6_
FN:309,_RNCNCINvNtCsc3IEwSMbWof_21pathfinder_treesitter8repo_map22generate_skeleton_textNtNtB8_4mock11MockSurgeonE00B8_
FN:316,_RNCNCINvNtCsc3IEwSMbWof_21pathfinder_treesitter8repo_map22generate_skeleton_textNtNtB8_4mock11MockSurgeonE0s0_0B8_
FN:417,_RNCNCINvNtCsc3IEwSMbWof_21pathfinder_treesitter8repo_map22generate_skeleton_textNtNtB8_4mock11MockSurgeonE0s1_0B8_
FN:311,_RNCNCINvNtCsc3IEwSMbWof_21pathfinder_treesitter8repo_map22generate_skeleton_textNtNtB8_4mock11MockSurgeonE0s_0B8_
FN:144,_RNCNvNtCsc3IEwSMbWof_21pathfinder_treesitter8repo_map16is_symbol_public0B5_
FN:165,_RNCNvNtCsc3IEwSMbWof_21pathfinder_treesitter8repo_map20filter_by_visibility0B5_
FN:166,_RNCNvNtCsc3IEwSMbWof_21pathfinder_treesitter8repo_map20filter_by_visibilitys_0B5_
FN:239,_RNCNvNtCsc3IEwSMbWof_21pathfinder_treesitter8repo_map30render_truncated_file_skeleton0B5_
FNDA:4,_RNvMNtCs8udefrGgaFn_21pathfinder_treesitter8repo_mapNtB2_14SkeletonConfig18with_changed_files
FNDA:4,_RNvMNtCs8udefrGgaFn_21pathfinder_treesitter8repo_mapNtB2_14SkeletonConfig23with_exclude_extensions
FNDA:4,_RNvMNtCs8udefrGgaFn_21pathfinder_treesitter8repo_mapNtB2_14SkeletonConfig23with_include_extensions
FNDA:4,_RNvMNtCs8udefrGgaFn_21pathfinder_treesitter8repo_mapNtB2_14SkeletonConfig3new
FNDA:0,_RNvNtCs8udefrGgaFn_21pathfinder_treesitter8repo_map15estimate_tokens
FNDA:0,_RNvNtCs8udefrGgaFn_21pathfinder_treesitter8repo_map16is_symbol_public
FNDA:0,_RNvNtCs8udefrGgaFn_21pathfinder_treesitter8repo_map20filter_by_visibility
FNDA:0,_RNvNtCs8udefrGgaFn_21pathfinder_treesitter8repo_map20render_file_skeleton
FNDA:0,_RNvNtCs8udefrGgaFn_21pathfinder_treesitter8repo_map24render_symbols_recursive
FNDA:0,_RNvNtCs8udefrGgaFn_21pathfinder_treesitter8repo_map30render_truncated_file_skeleton
FNDA:0,_RINvNtCs8udefrGgaFn_21pathfinder_treesitter8repo_map22generate_skeleton_textNtNtB4_18treesitter_surgeon17TreeSitterSurgeonEB4_
FNDA:0,_RNCINvNtCs8udefrGgaFn_21pathfinder_treesitter8repo_map22generate_skeleton_textNtNtB6_18treesitter_surgeon17TreeSitterSurgeonE0B6_
FNDA:0,_RNCNCINvNtCs8udefrGgaFn_21pathfinder_treesitter8repo_map22generate_skeleton_textNtNtB8_18treesitter_surgeon17TreeSitterSurgeonE00B8_
FNDA:0,_RNCNCINvNtCs8udefrGgaFn_21pathfinder_treesitter8repo_map22generate_skeleton_textNtNtB8_18treesitter_surgeon17TreeSitterSurgeonE0s0_0B8_
FNDA:0,_RNCNCINvNtCs8udefrGgaFn_21pathfinder_treesitter8repo_map22generate_skeleton_textNtNtB8_18treesitter_surgeon17TreeSitterSurgeonE0s1_0B8_
FNDA:0,_RNCNCINvNtCs8udefrGgaFn_21pathfinder_treesitter8repo_map22generate_skeleton_textNtNtB8_18treesitter_surgeon17TreeSitterSurgeonE0s_0B8_
FNDA:0,_RNCNvNtCs8udefrGgaFn_21pathfinder_treesitter8repo_map16is_symbol_public0B5_
FNDA:0,_RNCNvNtCs8udefrGgaFn_21pathfinder_treesitter8repo_map20filter_by_visibility0B5_
FNDA:0,_RNCNvNtCs8udefrGgaFn_21pathfinder_treesitter8repo_map20filter_by_visibilitys_0B5_
FNDA:0,_RNCNvNtCs8udefrGgaFn_21pathfinder_treesitter8repo_map30render_truncated_file_skeleton0B5_
FNDA:0,_RNvMNtCsc3IEwSMbWof_21pathfinder_treesitter8repo_mapNtB2_14SkeletonConfig23with_exclude_extensions
FNDA:11,_RNvNtNtCsc3IEwSMbWof_21pathfinder_treesitter8repo_map5tests8make_sym
FNDA:1,_RNvNtNtCsc3IEwSMbWof_21pathfinder_treesitter8repo_map5testss_20test_estimate_tokens
FNDA:1,_RNvNtNtCsc3IEwSMbWof_21pathfinder_treesitter8repo_map5testss_25test_render_file_skeleton
FNDA:1,_RNvNtNtCsc3IEwSMbWof_21pathfinder_treesitter8repo_map5testss_32test_filter_all_keeps_everything
FNDA:1,_RNvNtNtCsc3IEwSMbWof_21pathfinder_treesitter8repo_map5testss_35test_generate_skeleton_with_filters
FNDA:1,_RNvNtNtCsc3IEwSMbWof_21pathfinder_treesitter8repo_map5testss_38test_render_symbols_recursive_directly
FNDA:1,_RNvNtNtCsc3IEwSMbWof_21pathfinder_treesitter8repo_map5testss_44test_filter_public_removes_underscore_prefix
FNDA:1,_RNvNtNtCsc3IEwSMbWof_21pathfinder_treesitter8repo_map5testss_44test_render_truncated_file_skeleton_fallback
FNDA:1,_RNvNtNtCsc3IEwSMbWof_21pathfinder_treesitter8repo_map5testss_46test_filter_public_recursively_prunes_children
FNDA:1,_RNvNtNtCsc3IEwSMbWof_21pathfinder_treesitter8repo_map5testss_58test_generate_skeleton_text_depth_reaches_nested_src_files
FNDA:1,_RNvNtNtCsc3IEwSMbWof_21pathfinder_treesitter8repo_map5testss_59test_filter_public_go_removes_lowercase_top_level_functions
FNDA:1,_RNvNtNtCsc3IEwSMbWof_21pathfinder_treesitter8repo_map5testss_59test_generate_skeleton_text_depth_3_misses_nested_src_files
FNDA:1,_RNvMNtCsc3IEwSMbWof_21pathfinder_treesitter8repo_mapNtB2_14SkeletonConfig18with_changed_files
FNDA:1,_RNvMNtCsc3IEwSMbWof_21pathfinder_treesitter8repo_mapNtB2_14SkeletonConfig23with_include_extensions
FNDA:4,_RNvMNtCsc3IEwSMbWof_21pathfinder_treesitter8repo_mapNtB2_14SkeletonConfig3new
FNDA:8,_RNvNtCsc3IEwSMbWof_21pathfinder_treesitter8repo_map15estimate_tokens
FNDA:9,_RNvNtCsc3IEwSMbWof_21pathfinder_treesitter8repo_map16is_symbol_public
FNDA:12,_RNvNtCsc3IEwSMbWof_21pathfinder_treesitter8repo_map20filter_by_visibility
FNDA:3,_RNvNtCsc3IEwSMbWof_21pathfinder_treesitter8repo_map20render_file_skeleton
FNDA:8,_RNvNtCsc3IEwSMbWof_21pathfinder_treesitter8repo_map24render_symbols_recursive
FNDA:1,_RNvNtCsc3IEwSMbWof_21pathfinder_treesitter8repo_map30render_truncated_file_skeleton
FNDA:1,_RNCNvNtNtCsc3IEwSMbWof_21pathfinder_treesitter8repo_map5testss_35test_generate_skeleton_with_filters0B7_
FNDA:1,_RNCNvNtNtCsc3IEwSMbWof_21pathfinder_treesitter8repo_map5testss_58test_generate_skeleton_text_depth_reaches_nested_src_files0B7_
FNDA:1,_RNCNvNtNtCsc3IEwSMbWof_21pathfinder_treesitter8repo_map5testss_59test_generate_skeleton_text_depth_3_misses_nested_src_files0B7_
FNDA:4,_RINvNtCsc3IEwSMbWof_21pathfinder_treesitter8repo_map22generate_skeleton_textNtNtB4_4mock11MockSurgeonEB4_
FNDA:4,_RNCINvNtCsc3IEwSMbWof_21pathfinder_treesitter8repo_map22generate_skeleton_textNtNtB6_4mock11MockSurgeonE0B6_
FNDA:3,_RNCNCINvNtCsc3IEwSMbWof_21pathfinder_treesitter8repo_map22generate_skeleton_textNtNtB8_4mock11MockSurgeonE00B8_
FNDA:0,_RNCNCINvNtCsc3IEwSMbWof_21pathfinder_treesitter8repo_map22generate_skeleton_textNtNtB8_4mock11MockSurgeonE0s0_0B8_
FNDA:3,_RNCNCINvNtCsc3IEwSMbWof_21pathfinder_treesitter8repo_map22generate_skeleton_textNtNtB8_4mock11MockSurgeonE0s1_0B8_
FNDA:3,_RNCNCINvNtCsc3IEwSMbWof_21pathfinder_treesitter8repo_map22generate_skeleton_textNtNtB8_4mock11MockSurgeonE0s_0B8_
FNDA:3,_RNCNvNtCsc3IEwSMbWof_21pathfinder_treesitter8repo_map16is_symbol_public0B5_
FNDA:9,_RNCNvNtCsc3IEwSMbWof_21pathfinder_treesitter8repo_map20filter_by_visibility0B5_
FNDA:5,_RNCNvNtCsc3IEwSMbWof_21pathfinder_treesitter8repo_map20filter_by_visibilitys_0B5_
FNDA:200,_RNCNvNtCsc3IEwSMbWof_21pathfinder_treesitter8repo_map30render_truncated_file_skeleton0B5_
FNF:35
FNH:34
DA:32,8
DA:33,8
DA:34,8
DA:35,8
DA:36,8
DA:37,8
DA:38,8
DA:39,8
DA:40,8
DA:41,8
DA:42,8
DA:43,8
DA:44,8
DA:45,8
DA:46,8
DA:47,8
DA:51,5
DA:52,5
DA:53,5
DA:54,5
DA:58,5
DA:59,5
DA:60,5
DA:61,5
DA:65,4
DA:66,4
DA:67,4
DA:68,4
DA:97,8
DA:98,8
DA:99,8
DA:100,8
DA:127,9
DA:128,9
DA:130,9
DA:131,3
DA:132,6
DA:134,6
DA:135,0
DA:136,3
DA:144,3
DA:145,3
DA:146,3
DA:147,9
DA:155,12
DA:156,12
DA:157,12
DA:158,12
DA:159,12
DA:160,12
DA:161,4
DA:162,8
DA:163,8
DA:164,8
DA:165,9
DA:166,8
DA:167,5
DA:168,5
DA:169,5
DA:170,8
DA:171,12
DA:180,3
DA:181,3
DA:182,3
DA:185,3
DA:186,1
DA:187,2
DA:189,2
DA:190,3
DA:192,8
DA:193,8
DA:194,406
DA:196,406
DA:197,2
DA:198,3
DA:199,0
DA:200,401
DA:201,0
DA:202,0
DA:203,0
DA:204,0
DA:206,0
DA:207,0
DA:208,0
DA:209,0
DA:210,0
DA:213,406
DA:214,406
DA:216,406
DA:217,3
DA:218,403
DA:220,8
DA:223,1
DA:224,1
DA:225,1
DA:227,1
DA:228,1
DA:229,1
DA:231,0
DA:233,1
DA:234,1
DA:236,1
DA:237,1
DA:238,1
DA:239,200
DA:240,1
DA:241,1
DA:242,1
DA:243,1
DA:244,0
DA:248,1
DA:249,0
DA:251,1
DA:253,1
DA:263,4
DA:264,4
DA:265,4
DA:266,4
DA:267,4
DA:268,4
DA:272,4
DA:274,4
DA:275,4
DA:276,4
DA:277,4
DA:278,4
DA:280,4
DA:282,4
DA:283,4
DA:284,4
DA:285,4
DA:286,4
DA:287,4
DA:289,19
DA:290,19
DA:292,19
DA:293,19
DA:294,12
DA:295,7
DA:298,7
DA:301,7
DA:302,3
DA:303,2
DA:304,1
DA:305,4
DA:308,5
DA:309,3
DA:310,3
DA:311,3
DA:313,2
DA:314,1
DA:315,1
DA:316,0
DA:318,0
DA:319,1
DA:320,2
DA:323,3
DA:324,0
DA:328,3
DA:330,3
DA:331,3
DA:332,3
DA:338,3
DA:339,3
DA:340,0
DA:341,0
DA:342,0
DA:346,0
DA:349,3
DA:351,3
DA:354,3
DA:355,3
DA:356,0
DA:357,0
DA:358,0
DA:362,0
DA:367,3
DA:368,3
DA:370,3
DA:371,2
DA:372,1
DA:374,1
DA:376,1
DA:377,1
DA:379,1
DA:381,1
DA:382,1
DA:385,1
DA:386,1
DA:387,0
DA:389,0
DA:390,0
DA:392,0
DA:394,0
DA:395,0
DA:396,0
DA:397,1
DA:399,1
DA:400,1
DA:403,4
DA:409,3
DA:410,3
DA:412,1
DA:416,4
DA:417,4
DA:418,4
DA:419,4
DA:420,4
DA:421,4
DA:422,4
DA:424,4
DA:434,11
DA:435,11
DA:436,11
DA:437,11
DA:438,11
DA:439,11
DA:440,11
DA:441,11
DA:442,11
DA:443,11
DA:444,11
DA:447,1
DA:448,1
DA:449,1
DA:450,1
DA:452,1
DA:453,1
DA:454,1
DA:457,1
DA:458,1
DA:459,1
DA:460,1
DA:462,1
DA:463,1
DA:464,1
DA:465,1
DA:468,1
DA:469,1
DA:470,1
DA:471,1
DA:472,1
DA:473,1
DA:475,1
DA:476,1
DA:477,1
DA:478,1
DA:479,1
DA:482,1
DA:483,1
DA:484,1
DA:485,1
DA:486,1
DA:488,1
DA:489,1
DA:490,1
DA:491,1
DA:492,1
DA:495,1
DA:496,1
DA:497,1
DA:498,1
DA:499,1
DA:502,1
DA:503,1
DA:504,1
DA:505,1
DA:506,1
DA:507,1
DA:508,1
DA:509,1
DA:510,1
DA:511,1
DA:512,1
DA:513,1
DA:514,1
DA:515,1
DA:516,1
DA:517,1
DA:518,1
DA:519,1
DA:521,1
DA:522,1
DA:523,1
DA:524,1
DA:527,1
DA:531,1
DA:532,200
DA:533,200
DA:534,200
DA:535,200
DA:536,200
DA:537,200
DA:538,200
DA:539,200
DA:540,200
DA:541,200
DA:542,200
DA:545,1
DA:546,1
DA:547,1
DA:548,1
DA:549,1
DA:550,1
DA:551,1
DA:552,1
DA:553,1
DA:555,1
DA:557,1
DA:558,1
DA:559,1
DA:560,1
DA:561,1
DA:562,1
DA:565,1
DA:566,1
DA:567,1
DA:568,1
DA:569,1
DA:570,1
DA:571,1
DA:572,1
DA:573,1
DA:574,1
DA:575,1
DA:576,1
DA:577,1
DA:578,1
DA:587,1
DA:599,1
DA:600,1
DA:601,1
DA:602,1
DA:603,1
DA:604,1
DA:605,1
DA:606,1
DA:608,1
DA:611,1
DA:612,1
DA:613,1
DA:614,1
DA:615,1
DA:616,1
DA:617,1
DA:618,1
DA:619,1
DA:620,1
DA:621,1
DA:622,1
DA:624,1
DA:625,1
DA:626,1
DA:629,1
DA:630,1
DA:631,1
DA:632,1
DA:634,1
DA:638,1
DA:639,1
DA:640,1
DA:641,1
DA:642,1
DA:647,1
DA:652,1
DA:653,1
DA:654,1
DA:655,1
DA:656,1
DA:657,1
DA:658,1
DA:659,1
DA:661,1
DA:664,1
DA:665,1
DA:666,1
DA:667,1
DA:668,1
DA:670,1
DA:671,1
DA:672,1
DA:673,1
DA:674,1
DA:677,1
DA:678,1
DA:679,1
DA:681,1
DA:682,1
DA:683,1
DA:684,1
DA:686,1
DA:687,1
DA:688,1
DA:689,1
DA:690,1
DA:691,1
DA:692,1
DA:694,1
DA:695,1
DA:696,1
DA:697,1
DA:698,1
DA:699,1
DA:700,1
DA:701,1
DA:702,1
DA:703,1
DA:704,1
DA:705,1
DA:706,1
DA:707,1
DA:710,1
DA:711,1
DA:712,1
DA:713,1
DA:714,1
DA:716,1
DA:717,1
DA:718,1
DA:719,1
DA:720,1
DA:721,1
DA:722,1
DA:723,1
DA:724,1
DA:725,1
DA:726,1
DA:727,1
DA:730,1
DA:731,1
DA:732,1
DA:733,1
DA:734,1
DA:735,1
DA:736,1
DA:737,1
DA:738,1
DA:739,1
DA:740,1
DA:741,1
DA:742,1
DA:744,1
DA:745,1
DA:746,1
DA:747,1
DA:748,1
DA:750,1
DA:751,1
DA:752,1
DA:753,1
DA:754,1
DA:755,1
DA:757,1
DA:758,1
DA:760,1
DA:761,1
DA:762,1
BRF:0
BRH:0
LF:473
LH:440
end_of_record
SF:/home/irahardianto/works/projects/pathfinder/crates/pathfinder-treesitter/src/surgeon.rs
FN:217,_RNvYNtNtCs8udefrGgaFn_21pathfinder_treesitter4mock11MockSurgeonNtNtB6_7surgeon7Surgeon16invalidate_cacheCsb2XMseC3SKs_14pathfinder_lib
FN:217,_RNvYNtNtCs8udefrGgaFn_21pathfinder_treesitter4mock11MockSurgeonNtNtB6_7surgeon7Surgeon16invalidate_cacheCsaBz7PZGcJGm_14pathfinder_mcp
FN:217,_RNvYpNtNtCsc3IEwSMbWof_21pathfinder_treesitter7surgeon7Surgeon16invalidate_cacheB7_
FNDA:27,_RNvYNtNtCs8udefrGgaFn_21pathfinder_treesitter4mock11MockSurgeonNtNtB6_7surgeon7Surgeon16invalidate_cacheCsb2XMseC3SKs_14pathfinder_lib
FNDA:27,_RNvYNtNtCs8udefrGgaFn_21pathfinder_treesitter4mock11MockSurgeonNtNtB6_7surgeon7Surgeon16invalidate_cacheCsaBz7PZGcJGm_14pathfinder_mcp
FNDA:0,_RNvYpNtNtCsc3IEwSMbWof_21pathfinder_treesitter7surgeon7Surgeon16invalidate_cacheB7_
FNF:1
FNH:1
DA:217,54
BRF:0
BRH:0
LF:1
LH:1
end_of_record
SF:/home/irahardianto/works/projects/pathfinder/crates/pathfinder-treesitter/src/symbols.rs
FN:151,_RNvMNtCs8udefrGgaFn_21pathfinder_treesitter7symbolsNtB2_23SymbolExtractionContext10build_path
FN:110,_RNvMNtCs8udefrGgaFn_21pathfinder_treesitter7symbolsNtB2_23SymbolExtractionContext12extract_name
FN:47,_RNvMNtCs8udefrGgaFn_21pathfinder_treesitter7symbolsNtB2_23SymbolExtractionContext13process_child
FN:118,_RNvMNtCs8udefrGgaFn_21pathfinder_treesitter7symbolsNtB2_23SymbolExtractionContext14extract_symbol
FN:40,_RNvMNtCs8udefrGgaFn_21pathfinder_treesitter7symbolsNtB2_23SymbolExtractionContext16process_children
FN:103,_RNvMNtCs8udefrGgaFn_21pathfinder_treesitter7symbolsNtB2_23SymbolExtractionContext17resolve_name_node
FN:83,_RNvMNtCs8udefrGgaFn_21pathfinder_treesitter7symbolsNtB2_23SymbolExtractionContext21determine_symbol_kind
FN:159,_RNvMNtCs8udefrGgaFn_21pathfinder_treesitter7symbolsNtB2_23SymbolExtractionContext22extract_nested_symbols
FN:507,_RNvNtCs8udefrGgaFn_21pathfinder_treesitter7symbols12did_you_mean
FN:1013,_RNvNtCs8udefrGgaFn_21pathfinder_treesitter7symbols14walk_css_rules
FN:908,_RNvNtCs8udefrGgaFn_21pathfinder_treesitter7symbols15emit_jsx_symbol
FN:256,_RNvNtCs8udefrGgaFn_21pathfinder_treesitter7symbols16make_unique_name
FN:593,_RNvNtCs8udefrGgaFn_21pathfinder_treesitter7symbols16push_zone_symbol
FN:947,_RNvNtCs8udefrGgaFn_21pathfinder_treesitter7symbols16resolve_tag_name
FN:206,_RNvNtCs8udefrGgaFn_21pathfinder_treesitter7symbols17refine_class_kind
FN:276,_RNvNtCs8udefrGgaFn_21pathfinder_treesitter7symbols18extract_impl_block
FN:799,_RNvNtCs8udefrGgaFn_21pathfinder_treesitter7symbols19find_inner_function
FN:886,_RNvNtCs8udefrGgaFn_21pathfinder_treesitter7symbols20collect_jsx_elements
FN:1058,_RNvNtCs8udefrGgaFn_21pathfinder_treesitter7symbols20extract_at_rule_name
FN:1080,_RNvNtCs8udefrGgaFn_21pathfinder_treesitter7symbols20extract_css_rule_set
FN:822,_RNvNtCs8udefrGgaFn_21pathfinder_treesitter7symbols20extract_jsx_children
FN:216,_RNvNtCs8udefrGgaFn_21pathfinder_treesitter7symbols20refine_constant_kind
FN:751,_RNvNtCs8udefrGgaFn_21pathfinder_treesitter7symbols20resolve_jsx_tag_name
FN:374,_RNvNtCs8udefrGgaFn_21pathfinder_treesitter7symbols20resolve_symbol_chain
FN:997,_RNvNtCs8udefrGgaFn_21pathfinder_treesitter7symbols21extract_style_symbols
FN:562,_RNvNtCs8udefrGgaFn_21pathfinder_treesitter7symbols21find_enclosing_symbol
FN:844,_RNvNtCs8udefrGgaFn_21pathfinder_treesitter7symbols21walk_jsx_return_sites
FN:411,_RNvNtCs8udefrGgaFn_21pathfinder_treesitter7symbols22merge_rust_impl_blocks
FN:685,_RNvNtCs8udefrGgaFn_21pathfinder_treesitter7symbols23walk_html_elements_flat
FN:669,_RNvNtCs8udefrGgaFn_21pathfinder_treesitter7symbols24extract_template_symbols
FN:227,_RNvNtCs8udefrGgaFn_21pathfinder_treesitter7symbols24has_arrow_function_value
FN:9,_RNvNtCs8udefrGgaFn_21pathfinder_treesitter7symbols25extract_symbols_from_tree
FN:185,_RNvNtCs8udefrGgaFn_21pathfinder_treesitter7symbols25extract_symbols_recursive
FN:242,_RNvNtCs8udefrGgaFn_21pathfinder_treesitter7symbols29find_variable_declarator_name
FN:627,_RNvNtCs8udefrGgaFn_21pathfinder_treesitter7symbols30extract_symbols_from_multizone
FN:513,_RNvNvNtCs8udefrGgaFn_21pathfinder_treesitter7symbols12did_you_mean13collect_paths
FN:563,_RNvNvNtCs8udefrGgaFn_21pathfinder_treesitter7symbols21find_enclosing_symbol6search
FN:412,_RNvNvNtCs8udefrGgaFn_21pathfinder_treesitter7symbols22merge_rust_impl_blocks15merge_recursive
FN:954,_RNCNCNvNtCs8udefrGgaFn_21pathfinder_treesitter7symbols16resolve_tag_name00B7_
FN:956,_RNCNCNvNtCs8udefrGgaFn_21pathfinder_treesitter7symbols16resolve_tag_name0s_0B7_
FN:963,_RNCNCNvNtCs8udefrGgaFn_21pathfinder_treesitter7symbols16resolve_tag_names_00B7_
FN:964,_RNCNCNvNtCs8udefrGgaFn_21pathfinder_treesitter7symbols16resolve_tag_names_0s_0B7_
FN:433,_RNCNCNvNvNtCs8udefrGgaFn_21pathfinder_treesitter7symbols22merge_rust_impl_blocks15merge_recursive00B9_
FN:106,_RNCNvMNtCs8udefrGgaFn_21pathfinder_treesitter7symbolsNtB4_23SymbolExtractionContext17resolve_name_node0B6_
FN:107,_RNCNvMNtCs8udefrGgaFn_21pathfinder_treesitter7symbolsNtB4_23SymbolExtractionContext17resolve_name_nodes_0B6_
FN:167,_RNCNvMNtCs8udefrGgaFn_21pathfinder_treesitter7symbolsNtB4_23SymbolExtractionContext22extract_nested_symbols0B6_
FN:534,_RNCNvNtCs8udefrGgaFn_21pathfinder_treesitter7symbols12did_you_mean0B5_
FN:556,_RNCNvNtCs8udefrGgaFn_21pathfinder_treesitter7symbols12did_you_means0_0B5_
FN:602,_RNCNvNtCs8udefrGgaFn_21pathfinder_treesitter7symbols16push_zone_symbol0B5_
FN:950,_RNCNvNtCs8udefrGgaFn_21pathfinder_treesitter7symbols16resolve_tag_name0B5_
FN:967,_RNCNvNtCs8udefrGgaFn_21pathfinder_treesitter7symbols16resolve_tag_names0_0B5_
FN:968,_RNCNvNtCs8udefrGgaFn_21pathfinder_treesitter7symbols16resolve_tag_names1_0B5_
FN:976,_RNCNvNtCs8udefrGgaFn_21pathfinder_treesitter7symbols16resolve_tag_names2_0B5_
FN:977,_RNCNvNtCs8udefrGgaFn_21pathfinder_treesitter7symbols16resolve_tag_names3_0B5_
FN:979,_RNCNvNtCs8udefrGgaFn_21pathfinder_treesitter7symbols16resolve_tag_names4_0B5_
FN:980,_RNCNvNtCs8udefrGgaFn_21pathfinder_treesitter7symbols16resolve_tag_names5_0B5_
FN:961,_RNCNvNtCs8udefrGgaFn_21pathfinder_treesitter7symbols16resolve_tag_names_0B5_
FN:208,_RNCNvNtCs8udefrGgaFn_21pathfinder_treesitter7symbols17refine_class_kind0B5_
FN:1090,_RNCNvNtCs8udefrGgaFn_21pathfinder_treesitter7symbols20extract_css_rule_set0B5_
FN:1105,_RNCNvNtCs8udefrGgaFn_21pathfinder_treesitter7symbols20extract_css_rule_sets0_0B5_
FN:1107,_RNCNvNtCs8udefrGgaFn_21pathfinder_treesitter7symbols20extract_css_rule_sets1_0B5_
FN:1108,_RNCNvNtCs8udefrGgaFn_21pathfinder_treesitter7symbols20extract_css_rule_sets2_0B5_
FN:1109,_RNCNvNtCs8udefrGgaFn_21pathfinder_treesitter7symbols20extract_css_rule_sets3_0B5_
FN:1116,_RNCNvNtCs8udefrGgaFn_21pathfinder_treesitter7symbols20extract_css_rule_sets4_0B5_
FN:1117,_RNCNvNtCs8udefrGgaFn_21pathfinder_treesitter7symbols20extract_css_rule_sets5_0B5_
FN:1119,_RNCNvNtCs8udefrGgaFn_21pathfinder_treesitter7symbols20extract_css_rule_sets6_0B5_
FN:1120,_RNCNvNtCs8udefrGgaFn_21pathfinder_treesitter7symbols20extract_css_rule_sets7_0B5_
FN:1121,_RNCNvNtCs8udefrGgaFn_21pathfinder_treesitter7symbols20extract_css_rule_sets8_0B5_
FN:1127,_RNCNvNtCs8udefrGgaFn_21pathfinder_treesitter7symbols20extract_css_rule_sets9_0B5_
FN:1104,_RNCNvNtCs8udefrGgaFn_21pathfinder_treesitter7symbols20extract_css_rule_sets_0B5_
FN:1128,_RNCNvNtCs8udefrGgaFn_21pathfinder_treesitter7symbols20extract_css_rule_setsa_0B5_
FN:759,_RNCNvNtCs8udefrGgaFn_21pathfinder_treesitter7symbols20resolve_jsx_tag_name0B5_
FN:773,_RNCNvNtCs8udefrGgaFn_21pathfinder_treesitter7symbols20resolve_jsx_tag_names0_0B5_
FN:777,_RNCNvNtCs8udefrGgaFn_21pathfinder_treesitter7symbols20resolve_jsx_tag_names1_0B5_
FN:786,_RNCNvNtCs8udefrGgaFn_21pathfinder_treesitter7symbols20resolve_jsx_tag_names2_0B5_
FN:764,_RNCNvNtCs8udefrGgaFn_21pathfinder_treesitter7symbols20resolve_jsx_tag_names_0B5_
FN:587,_RNCNvNtCs8udefrGgaFn_21pathfinder_treesitter7symbols21find_enclosing_symbol0B5_
FN:419,_RNCNvNvNtCs8udefrGgaFn_21pathfinder_treesitter7symbols22merge_rust_impl_blocks15merge_recursive0B7_
FN:954,_RNCNCNvNtCsc3IEwSMbWof_21pathfinder_treesitter7symbols16resolve_tag_name00B7_
FN:956,_RNCNCNvNtCsc3IEwSMbWof_21pathfinder_treesitter7symbols16resolve_tag_name0s_0B7_
FN:963,_RNCNCNvNtCsc3IEwSMbWof_21pathfinder_treesitter7symbols16resolve_tag_names_00B7_
FN:964,_RNCNCNvNtCsc3IEwSMbWof_21pathfinder_treesitter7symbols16resolve_tag_names_0s_0B7_
FN:433,_RNCNCNvNvNtCsc3IEwSMbWof_21pathfinder_treesitter7symbols22merge_rust_impl_blocks15merge_recursive00B9_
FN:106,_RNCNvMNtCsc3IEwSMbWof_21pathfinder_treesitter7symbolsNtB4_23SymbolExtractionContext17resolve_name_node0B6_
FN:107,_RNCNvMNtCsc3IEwSMbWof_21pathfinder_treesitter7symbolsNtB4_23SymbolExtractionContext17resolve_name_nodes_0B6_
FN:167,_RNCNvMNtCsc3IEwSMbWof_21pathfinder_treesitter7symbolsNtB4_23SymbolExtractionContext22extract_nested_symbols0B6_
FN:534,_RNCNvNtCsc3IEwSMbWof_21pathfinder_treesitter7symbols12did_you_mean0B5_
FN:556,_RNCNvNtCsc3IEwSMbWof_21pathfinder_treesitter7symbols12did_you_means0_0B5_
FN:602,_RNCNvNtCsc3IEwSMbWof_21pathfinder_treesitter7symbols16push_zone_symbol0B5_
FN:950,_RNCNvNtCsc3IEwSMbWof_21pathfinder_treesitter7symbols16resolve_tag_name0B5_
FN:967,_RNCNvNtCsc3IEwSMbWof_21pathfinder_treesitter7symbols16resolve_tag_names0_0B5_
FN:968,_RNCNvNtCsc3IEwSMbWof_21pathfinder_treesitter7symbols16resolve_tag_names1_0B5_
FN:976,_RNCNvNtCsc3IEwSMbWof_21pathfinder_treesitter7symbols16resolve_tag_names2_0B5_
FN:977,_RNCNvNtCsc3IEwSMbWof_21pathfinder_treesitter7symbols16resolve_tag_names3_0B5_
FN:979,_RNCNvNtCsc3IEwSMbWof_21pathfinder_treesitter7symbols16resolve_tag_names4_0B5_
FN:980,_RNCNvNtCsc3IEwSMbWof_21pathfinder_treesitter7symbols16resolve_tag_names5_0B5_
FN:961,_RNCNvNtCsc3IEwSMbWof_21pathfinder_treesitter7symbols16resolve_tag_names_0B5_
FN:208,_RNCNvNtCsc3IEwSMbWof_21pathfinder_treesitter7symbols17refine_class_kind0B5_
FN:1090,_RNCNvNtCsc3IEwSMbWof_21pathfinder_treesitter7symbols20extract_css_rule_set0B5_
FN:1105,_RNCNvNtCsc3IEwSMbWof_21pathfinder_treesitter7symbols20extract_css_rule_sets0_0B5_
FN:1107,_RNCNvNtCsc3IEwSMbWof_21pathfinder_treesitter7symbols20extract_css_rule_sets1_0B5_
FN:1108,_RNCNvNtCsc3IEwSMbWof_21pathfinder_treesitter7symbols20extract_css_rule_sets2_0B5_
FN:1109,_RNCNvNtCsc3IEwSMbWof_21pathfinder_treesitter7symbols20extract_css_rule_sets3_0B5_
FN:1116,_RNCNvNtCsc3IEwSMbWof_21pathfinder_treesitter7symbols20extract_css_rule_sets4_0B5_
FN:1117,_RNCNvNtCsc3IEwSMbWof_21pathfinder_treesitter7symbols20extract_css_rule_sets5_0B5_
FN:1119,_RNCNvNtCsc3IEwSMbWof_21pathfinder_treesitter7symbols20extract_css_rule_sets6_0B5_
FN:1120,_RNCNvNtCsc3IEwSMbWof_21pathfinder_treesitter7symbols20extract_css_rule_sets7_0B5_
FN:1121,_RNCNvNtCsc3IEwSMbWof_21pathfinder_treesitter7symbols20extract_css_rule_sets8_0B5_
FN:1127,_RNCNvNtCsc3IEwSMbWof_21pathfinder_treesitter7symbols20extract_css_rule_sets9_0B5_
FN:1104,_RNCNvNtCsc3IEwSMbWof_21pathfinder_treesitter7symbols20extract_css_rule_sets_0B5_
FN:1128,_RNCNvNtCsc3IEwSMbWof_21pathfinder_treesitter7symbols20extract_css_rule_setsa_0B5_
FN:759,_RNCNvNtCsc3IEwSMbWof_21pathfinder_treesitter7symbols20resolve_jsx_tag_name0B5_
FN:773,_RNCNvNtCsc3IEwSMbWof_21pathfinder_treesitter7symbols20resolve_jsx_tag_names0_0B5_
FN:777,_RNCNvNtCsc3IEwSMbWof_21pathfinder_treesitter7symbols20resolve_jsx_tag_names1_0B5_
FN:786,_RNCNvNtCsc3IEwSMbWof_21pathfinder_treesitter7symbols20resolve_jsx_tag_names2_0B5_
FN:764,_RNCNvNtCsc3IEwSMbWof_21pathfinder_treesitter7symbols20resolve_jsx_tag_names_0B5_
FN:587,_RNCNvNtCsc3IEwSMbWof_21pathfinder_treesitter7symbols21find_enclosing_symbol0B5_
FN:419,_RNCNvNvNtCsc3IEwSMbWof_21pathfinder_treesitter7symbols22merge_rust_impl_blocks15merge_recursive0B7_
FN:1416,_RNCNvNtNtCsc3IEwSMbWof_21pathfinder_treesitter7symbols5testss_26test_extract_go_mixed_file0B7_
FN:1422,_RNCNvNtNtCsc3IEwSMbWof_21pathfinder_treesitter7symbols5testss_26test_extract_go_mixed_files0_0B7_
FN:1419,_RNCNvNtNtCsc3IEwSMbWof_21pathfinder_treesitter7symbols5testss_26test_extract_go_mixed_files_0B7_
FN:1741,_RNCNvNtNtCsc3IEwSMbWof_21pathfinder_treesitter7symbols5testss_39test_extract_tsx_jsx_elements_in_return0B7_
FN:1769,_RNCNvNtNtCsc3IEwSMbWof_21pathfinder_treesitter7symbols5testss_41test_extract_tsx_jsx_self_closing_element0B7_
FN:1801,_RNCNvNtNtCsc3IEwSMbWof_21pathfinder_treesitter7symbols5testss_42test_extract_tsx_jsx_component_capitalized0B7_
FN:1809,_RNCNvNtNtCsc3IEwSMbWof_21pathfinder_treesitter7symbols5testss_42test_extract_tsx_jsx_component_capitalizeds_0B7_
FN:1834,_RNCNvNtNtCsc3IEwSMbWof_21pathfinder_treesitter7symbols5testss_45test_extract_tsx_arrow_function_returning_jsx0B7_
FN:1867,_RNCNvNtNtCsc3IEwSMbWof_21pathfinder_treesitter7symbols5testss_50test_extract_tsx_jsx_duplicate_tags_get_nth_suffix0B7_
FN:1273,_RNCNvNtNtCsc3IEwSMbWof_21pathfinder_treesitter7symbols19vue_multizone_testss_36test_extract_multizone_style_at_rule0B7_
FN:1274,_RNCNvNtNtCsc3IEwSMbWof_21pathfinder_treesitter7symbols19vue_multizone_testss_36test_extract_multizone_style_at_rules_0B7_
FN:1262,_RNCNvNtNtCsc3IEwSMbWof_21pathfinder_treesitter7symbols19vue_multizone_testss_40test_extract_multizone_style_id_selector0B7_
FN:1263,_RNCNvNtNtCsc3IEwSMbWof_21pathfinder_treesitter7symbols19vue_multizone_testss_40test_extract_multizone_style_id_selectors_0B7_
FN:1289,_RNCNvNtNtCsc3IEwSMbWof_21pathfinder_treesitter7symbols19vue_multizone_testss_40test_extract_multizone_template_only_sfc0B7_
FN:1293,_RNCNvNtNtCsc3IEwSMbWof_21pathfinder_treesitter7symbols19vue_multizone_testss_40test_extract_multizone_template_only_sfcs_0B7_
FN:1247,_RNCNvNtNtCsc3IEwSMbWof_21pathfinder_treesitter7symbols19vue_multizone_testss_43test_extract_multizone_style_class_selector0B7_
FN:1248,_RNCNvNtNtCsc3IEwSMbWof_21pathfinder_treesitter7symbols19vue_multizone_testss_43test_extract_multizone_style_class_selectors_0B7_
FN:1237,_RNCNvNtNtCsc3IEwSMbWof_21pathfinder_treesitter7symbols19vue_multizone_testss_43test_extract_multizone_style_zone_container0B7_
FN:1302,_RNCNvNtNtCsc3IEwSMbWof_21pathfinder_treesitter7symbols19vue_multizone_testss_43test_find_enclosing_symbol_in_template_zone0B7_
FN:1226,_RNCNvNtNtCsc3IEwSMbWof_21pathfinder_treesitter7symbols19vue_multizone_testss_44test_extract_multizone_template_html_element0B7_
FN:1227,_RNCNvNtNtCsc3IEwSMbWof_21pathfinder_treesitter7symbols19vue_multizone_testss_44test_extract_multizone_template_html_elements_0B7_
FN:1195,_RNCNvNtNtCsc3IEwSMbWof_21pathfinder_treesitter7symbols19vue_multizone_testss_46test_extract_multizone_template_zone_container0B7_
FN:1208,_RNCNvNtNtCsc3IEwSMbWof_21pathfinder_treesitter7symbols19vue_multizone_testss_47test_extract_multizone_template_component_child0B7_
FN:1209,_RNCNvNtNtCsc3IEwSMbWof_21pathfinder_treesitter7symbols19vue_multizone_testss_47test_extract_multizone_template_component_childs_0B7_
FN:1182,_RNCNvNtNtCsc3IEwSMbWof_21pathfinder_treesitter7symbols19vue_multizone_testss_50test_extract_multizone_script_symbols_at_top_level0B7_
FN:1269,_RNvNtNtCsc3IEwSMbWof_21pathfinder_treesitter7symbols19vue_multizone_testss_36test_extract_multizone_style_at_rule
FN:1258,_RNvNtNtCsc3IEwSMbWof_21pathfinder_treesitter7symbols19vue_multizone_testss_40test_extract_multizone_style_id_selector
FN:1280,_RNvNtNtCsc3IEwSMbWof_21pathfinder_treesitter7symbols19vue_multizone_testss_40test_extract_multizone_template_only_sfc
FN:1243,_RNvNtNtCsc3IEwSMbWof_21pathfinder_treesitter7symbols19vue_multizone_testss_43test_extract_multizone_style_class_selector
FN:1233,_RNvNtNtCsc3IEwSMbWof_21pathfinder_treesitter7symbols19vue_multizone_testss_43test_extract_multizone_style_zone_container
FN:1297,_RNvNtNtCsc3IEwSMbWof_21pathfinder_treesitter7symbols19vue_multizone_testss_43test_find_enclosing_symbol_in_template_zone
FN:1222,_RNvNtNtCsc3IEwSMbWof_21pathfinder_treesitter7symbols19vue_multizone_testss_44test_extract_multizone_template_html_element
FN:1191,_RNvNtNtCsc3IEwSMbWof_21pathfinder_treesitter7symbols19vue_multizone_testss_46test_extract_multizone_template_zone_container
FN:1204,_RNvNtNtCsc3IEwSMbWof_21pathfinder_treesitter7symbols19vue_multizone_testss_47test_extract_multizone_template_component_child
FN:1177,_RNvNtNtCsc3IEwSMbWof_21pathfinder_treesitter7symbols19vue_multizone_testss_50test_extract_multizone_script_symbols_at_top_level
FN:151,_RNvMNtCsc3IEwSMbWof_21pathfinder_treesitter7symbolsNtB2_23SymbolExtractionContext10build_path
FN:110,_RNvMNtCsc3IEwSMbWof_21pathfinder_treesitter7symbolsNtB2_23SymbolExtractionContext12extract_name
FN:47,_RNvMNtCsc3IEwSMbWof_21pathfinder_treesitter7symbolsNtB2_23SymbolExtractionContext13process_child
FN:118,_RNvMNtCsc3IEwSMbWof_21pathfinder_treesitter7symbolsNtB2_23SymbolExtractionContext14extract_symbol
FN:40,_RNvMNtCsc3IEwSMbWof_21pathfinder_treesitter7symbolsNtB2_23SymbolExtractionContext16process_children
FN:103,_RNvMNtCsc3IEwSMbWof_21pathfinder_treesitter7symbolsNtB2_23SymbolExtractionContext17resolve_name_node
FN:83,_RNvMNtCsc3IEwSMbWof_21pathfinder_treesitter7symbolsNtB2_23SymbolExtractionContext21determine_symbol_kind
FN:159,_RNvMNtCsc3IEwSMbWof_21pathfinder_treesitter7symbolsNtB2_23SymbolExtractionContext22extract_nested_symbols
FN:507,_RNvNtCsc3IEwSMbWof_21pathfinder_treesitter7symbols12did_you_mean
FN:1013,_RNvNtCsc3IEwSMbWof_21pathfinder_treesitter7symbols14walk_css_rules
FN:908,_RNvNtCsc3IEwSMbWof_21pathfinder_treesitter7symbols15emit_jsx_symbol
FN:256,_RNvNtCsc3IEwSMbWof_21pathfinder_treesitter7symbols16make_unique_name
FN:593,_RNvNtCsc3IEwSMbWof_21pathfinder_treesitter7symbols16push_zone_symbol
FN:947,_RNvNtCsc3IEwSMbWof_21pathfinder_treesitter7symbols16resolve_tag_name
FN:206,_RNvNtCsc3IEwSMbWof_21pathfinder_treesitter7symbols17refine_class_kind
FN:276,_RNvNtCsc3IEwSMbWof_21pathfinder_treesitter7symbols18extract_impl_block
FN:799,_RNvNtCsc3IEwSMbWof_21pathfinder_treesitter7symbols19find_inner_function
FN:886,_RNvNtCsc3IEwSMbWof_21pathfinder_treesitter7symbols20collect_jsx_elements
FN:1058,_RNvNtCsc3IEwSMbWof_21pathfinder_treesitter7symbols20extract_at_rule_name
FN:1080,_RNvNtCsc3IEwSMbWof_21pathfinder_treesitter7symbols20extract_css_rule_set
FN:822,_RNvNtCsc3IEwSMbWof_21pathfinder_treesitter7symbols20extract_jsx_children
FN:216,_RNvNtCsc3IEwSMbWof_21pathfinder_treesitter7symbols20refine_constant_kind
FN:751,_RNvNtCsc3IEwSMbWof_21pathfinder_treesitter7symbols20resolve_jsx_tag_name
FN:374,_RNvNtCsc3IEwSMbWof_21pathfinder_treesitter7symbols20resolve_symbol_chain
FN:997,_RNvNtCsc3IEwSMbWof_21pathfinder_treesitter7symbols21extract_style_symbols
FN:562,_RNvNtCsc3IEwSMbWof_21pathfinder_treesitter7symbols21find_enclosing_symbol
FN:844,_RNvNtCsc3IEwSMbWof_21pathfinder_treesitter7symbols21walk_jsx_return_sites
FN:411,_RNvNtCsc3IEwSMbWof_21pathfinder_treesitter7symbols22merge_rust_impl_blocks
FN:685,_RNvNtCsc3IEwSMbWof_21pathfinder_treesitter7symbols23walk_html_elements_flat
FN:669,_RNvNtCsc3IEwSMbWof_21pathfinder_treesitter7symbols24extract_template_symbols
FN:227,_RNvNtCsc3IEwSMbWof_21pathfinder_treesitter7symbols24has_arrow_function_value
FN:9,_RNvNtCsc3IEwSMbWof_21pathfinder_treesitter7symbols25extract_symbols_from_tree
FN:185,_RNvNtCsc3IEwSMbWof_21pathfinder_treesitter7symbols25extract_symbols_recursive
FN:242,_RNvNtCsc3IEwSMbWof_21pathfinder_treesitter7symbols29find_variable_declarator_name
FN:627,_RNvNtCsc3IEwSMbWof_21pathfinder_treesitter7symbols30extract_symbols_from_multizone
FN:513,_RNvNvNtCsc3IEwSMbWof_21pathfinder_treesitter7symbols12did_you_mean13collect_paths
FN:563,_RNvNvNtCsc3IEwSMbWof_21pathfinder_treesitter7symbols21find_enclosing_symbol6search
FN:412,_RNvNvNtCsc3IEwSMbWof_21pathfinder_treesitter7symbols22merge_rust_impl_blocks15merge_recursive
FN:1466,_RNvNtNtCsc3IEwSMbWof_21pathfinder_treesitter7symbols5testss_17test_did_you_mean
FN:1366,_RNvNtNtCsc3IEwSMbWof_21pathfinder_treesitter7symbols5testss_22test_extract_go_struct
FN:1628,_RNvNtNtCsc3IEwSMbWof_21pathfinder_treesitter7symbols5testss_22test_extract_overloads
FN:1651,_RNvNtNtCsc3IEwSMbWof_21pathfinder_treesitter7symbols5testss_22test_resolve_overloads
FN:1325,_RNvNtNtCsc3IEwSMbWof_21pathfinder_treesitter7symbols5testss_24test_extract_go_function
FN:1341,_RNvNtNtCsc3IEwSMbWof_21pathfinder_treesitter7symbols5testss_25test_extract_go_interface
FN:1400,_RNvNtNtCsc3IEwSMbWof_21pathfinder_treesitter7symbols5testss_26test_extract_go_mixed_file
FN:1383,_RNvNtNtCsc3IEwSMbWof_21pathfinder_treesitter7symbols5testss_26test_extract_go_type_alias
FN:1482,_RNvNtNtCsc3IEwSMbWof_21pathfinder_treesitter7symbols5testss_26test_find_enclosing_symbol
FN:1497,_RNvNtNtCsc3IEwSMbWof_21pathfinder_treesitter7symbols5testss_30test_extract_rust_impl_methods
FN:1427,_RNvNtNtCsc3IEwSMbWof_21pathfinder_treesitter7symbols5testss_34test_extract_ts_class_with_methods
FN:1448,_RNvNtNtCsc3IEwSMbWof_21pathfinder_treesitter7symbols5testss_39test_extract_ts_exported_arrow_function
FN:1704,_RNvNtNtCsc3IEwSMbWof_21pathfinder_treesitter7symbols5testss_39test_extract_tsx_jsx_elements_in_return
FN:1748,_RNvNtNtCsc3IEwSMbWof_21pathfinder_treesitter7symbols5testss_41test_extract_tsx_jsx_self_closing_element
FN:1527,_RNvNtNtCsc3IEwSMbWof_21pathfinder_treesitter7symbols5testss_42test_extract_rust_free_functions_unchanged
FN:1776,_RNvNtNtCsc3IEwSMbWof_21pathfinder_treesitter7symbols5testss_42test_extract_tsx_jsx_component_capitalized
FN:1914,_RNvNtNtCsc3IEwSMbWof_21pathfinder_treesitter7symbols5testss_43test_extract_tsx_non_jsx_function_unchanged
FN:1610,_RNvNtNtCsc3IEwSMbWof_21pathfinder_treesitter7symbols5testss_43test_resolve_enum_impl_method_via_enum_path
FN:1879,_RNvNtNtCsc3IEwSMbWof_21pathfinder_treesitter7symbols5testss_44test_extract_tsx_enclosing_symbol_inside_jsx
FN:1816,_RNvNtNtCsc3IEwSMbWof_21pathfinder_treesitter7symbols5testss_45test_extract_tsx_arrow_function_returning_jsx
FN:1552,_RNvNtNtCsc3IEwSMbWof_21pathfinder_treesitter7symbols5testss_45test_resolve_rust_impl_method_via_struct_path
FN:1841,_RNvNtNtCsc3IEwSMbWof_21pathfinder_treesitter7symbols5testss_50test_extract_tsx_jsx_duplicate_tags_get_nth_suffix
FN:1573,_RNvNtNtCsc3IEwSMbWof_21pathfinder_treesitter7symbols5testss_52test_resolve_rust_impl_second_method_via_struct_path
FN:1592,_RNvNtNtCsc3IEwSMbWof_21pathfinder_treesitter7symbols5testss_54test_resolve_rust_impl_nonexistent_method_returns_none
FNDA:42,_RNvMNtCs8udefrGgaFn_21pathfinder_treesitter7symbolsNtB2_23SymbolExtractionContext10build_path
FNDA:42,_RNvMNtCs8udefrGgaFn_21pathfinder_treesitter7symbolsNtB2_23SymbolExtractionContext12extract_name
FNDA:495,_RNvMNtCs8udefrGgaFn_21pathfinder_treesitter7symbolsNtB2_23SymbolExtractionContext13process_child
FNDA:42,_RNvMNtCs8udefrGgaFn_21pathfinder_treesitter7symbolsNtB2_23SymbolExtractionContext14extract_symbol
FNDA:469,_RNvMNtCs8udefrGgaFn_21pathfinder_treesitter7symbolsNtB2_23SymbolExtractionContext16process_children
FNDA:42,_RNvMNtCs8udefrGgaFn_21pathfinder_treesitter7symbolsNtB2_23SymbolExtractionContext17resolve_name_node
FNDA:485,_RNvMNtCs8udefrGgaFn_21pathfinder_treesitter7symbolsNtB2_23SymbolExtractionContext21determine_symbol_kind
FNDA:9,_RNvMNtCs8udefrGgaFn_21pathfinder_treesitter7symbolsNtB2_23SymbolExtractionContext22extract_nested_symbols
FNDA:0,_RNvNtCs8udefrGgaFn_21pathfinder_treesitter7symbols12did_you_mean
FNDA:0,_RNvNtCs8udefrGgaFn_21pathfinder_treesitter7symbols14walk_css_rules
FNDA:0,_RNvNtCs8udefrGgaFn_21pathfinder_treesitter7symbols15emit_jsx_symbol
FNDA:68,_RNvNtCs8udefrGgaFn_21pathfinder_treesitter7symbols16make_unique_name
FNDA:0,_RNvNtCs8udefrGgaFn_21pathfinder_treesitter7symbols16push_zone_symbol
FNDA:0,_RNvNtCs8udefrGgaFn_21pathfinder_treesitter7symbols16resolve_tag_name
FNDA:9,_RNvNtCs8udefrGgaFn_21pathfinder_treesitter7symbols17refine_class_kind
FNDA:10,_RNvNtCs8udefrGgaFn_21pathfinder_treesitter7symbols18extract_impl_block
FNDA:0,_RNvNtCs8udefrGgaFn_21pathfinder_treesitter7symbols19find_inner_function
FNDA:0,_RNvNtCs8udefrGgaFn_21pathfinder_treesitter7symbols20collect_jsx_elements
FNDA:0,_RNvNtCs8udefrGgaFn_21pathfinder_treesitter7symbols20extract_at_rule_name
FNDA:0,_RNvNtCs8udefrGgaFn_21pathfinder_treesitter7symbols20extract_css_rule_set
FNDA:0,_RNvNtCs8udefrGgaFn_21pathfinder_treesitter7symbols20extract_jsx_children
FNDA:0,_RNvNtCs8udefrGgaFn_21pathfinder_treesitter7symbols20refine_constant_kind
FNDA:0,_RNvNtCs8udefrGgaFn_21pathfinder_treesitter7symbols20resolve_jsx_tag_name
FNDA:14,_RNvNtCs8udefrGgaFn_21pathfinder_treesitter7symbols20resolve_symbol_chain
FNDA:0,_RNvNtCs8udefrGgaFn_21pathfinder_treesitter7symbols21extract_style_symbols
FNDA:0,_RNvNtCs8udefrGgaFn_21pathfinder_treesitter7symbols21find_enclosing_symbol
FNDA:0,_RNvNtCs8udefrGgaFn_21pathfinder_treesitter7symbols21walk_jsx_return_sites
FNDA:3,_RNvNtCs8udefrGgaFn_21pathfinder_treesitter7symbols22merge_rust_impl_blocks
FNDA:0,_RNvNtCs8udefrGgaFn_21pathfinder_treesitter7symbols23walk_html_elements_flat
FNDA:0,_RNvNtCs8udefrGgaFn_21pathfinder_treesitter7symbols24extract_template_symbols
FNDA:0,_RNvNtCs8udefrGgaFn_21pathfinder_treesitter7symbols24has_arrow_function_value
FNDA:17,_RNvNtCs8udefrGgaFn_21pathfinder_treesitter7symbols25extract_symbols_from_tree
FNDA:469,_RNvNtCs8udefrGgaFn_21pathfinder_treesitter7symbols25extract_symbols_recursive
FNDA:0,_RNvNtCs8udefrGgaFn_21pathfinder_treesitter7symbols29find_variable_declarator_name
FNDA:0,_RNvNtCs8udefrGgaFn_21pathfinder_treesitter7symbols30extract_symbols_from_multizone
FNDA:0,_RNvNvNtCs8udefrGgaFn_21pathfinder_treesitter7symbols12did_you_mean13collect_paths
FNDA:0,_RNvNvNtCs8udefrGgaFn_21pathfinder_treesitter7symbols21find_enclosing_symbol6search
FNDA:9,_RNvNvNtCs8udefrGgaFn_21pathfinder_treesitter7symbols22merge_rust_impl_blocks15merge_recursive
FNDA:0,_RNCNCNvNtCs8udefrGgaFn_21pathfinder_treesitter7symbols16resolve_tag_name00B7_
FNDA:0,_RNCNCNvNtCs8udefrGgaFn_21pathfinder_treesitter7symbols16resolve_tag_name0s_0B7_
FNDA:0,_RNCNCNvNtCs8udefrGgaFn_21pathfinder_treesitter7symbols16resolve_tag_names_00B7_
FNDA:0,_RNCNCNvNtCs8udefrGgaFn_21pathfinder_treesitter7symbols16resolve_tag_names_0s_0B7_
FNDA:15,_RNCNCNvNvNtCs8udefrGgaFn_21pathfinder_treesitter7symbols22merge_rust_impl_blocks15merge_recursive00B9_
FNDA:0,_RNCNvMNtCs8udefrGgaFn_21pathfinder_treesitter7symbolsNtB4_23SymbolExtractionContext17resolve_name_node0B6_
FNDA:0,_RNCNvMNtCs8udefrGgaFn_21pathfinder_treesitter7symbolsNtB4_23SymbolExtractionContext17resolve_name_nodes_0B6_
FNDA:0,_RNCNvMNtCs8udefrGgaFn_21pathfinder_treesitter7symbolsNtB4_23SymbolExtractionContext22extract_nested_symbols0B6_
FNDA:0,_RNCNvNtCs8udefrGgaFn_21pathfinder_treesitter7symbols12did_you_mean0B5_
FNDA:0,_RNCNvNtCs8udefrGgaFn_21pathfinder_treesitter7symbols12did_you_means0_0B5_
FNDA:0,_RNCNvNtCs8udefrGgaFn_21pathfinder_treesitter7symbols16push_zone_symbol0B5_
FNDA:0,_RNCNvNtCs8udefrGgaFn_21pathfinder_treesitter7symbols16resolve_tag_name0B5_
FNDA:0,_RNCNvNtCs8udefrGgaFn_21pathfinder_treesitter7symbols16resolve_tag_names0_0B5_
FNDA:0,_RNCNvNtCs8udefrGgaFn_21pathfinder_treesitter7symbols16resolve_tag_names1_0B5_
FNDA:0,_RNCNvNtCs8udefrGgaFn_21pathfinder_treesitter7symbols16resolve_tag_names2_0B5_
FNDA:0,_RNCNvNtCs8udefrGgaFn_21pathfinder_treesitter7symbols16resolve_tag_names3_0B5_
FNDA:0,_RNCNvNtCs8udefrGgaFn_21pathfinder_treesitter7symbols16resolve_tag_names4_0B5_
FNDA:0,_RNCNvNtCs8udefrGgaFn_21pathfinder_treesitter7symbols16resolve_tag_names5_0B5_
FNDA:0,_RNCNvNtCs8udefrGgaFn_21pathfinder_treesitter7symbols16resolve_tag_names_0B5_
FNDA:0,_RNCNvNtCs8udefrGgaFn_21pathfinder_treesitter7symbols17refine_class_kind0B5_
FNDA:0,_RNCNvNtCs8udefrGgaFn_21pathfinder_treesitter7symbols20extract_css_rule_set0B5_
FNDA:0,_RNCNvNtCs8udefrGgaFn_21pathfinder_treesitter7symbols20extract_css_rule_sets0_0B5_
FNDA:0,_RNCNvNtCs8udefrGgaFn_21pathfinder_treesitter7symbols20extract_css_rule_sets1_0B5_
FNDA:0,_RNCNvNtCs8udefrGgaFn_21pathfinder_treesitter7symbols20extract_css_rule_sets2_0B5_
FNDA:0,_RNCNvNtCs8udefrGgaFn_21pathfinder_treesitter7symbols20extract_css_rule_sets3_0B5_
FNDA:0,_RNCNvNtCs8udefrGgaFn_21pathfinder_treesitter7symbols20extract_css_rule_sets4_0B5_
FNDA:0,_RNCNvNtCs8udefrGgaFn_21pathfinder_treesitter7symbols20extract_css_rule_sets5_0B5_
FNDA:0,_RNCNvNtCs8udefrGgaFn_21pathfinder_treesitter7symbols20extract_css_rule_sets6_0B5_
FNDA:0,_RNCNvNtCs8udefrGgaFn_21pathfinder_treesitter7symbols20extract_css_rule_sets7_0B5_
FNDA:0,_RNCNvNtCs8udefrGgaFn_21pathfinder_treesitter7symbols20extract_css_rule_sets8_0B5_
FNDA:0,_RNCNvNtCs8udefrGgaFn_21pathfinder_treesitter7symbols20extract_css_rule_sets9_0B5_
FNDA:0,_RNCNvNtCs8udefrGgaFn_21pathfinder_treesitter7symbols20extract_css_rule_sets_0B5_
FNDA:0,_RNCNvNtCs8udefrGgaFn_21pathfinder_treesitter7symbols20extract_css_rule_setsa_0B5_
FNDA:0,_RNCNvNtCs8udefrGgaFn_21pathfinder_treesitter7symbols20resolve_jsx_tag_name0B5_
FNDA:0,_RNCNvNtCs8udefrGgaFn_21pathfinder_treesitter7symbols20resolve_jsx_tag_names0_0B5_
FNDA:0,_RNCNvNtCs8udefrGgaFn_21pathfinder_treesitter7symbols20resolve_jsx_tag_names1_0B5_
FNDA:0,_RNCNvNtCs8udefrGgaFn_21pathfinder_treesitter7symbols20resolve_jsx_tag_names2_0B5_
FNDA:0,_RNCNvNtCs8udefrGgaFn_21pathfinder_treesitter7symbols20resolve_jsx_tag_names_0B5_
FNDA:0,_RNCNvNtCs8udefrGgaFn_21pathfinder_treesitter7symbols21find_enclosing_symbol0B5_
FNDA:50,_RNCNvNvNtCs8udefrGgaFn_21pathfinder_treesitter7symbols22merge_rust_impl_blocks15merge_recursive0B7_
FNDA:32,_RNCNCNvNtCsc3IEwSMbWof_21pathfinder_treesitter7symbols16resolve_tag_name00B7_
FNDA:23,_RNCNCNvNtCsc3IEwSMbWof_21pathfinder_treesitter7symbols16resolve_tag_name0s_0B7_
FNDA:23,_RNCNCNvNtCsc3IEwSMbWof_21pathfinder_treesitter7symbols16resolve_tag_names_00B7_
FNDA:23,_RNCNCNvNtCsc3IEwSMbWof_21pathfinder_treesitter7symbols16resolve_tag_names_0s_0B7_
FNDA:9,_RNCNCNvNvNtCsc3IEwSMbWof_21pathfinder_treesitter7symbols22merge_rust_impl_blocks15merge_recursive00B9_
FNDA:16,_RNCNvMNtCsc3IEwSMbWof_21pathfinder_treesitter7symbolsNtB4_23SymbolExtractionContext17resolve_name_node0B6_
FNDA:16,_RNCNvMNtCsc3IEwSMbWof_21pathfinder_treesitter7symbolsNtB4_23SymbolExtractionContext17resolve_name_nodes_0B6_
FNDA:10,_RNCNvMNtCsc3IEwSMbWof_21pathfinder_treesitter7symbolsNtB4_23SymbolExtractionContext22extract_nested_symbols0B6_
FNDA:3,_RNCNvNtCsc3IEwSMbWof_21pathfinder_treesitter7symbols12did_you_mean0B5_
FNDA:2,_RNCNvNtCsc3IEwSMbWof_21pathfinder_treesitter7symbols12did_you_means0_0B5_
FNDA:23,_RNCNvNtCsc3IEwSMbWof_21pathfinder_treesitter7symbols16push_zone_symbol0B5_
FNDA:32,_RNCNvNtCsc3IEwSMbWof_21pathfinder_treesitter7symbols16resolve_tag_name0B5_
FNDA:23,_RNCNvNtCsc3IEwSMbWof_21pathfinder_treesitter7symbols16resolve_tag_names0_0B5_
FNDA:23,_RNCNvNtCsc3IEwSMbWof_21pathfinder_treesitter7symbols16resolve_tag_names1_0B5_
FNDA:0,_RNCNvNtCsc3IEwSMbWof_21pathfinder_treesitter7symbols16resolve_tag_names2_0B5_
FNDA:0,_RNCNvNtCsc3IEwSMbWof_21pathfinder_treesitter7symbols16resolve_tag_names3_0B5_
FNDA:0,_RNCNvNtCsc3IEwSMbWof_21pathfinder_treesitter7symbols16resolve_tag_names4_0B5_
FNDA:0,_RNCNvNtCsc3IEwSMbWof_21pathfinder_treesitter7symbols16resolve_tag_names5_0B5_
FNDA:23,_RNCNvNtCsc3IEwSMbWof_21pathfinder_treesitter7symbols16resolve_tag_names_0B5_
FNDA:6,_RNCNvNtCsc3IEwSMbWof_21pathfinder_treesitter7symbols17refine_class_kind0B5_
FNDA:22,_RNCNvNtCsc3IEwSMbWof_21pathfinder_treesitter7symbols20extract_css_rule_set0B5_
FNDA:11,_RNCNvNtCsc3IEwSMbWof_21pathfinder_treesitter7symbols20extract_css_rule_sets0_0B5_
FNDA:11,_RNCNvNtCsc3IEwSMbWof_21pathfinder_treesitter7symbols20extract_css_rule_sets1_0B5_
FNDA:11,_RNCNvNtCsc3IEwSMbWof_21pathfinder_treesitter7symbols20extract_css_rule_sets2_0B5_
FNDA:11,_RNCNvNtCsc3IEwSMbWof_21pathfinder_treesitter7symbols20extract_css_rule_sets3_0B5_
FNDA:11,_RNCNvNtCsc3IEwSMbWof_21pathfinder_treesitter7symbols20extract_css_rule_sets4_0B5_
FNDA:11,_RNCNvNtCsc3IEwSMbWof_21pathfinder_treesitter7symbols20extract_css_rule_sets5_0B5_
FNDA:11,_RNCNvNtCsc3IEwSMbWof_21pathfinder_treesitter7symbols20extract_css_rule_sets6_0B5_
FNDA:11,_RNCNvNtCsc3IEwSMbWof_21pathfinder_treesitter7symbols20extract_css_rule_sets7_0B5_
FNDA:11,_RNCNvNtCsc3IEwSMbWof_21pathfinder_treesitter7symbols20extract_css_rule_sets8_0B5_
FNDA:0,_RNCNvNtCsc3IEwSMbWof_21pathfinder_treesitter7symbols20extract_css_rule_sets9_0B5_
FNDA:11,_RNCNvNtCsc3IEwSMbWof_21pathfinder_treesitter7symbols20extract_css_rule_sets_0B5_
FNDA:0,_RNCNvNtCsc3IEwSMbWof_21pathfinder_treesitter7symbols20extract_css_rule_setsa_0B5_
FNDA:12,_RNCNvNtCsc3IEwSMbWof_21pathfinder_treesitter7symbols20resolve_jsx_tag_name0B5_
FNDA:12,_RNCNvNtCsc3IEwSMbWof_21pathfinder_treesitter7symbols20resolve_jsx_tag_names0_0B5_
FNDA:3,_RNCNvNtCsc3IEwSMbWof_21pathfinder_treesitter7symbols20resolve_jsx_tag_names1_0B5_
FNDA:3,_RNCNvNtCsc3IEwSMbWof_21pathfinder_treesitter7symbols20resolve_jsx_tag_names2_0B5_
FNDA:12,_RNCNvNtCsc3IEwSMbWof_21pathfinder_treesitter7symbols20resolve_jsx_tag_names_0B5_
FNDA:4,_RNCNvNtCsc3IEwSMbWof_21pathfinder_treesitter7symbols21find_enclosing_symbol0B5_
FNDA:22,_RNCNvNvNtCsc3IEwSMbWof_21pathfinder_treesitter7symbols22merge_rust_impl_blocks15merge_recursive0B7_
FNDA:1,_RNCNvNtNtCsc3IEwSMbWof_21pathfinder_treesitter7symbols5testss_26test_extract_go_mixed_file0B7_
FNDA:3,_RNCNvNtNtCsc3IEwSMbWof_21pathfinder_treesitter7symbols5testss_26test_extract_go_mixed_files0_0B7_
FNDA:2,_RNCNvNtNtCsc3IEwSMbWof_21pathfinder_treesitter7symbols5testss_26test_extract_go_mixed_files_0B7_
FNDA:1,_RNCNvNtNtCsc3IEwSMbWof_21pathfinder_treesitter7symbols5testss_39test_extract_tsx_jsx_elements_in_return0B7_
FNDA:1,_RNCNvNtNtCsc3IEwSMbWof_21pathfinder_treesitter7symbols5testss_41test_extract_tsx_jsx_self_closing_element0B7_
FNDA:2,_RNCNvNtNtCsc3IEwSMbWof_21pathfinder_treesitter7symbols5testss_42test_extract_tsx_jsx_component_capitalized0B7_
FNDA:3,_RNCNvNtNtCsc3IEwSMbWof_21pathfinder_treesitter7symbols5testss_42test_extract_tsx_jsx_component_capitalizeds_0B7_
FNDA:1,_RNCNvNtNtCsc3IEwSMbWof_21pathfinder_treesitter7symbols5testss_45test_extract_tsx_arrow_function_returning_jsx0B7_
FNDA:4,_RNCNvNtNtCsc3IEwSMbWof_21pathfinder_treesitter7symbols5testss_50test_extract_tsx_jsx_duplicate_tags_get_nth_suffix0B7_
FNDA:4,_RNCNvNtNtCsc3IEwSMbWof_21pathfinder_treesitter7symbols19vue_multizone_testss_36test_extract_multizone_style_at_rule0B7_
FNDA:3,_RNCNvNtNtCsc3IEwSMbWof_21pathfinder_treesitter7symbols19vue_multizone_testss_36test_extract_multizone_style_at_rules_0B7_
FNDA:4,_RNCNvNtNtCsc3IEwSMbWof_21pathfinder_treesitter7symbols19vue_multizone_testss_40test_extract_multizone_style_id_selector0B7_
FNDA:2,_RNCNvNtNtCsc3IEwSMbWof_21pathfinder_treesitter7symbols19vue_multizone_testss_40test_extract_multizone_style_id_selectors_0B7_
FNDA:1,_RNCNvNtNtCsc3IEwSMbWof_21pathfinder_treesitter7symbols19vue_multizone_testss_40test_extract_multizone_template_only_sfc0B7_
FNDA:1,_RNCNvNtNtCsc3IEwSMbWof_21pathfinder_treesitter7symbols19vue_multizone_testss_40test_extract_multizone_template_only_sfcs_0B7_
FNDA:4,_RNCNvNtNtCsc3IEwSMbWof_21pathfinder_treesitter7symbols19vue_multizone_testss_43test_extract_multizone_style_class_selector0B7_
FNDA:1,_RNCNvNtNtCsc3IEwSMbWof_21pathfinder_treesitter7symbols19vue_multizone_testss_43test_extract_multizone_style_class_selectors_0B7_
FNDA:4,_RNCNvNtNtCsc3IEwSMbWof_21pathfinder_treesitter7symbols19vue_multizone_testss_43test_extract_multizone_style_zone_container0B7_
FNDA:3,_RNCNvNtNtCsc3IEwSMbWof_21pathfinder_treesitter7symbols19vue_multizone_testss_43test_find_enclosing_symbol_in_template_zone0B7_
FNDA:3,_RNCNvNtNtCsc3IEwSMbWof_21pathfinder_treesitter7symbols19vue_multizone_testss_44test_extract_multizone_template_html_element0B7_
FNDA:1,_RNCNvNtNtCsc3IEwSMbWof_21pathfinder_treesitter7symbols19vue_multizone_testss_44test_extract_multizone_template_html_elements_0B7_
FNDA:3,_RNCNvNtNtCsc3IEwSMbWof_21pathfinder_treesitter7symbols19vue_multizone_testss_46test_extract_multizone_template_zone_container0B7_
FNDA:3,_RNCNvNtNtCsc3IEwSMbWof_21pathfinder_treesitter7symbols19vue_multizone_testss_47test_extract_multizone_template_component_child0B7_
FNDA:2,_RNCNvNtNtCsc3IEwSMbWof_21pathfinder_treesitter7symbols19vue_multizone_testss_47test_extract_multizone_template_component_childs_0B7_
FNDA:2,_RNCNvNtNtCsc3IEwSMbWof_21pathfinder_treesitter7symbols19vue_multizone_testss_50test_extract_multizone_script_symbols_at_top_level0B7_
FNDA:1,_RNvNtNtCsc3IEwSMbWof_21pathfinder_treesitter7symbols19vue_multizone_testss_36test_extract_multizone_style_at_rule
FNDA:1,_RNvNtNtCsc3IEwSMbWof_21pathfinder_treesitter7symbols19vue_multizone_testss_40test_extract_multizone_style_id_selector
FNDA:1,_RNvNtNtCsc3IEwSMbWof_21pathfinder_treesitter7symbols19vue_multizone_testss_40test_extract_multizone_template_only_sfc
FNDA:1,_RNvNtNtCsc3IEwSMbWof_21pathfinder_treesitter7symbols19vue_multizone_testss_43test_extract_multizone_style_class_selector
FNDA:1,_RNvNtNtCsc3IEwSMbWof_21pathfinder_treesitter7symbols19vue_multizone_testss_43test_extract_multizone_style_zone_container
FNDA:1,_RNvNtNtCsc3IEwSMbWof_21pathfinder_treesitter7symbols19vue_multizone_testss_43test_find_enclosing_symbol_in_template_zone
FNDA:1,_RNvNtNtCsc3IEwSMbWof_21pathfinder_treesitter7symbols19vue_multizone_testss_44test_extract_multizone_template_html_element
FNDA:1,_RNvNtNtCsc3IEwSMbWof_21pathfinder_treesitter7symbols19vue_multizone_testss_46test_extract_multizone_template_zone_container
FNDA:1,_RNvNtNtCsc3IEwSMbWof_21pathfinder_treesitter7symbols19vue_multizone_testss_47test_extract_multizone_template_component_child
FNDA:1,_RNvNtNtCsc3IEwSMbWof_21pathfinder_treesitter7symbols19vue_multizone_testss_50test_extract_multizone_script_symbols_at_top_level
FNDA:74,_RNvMNtCsc3IEwSMbWof_21pathfinder_treesitter7symbolsNtB2_23SymbolExtractionContext10build_path
FNDA:74,_RNvMNtCsc3IEwSMbWof_21pathfinder_treesitter7symbolsNtB2_23SymbolExtractionContext12extract_name
FNDA:220,_RNvMNtCsc3IEwSMbWof_21pathfinder_treesitter7symbolsNtB2_23SymbolExtractionContext13process_child
FNDA:74,_RNvMNtCsc3IEwSMbWof_21pathfinder_treesitter7symbolsNtB2_23SymbolExtractionContext14extract_symbol
FNDA:204,_RNvMNtCsc3IEwSMbWof_21pathfinder_treesitter7symbolsNtB2_23SymbolExtractionContext16process_children
FNDA:75,_RNvMNtCsc3IEwSMbWof_21pathfinder_treesitter7symbolsNtB2_23SymbolExtractionContext17resolve_name_node
FNDA:214,_RNvMNtCsc3IEwSMbWof_21pathfinder_treesitter7symbolsNtB2_23SymbolExtractionContext21determine_symbol_kind
FNDA:17,_RNvMNtCsc3IEwSMbWof_21pathfinder_treesitter7symbolsNtB2_23SymbolExtractionContext22extract_nested_symbols
FNDA:2,_RNvNtCsc3IEwSMbWof_21pathfinder_treesitter7symbols12did_you_mean
FNDA:11,_RNvNtCsc3IEwSMbWof_21pathfinder_treesitter7symbols14walk_css_rules
FNDA:15,_RNvNtCsc3IEwSMbWof_21pathfinder_treesitter7symbols15emit_jsx_symbol
FNDA:89,_RNvNtCsc3IEwSMbWof_21pathfinder_treesitter7symbols16make_unique_name
FNDA:23,_RNvNtCsc3IEwSMbWof_21pathfinder_treesitter7symbols16push_zone_symbol
FNDA:242,_RNvNtCsc3IEwSMbWof_21pathfinder_treesitter7symbols16resolve_tag_name
FNDA:17,_RNvNtCsc3IEwSMbWof_21pathfinder_treesitter7symbols17refine_class_kind
FNDA:6,_RNvNtCsc3IEwSMbWof_21pathfinder_treesitter7symbols18extract_impl_block
FNDA:10,_RNvNtCsc3IEwSMbWof_21pathfinder_treesitter7symbols19find_inner_function
FNDA:115,_RNvNtCsc3IEwSMbWof_21pathfinder_treesitter7symbols20collect_jsx_elements
FNDA:9,_RNvNtCsc3IEwSMbWof_21pathfinder_treesitter7symbols20extract_at_rule_name
FNDA:22,_RNvNtCsc3IEwSMbWof_21pathfinder_treesitter7symbols20extract_css_rule_set
FNDA:7,_RNvNtCsc3IEwSMbWof_21pathfinder_treesitter7symbols20extract_jsx_children
FNDA:15,_RNvNtCsc3IEwSMbWof_21pathfinder_treesitter7symbols20refine_constant_kind
FNDA:15,_RNvNtCsc3IEwSMbWof_21pathfinder_treesitter7symbols20resolve_jsx_tag_name
FNDA:17,_RNvNtCsc3IEwSMbWof_21pathfinder_treesitter7symbols20resolve_symbol_chain
FNDA:11,_RNvNtCsc3IEwSMbWof_21pathfinder_treesitter7symbols21extract_style_symbols
FNDA:4,_RNvNtCsc3IEwSMbWof_21pathfinder_treesitter7symbols21find_enclosing_symbol
FNDA:14,_RNvNtCsc3IEwSMbWof_21pathfinder_treesitter7symbols21walk_jsx_return_sites
FNDA:7,_RNvNtCsc3IEwSMbWof_21pathfinder_treesitter7symbols22merge_rust_impl_blocks
FNDA:254,_RNvNtCsc3IEwSMbWof_21pathfinder_treesitter7symbols23walk_html_elements_flat
FNDA:12,_RNvNtCsc3IEwSMbWof_21pathfinder_treesitter7symbols24extract_template_symbols
FNDA:15,_RNvNtCsc3IEwSMbWof_21pathfinder_treesitter7symbols24has_arrow_function_value
FNDA:47,_RNvNtCsc3IEwSMbWof_21pathfinder_treesitter7symbols25extract_symbols_from_tree
FNDA:204,_RNvNtCsc3IEwSMbWof_21pathfinder_treesitter7symbols25extract_symbols_recursive
FNDA:16,_RNvNtCsc3IEwSMbWof_21pathfinder_treesitter7symbols29find_variable_declarator_name
FNDA:12,_RNvNtCsc3IEwSMbWof_21pathfinder_treesitter7symbols30extract_symbols_from_multizone
FNDA:5,_RNvNvNtCsc3IEwSMbWof_21pathfinder_treesitter7symbols12did_you_mean13collect_paths
FNDA:26,_RNvNvNtCsc3IEwSMbWof_21pathfinder_treesitter7symbols21find_enclosing_symbol6search
FNDA:13,_RNvNvNtCsc3IEwSMbWof_21pathfinder_treesitter7symbols22merge_rust_impl_blocks15merge_recursive
FNDA:1,_RNvNtNtCsc3IEwSMbWof_21pathfinder_treesitter7symbols5testss_17test_did_you_mean
FNDA:1,_RNvNtNtCsc3IEwSMbWof_21pathfinder_treesitter7symbols5testss_22test_extract_go_struct
FNDA:1,_RNvNtNtCsc3IEwSMbWof_21pathfinder_treesitter7symbols5testss_22test_extract_overloads
FNDA:1,_RNvNtNtCsc3IEwSMbWof_21pathfinder_treesitter7symbols5testss_22test_resolve_overloads
FNDA:1,_RNvNtNtCsc3IEwSMbWof_21pathfinder_treesitter7symbols5testss_24test_extract_go_function
FNDA:1,_RNvNtNtCsc3IEwSMbWof_21pathfinder_treesitter7symbols5testss_25test_extract_go_interface
FNDA:1,_RNvNtNtCsc3IEwSMbWof_21pathfinder_treesitter7symbols5testss_26test_extract_go_mixed_file
FNDA:1,_RNvNtNtCsc3IEwSMbWof_21pathfinder_treesitter7symbols5testss_26test_extract_go_type_alias
FNDA:1,_RNvNtNtCsc3IEwSMbWof_21pathfinder_treesitter7symbols5testss_26test_find_enclosing_symbol
FNDA:1,_RNvNtNtCsc3IEwSMbWof_21pathfinder_treesitter7symbols5testss_30test_extract_rust_impl_methods
FNDA:1,_RNvNtNtCsc3IEwSMbWof_21pathfinder_treesitter7symbols5testss_34test_extract_ts_class_with_methods
FNDA:1,_RNvNtNtCsc3IEwSMbWof_21pathfinder_treesitter7symbols5testss_39test_extract_ts_exported_arrow_function
FNDA:1,_RNvNtNtCsc3IEwSMbWof_21pathfinder_treesitter7symbols5testss_39test_extract_tsx_jsx_elements_in_return
FNDA:1,_RNvNtNtCsc3IEwSMbWof_21pathfinder_treesitter7symbols5testss_41test_extract_tsx_jsx_self_closing_element
FNDA:1,_RNvNtNtCsc3IEwSMbWof_21pathfinder_treesitter7symbols5testss_42test_extract_rust_free_functions_unchanged
FNDA:1,_RNvNtNtCsc3IEwSMbWof_21pathfinder_treesitter7symbols5testss_42test_extract_tsx_jsx_component_capitalized
FNDA:1,_RNvNtNtCsc3IEwSMbWof_21pathfinder_treesitter7symbols5testss_43test_extract_tsx_non_jsx_function_unchanged
FNDA:1,_RNvNtNtCsc3IEwSMbWof_21pathfinder_treesitter7symbols5testss_43test_resolve_enum_impl_method_via_enum_path
FNDA:1,_RNvNtNtCsc3IEwSMbWof_21pathfinder_treesitter7symbols5testss_44test_extract_tsx_enclosing_symbol_inside_jsx
FNDA:1,_RNvNtNtCsc3IEwSMbWof_21pathfinder_treesitter7symbols5testss_45test_extract_tsx_arrow_function_returning_jsx
FNDA:1,_RNvNtNtCsc3IEwSMbWof_21pathfinder_treesitter7symbols5testss_45test_resolve_rust_impl_method_via_struct_path
FNDA:1,_RNvNtNtCsc3IEwSMbWof_21pathfinder_treesitter7symbols5testss_50test_extract_tsx_jsx_duplicate_tags_get_nth_suffix
FNDA:1,_RNvNtNtCsc3IEwSMbWof_21pathfinder_treesitter7symbols5testss_52test_resolve_rust_impl_second_method_via_struct_path
FNDA:1,_RNvNtNtCsc3IEwSMbWof_21pathfinder_treesitter7symbols5testss_54test_resolve_rust_impl_nonexistent_method_returns_none
FNF:137
FNH:131
DA:9,64
DA:10,64
DA:11,64
DA:12,64
DA:13,64
DA:14,64
DA:15,64
DA:16,64
DA:19,64
DA:21,64
DA:22,10
DA:23,54
DA:25,64
DA:26,64
DA:40,673
DA:41,673
DA:42,715
DA:43,715
DA:44,715
DA:45,673
DA:47,715
DA:48,715
DA:50,715
DA:51,16
DA:52,16
DA:53,16
DA:54,16
DA:55,16
DA:56,16
DA:57,16
DA:59,16
DA:60,699
DA:62,699
DA:63,699
DA:64,117
DA:65,116
DA:66,116
DA:67,116
DA:68,0
DA:69,1
DA:70,582
DA:73,583
DA:74,583
DA:75,583
DA:76,583
DA:77,583
DA:78,583
DA:79,583
DA:81,715
DA:83,699
DA:84,699
DA:85,64
DA:86,635
DA:88,635
DA:89,26
DA:90,609
DA:92,609
DA:93,12
DA:94,597
DA:96,597
DA:97,15
DA:98,582
DA:100,582
DA:101,699
DA:103,117
DA:104,117
DA:105,117
DA:106,117
DA:107,117
DA:108,117
DA:110,116
DA:111,116
DA:112,116
DA:113,116
DA:114,116
DA:115,116
DA:116,116
DA:118,116
DA:119,116
DA:120,116
DA:122,116
DA:123,116
DA:124,116
DA:125,116
DA:126,116
DA:127,116
DA:128,116
DA:129,116
DA:130,116
DA:132,90
DA:133,116
DA:135,26
DA:136,26
DA:137,90
DA:139,116
DA:140,59
DA:141,66
DA:144,7
DA:145,7
DA:146,109
DA:148,116
DA:149,116
DA:151,116
DA:152,116
DA:153,105
DA:155,11
DA:157,116
DA:159,26
DA:160,26
DA:161,26
DA:162,26
DA:163,26
DA:164,26
DA:165,26
DA:166,26
DA:167,26
DA:169,26
DA:170,22
DA:171,22
DA:172,4
DA:173,4
DA:174,4
DA:175,4
DA:176,4
DA:177,4
DA:178,4
DA:179,4
DA:180,4
DA:181,26
DA:185,673
DA:186,673
DA:187,673
DA:188,673
DA:189,673
DA:190,673
DA:191,673
DA:192,673
DA:193,673
DA:194,673
DA:195,673
DA:196,673
DA:197,673
DA:198,673
DA:199,673
DA:200,673
DA:201,673
DA:202,673
DA:203,673
DA:206,26
DA:207,26
DA:208,26
DA:209,6
DA:210,4
DA:211,1
DA:212,6
DA:213,26
DA:216,15
DA:217,15
DA:218,15
DA:219,15
DA:220,3
DA:221,3
DA:222,12
DA:223,15
DA:224,15
DA:227,15
DA:228,15
DA:229,15
DA:230,15
DA:231,15
DA:232,15
DA:233,3
DA:234,12
DA:235,0
DA:236,0
DA:238,12
DA:239,15
DA:242,16
DA:243,16
DA:244,17
DA:245,17
DA:246,15
DA:247,15
DA:248,0
DA:249,2
DA:251,1
DA:252,16
DA:256,157
DA:257,157
DA:258,157
DA:259,157
DA:260,157
DA:261,157
DA:262,157
DA:263,16
DA:265,141
DA:267,157
DA:268,157
DA:276,16
DA:277,16
DA:278,16
DA:279,16
DA:280,16
DA:281,16
DA:282,16
DA:283,16
DA:285,16
DA:286,0
DA:288,16
DA:289,0
DA:291,16
DA:292,0
DA:294,16
DA:296,16
DA:297,16
DA:298,16
DA:300,0
DA:304,16
DA:305,16
DA:306,16
DA:307,16
DA:308,16
DA:309,66
DA:310,66
DA:311,41
DA:312,25
DA:313,25
DA:314,0
DA:316,25
DA:317,0
DA:319,25
DA:320,0
DA:322,25
DA:324,25
DA:325,25
DA:326,25
DA:327,25
DA:328,25
DA:329,25
DA:330,25
DA:331,25
DA:332,25
DA:333,25
DA:334,25
DA:335,25
DA:337,0
DA:339,16
DA:340,16
DA:341,16
DA:342,16
DA:343,16
DA:344,16
DA:345,16
DA:346,16
DA:347,16
DA:348,16
DA:349,16
DA:350,16
DA:374,31
DA:375,31
DA:376,31
DA:377,31
DA:378,31
DA:379,0
DA:380,31
DA:382,31
DA:383,31
DA:385,41
DA:386,41
DA:387,41
DA:388,41
DA:390,46
DA:391,46
DA:392,41
DA:393,38
DA:394,38
DA:395,3
DA:396,3
DA:397,5
DA:400,41
DA:401,38
DA:402,38
DA:405,28
DA:406,31
DA:411,10
DA:412,22
DA:413,22
DA:414,22
DA:415,22
DA:416,22
DA:419,72
DA:420,72
DA:421,16
DA:422,25
DA:425,25
DA:426,25
DA:427,25
DA:428,25
DA:431,25
DA:432,24
DA:433,24
DA:435,24
DA:437,1
DA:439,25
DA:440,0
DA:441,25
DA:444,16
DA:445,16
DA:446,16
DA:448,16
DA:449,4
DA:451,12
DA:454,16
DA:455,16
DA:456,16
DA:458,56
DA:460,72
DA:463,72
DA:464,57
DA:465,72
DA:468,15
DA:469,11
DA:470,11
DA:471,57
DA:475,22
DA:476,1
DA:477,0
DA:478,1
DA:479,1
DA:480,1
DA:481,1
DA:482,1
DA:483,1
DA:484,1
DA:485,1
DA:486,1
DA:487,1
DA:491,73
DA:492,73
DA:493,12
DA:494,61
DA:496,22
DA:498,10
DA:499,10
DA:507,2
DA:508,2
DA:509,2
DA:510,2
DA:511,2
DA:513,5
DA:514,5
DA:515,3
DA:516,3
DA:517,3
DA:518,5
DA:520,2
DA:521,0
DA:522,2
DA:524,2
DA:526,2
DA:527,2
DA:530,2
DA:532,2
DA:533,2
DA:534,3
DA:535,3
DA:536,1
DA:538,2
DA:541,3
DA:542,2
DA:544,1
DA:546,3
DA:547,2
DA:550,2
DA:553,2
DA:554,2
DA:555,2
DA:556,2
DA:557,2
DA:558,2
DA:562,4
DA:563,26
DA:564,26
DA:565,22
DA:567,9
DA:568,5
DA:569,5
DA:570,5
DA:571,5
DA:572,5
DA:573,5
DA:574,4
DA:575,4
DA:576,4
DA:577,13
DA:581,22
DA:583,26
DA:585,4
DA:586,4
DA:587,4
DA:588,4
DA:593,23
DA:594,23
DA:595,23
DA:596,23
DA:597,23
DA:598,23
DA:599,23
DA:600,0
DA:601,23
DA:602,23
DA:603,23
DA:604,23
DA:605,23
DA:606,23
DA:607,23
DA:608,23
DA:609,23
DA:610,23
DA:611,23
DA:612,23
DA:613,23
DA:614,23
DA:627,12
DA:628,12
DA:629,12
DA:630,12
DA:633,12
DA:634,11
DA:635,11
DA:636,11
DA:639,12
DA:640,12
DA:641,12
DA:642,12
DA:643,12
DA:644,12
DA:645,12
DA:646,12
DA:647,12
DA:650,12
DA:651,11
DA:652,11
DA:653,11
DA:655,12
DA:656,12
DA:669,12
DA:670,12
DA:671,12
DA:673,12
DA:674,12
DA:675,12
DA:676,12
DA:677,12
DA:678,12
DA:681,12
DA:682,12
DA:685,254
DA:686,254
DA:687,254
DA:688,254
DA:689,254
DA:690,254
DA:691,254
DA:692,254
DA:693,254
DA:694,242
DA:695,242
DA:697,242
DA:698,23
DA:699,23
DA:700,11
DA:702,12
DA:705,23
DA:706,23
DA:707,23
DA:708,23
DA:709,23
DA:711,0
DA:716,23
DA:717,11
DA:719,12
DA:722,23
DA:723,23
DA:724,23
DA:725,23
DA:726,23
DA:727,23
DA:728,23
DA:729,23
DA:730,23
DA:733,23
DA:734,219
DA:735,219
DA:736,219
DA:738,254
DA:751,15
DA:752,15
DA:754,15
DA:756,12
DA:757,12
DA:758,12
DA:759,12
DA:763,12
DA:764,12
DA:765,12
DA:766,12
DA:767,12
DA:769,12
DA:770,12
DA:771,12
DA:772,12
DA:773,12
DA:774,3
DA:776,3
DA:777,3
DA:778,3
DA:779,3
DA:780,3
DA:782,3
DA:783,3
DA:784,3
DA:785,3
DA:786,3
DA:788,0
DA:790,15
DA:799,10
DA:800,10
DA:801,10
DA:802,7
DA:803,3
DA:805,3
DA:806,3
DA:807,3
DA:808,2
DA:809,1
DA:811,1
DA:812,10
DA:822,7
DA:823,7
DA:824,7
DA:825,7
DA:826,7
DA:827,7
DA:828,7
DA:829,7
DA:833,7
DA:835,7
DA:836,7
DA:844,14
DA:845,14
DA:846,14
DA:847,14
DA:848,14
DA:849,14
DA:850,14
DA:851,14
DA:852,27
DA:853,27
DA:855,0
DA:857,27
DA:858,6
DA:859,6
DA:861,21
DA:862,1
DA:863,1
DA:864,1
DA:865,1
DA:868,20
DA:869,14
DA:870,14
DA:871,14
DA:872,14
DA:873,6
DA:874,6
DA:877,14
DA:878,1
DA:879,13
DA:883,14
DA:886,115
DA:887,115
DA:888,115
DA:889,115
DA:890,115
DA:891,115
DA:892,115
DA:893,115
DA:894,115
DA:895,108
DA:896,108
DA:897,14
DA:898,14
DA:899,14
DA:900,94
DA:901,94
DA:902,94
DA:903,94
DA:905,115
DA:908,15
DA:909,15
DA:910,15
DA:911,15
DA:912,15
DA:913,15
DA:914,15
DA:915,15
DA:916,15
DA:917,15
DA:918,4
DA:920,11
DA:923,15
DA:924,15
DA:925,15
DA:926,15
DA:927,13
DA:929,2
DA:932,15
DA:934,15
DA:935,15
DA:936,15
DA:937,15
DA:938,15
DA:939,15
DA:940,15
DA:941,15
DA:942,15
DA:943,0
DA:944,15
DA:947,242
DA:948,242
DA:950,32
DA:951,32
DA:952,32
DA:953,32
DA:954,32
DA:956,32
DA:958,23
DA:959,23
DA:960,32
DA:961,32
DA:962,23
DA:963,23
DA:964,23
DA:965,23
DA:966,32
DA:967,32
DA:968,32
DA:969,32
DA:970,32
DA:971,210
DA:973,0
DA:974,0
DA:975,0
DA:976,0
DA:977,0
DA:978,0
DA:979,0
DA:980,0
DA:981,0
DA:982,0
DA:984,210
DA:986,242
DA:997,11
DA:998,11
DA:999,11
DA:1000,11
DA:1002,11
DA:1003,11
DA:1004,11
DA:1005,11
DA:1006,11
DA:1007,11
DA:1009,11
DA:1010,11
DA:1013,11
DA:1014,11
DA:1015,11
DA:1016,11
DA:1017,11
DA:1018,11
DA:1019,11
DA:1020,11
DA:1021,31
DA:1022,31
DA:1024,31
DA:1025,22
DA:1026,22
DA:1028,9
DA:1029,9
DA:1030,9
DA:1031,9
DA:1032,9
DA:1033,9
DA:1034,9
DA:1036,0
DA:1038,9
DA:1039,9
DA:1040,9
DA:1041,9
DA:1042,9
DA:1043,9
DA:1044,9
DA:1045,9
DA:1046,9
DA:1047,9
DA:1049,0
DA:1050,0
DA:1051,0
DA:1052,0
DA:1055,11
DA:1058,9
DA:1060,9
DA:1061,18
DA:1062,18
DA:1063,0
DA:1064,0
DA:1066,0
DA:1067,0
DA:1068,0
DA:1069,18
DA:1072,9
DA:1073,9
DA:1074,0
DA:1075,0
DA:1077,9
DA:1080,22
DA:1081,22
DA:1082,22
DA:1083,22
DA:1084,22
DA:1085,22
DA:1087,22
DA:1088,22
DA:1089,22
DA:1090,22
DA:1092,22
DA:1093,0
DA:1096,22
DA:1097,22
DA:1098,22
DA:1099,22
DA:1101,11
DA:1102,11
DA:1103,11
DA:1104,11
DA:1105,11
DA:1106,11
DA:1107,11
DA:1108,11
DA:1109,11
DA:1111,11
DA:1113,11
DA:1114,11
DA:1115,11
DA:1116,11
DA:1117,11
DA:1118,11
DA:1119,11
DA:1120,11
DA:1121,11
DA:1123,0
DA:1125,0
DA:1126,0
DA:1127,0
DA:1128,0
DA:1130,0
DA:1133,22
DA:1134,22
DA:1135,0
DA:1136,22
DA:1137,22
DA:1138,22
DA:1139,22
DA:1140,22
DA:1141,22
DA:1142,22
DA:1143,22
DA:1144,22
DA:1145,22
DA:1146,22
DA:1147,0
DA:1149,22
DA:1177,1
DA:1178,1
DA:1179,1
DA:1182,2
DA:1183,1
DA:1184,1
DA:1187,1
DA:1188,1
DA:1191,1
DA:1192,1
DA:1193,1
DA:1195,3
DA:1196,1
DA:1197,1
DA:1200,1
DA:1201,1
DA:1204,1
DA:1205,1
DA:1206,1
DA:1208,3
DA:1209,2
DA:1210,1
DA:1211,1
DA:1214,1
DA:1215,1
DA:1218,1
DA:1219,1
DA:1222,1
DA:1223,1
DA:1224,1
DA:1226,3
DA:1227,1
DA:1228,1
DA:1229,1
DA:1230,1
DA:1233,1
DA:1234,1
DA:1235,1
DA:1237,4
DA:1238,1
DA:1239,1
DA:1240,1
DA:1243,1
DA:1244,1
DA:1245,1
DA:1247,4
DA:1248,1
DA:1249,1
DA:1250,1
DA:1251,1
DA:1254,1
DA:1255,1
DA:1258,1
DA:1259,1
DA:1260,1
DA:1262,4
DA:1263,2
DA:1264,1
DA:1265,1
DA:1266,1
DA:1269,1
DA:1270,1
DA:1271,1
DA:1273,4
DA:1274,3
DA:1275,1
DA:1276,1
DA:1277,1
DA:1280,1
DA:1281,1
DA:1282,1
DA:1283,1
DA:1286,1
DA:1287,1
DA:1288,1
DA:1289,1
DA:1293,1
DA:1294,1
DA:1297,1
DA:1298,1
DA:1299,1
DA:1302,3
DA:1305,1
DA:1306,1
DA:1307,1
DA:1310,1
DA:1311,1
DA:1314,1
DA:1325,1
DA:1326,1
DA:1327,1
DA:1328,1
DA:1329,1
DA:1330,1
DA:1332,1
DA:1334,1
DA:1335,1
DA:1336,1
DA:1337,1
DA:1338,1
DA:1341,1
DA:1342,1
DA:1343,1
DA:1344,1
DA:1345,1
DA:1346,1
DA:1347,1
DA:1349,1
DA:1351,1
DA:1352,1
DA:1353,1
DA:1357,1
DA:1358,1
DA:1359,1
DA:1360,1
DA:1361,1
DA:1362,1
DA:1363,1
DA:1366,1
DA:1367,1
DA:1368,1
DA:1369,1
DA:1370,1
DA:1371,1
DA:1373,1
DA:1375,1
DA:1376,1
DA:1377,1
DA:1378,1
DA:1379,1
DA:1380,1
DA:1383,1
DA:1384,1
DA:1385,1
DA:1386,1
DA:1387,1
DA:1388,1
DA:1390,1
DA:1392,1
DA:1393,1
DA:1394,1
DA:1396,1
DA:1397,1
DA:1400,1
DA:1401,1
DA:1402,1
DA:1403,1
DA:1404,1
DA:1405,1
DA:1407,1
DA:1409,1
DA:1410,1
DA:1411,1
DA:1416,1
DA:1417,1
DA:1419,2
DA:1420,1
DA:1422,3
DA:1423,1
DA:1424,1
DA:1427,1
DA:1428,1
DA:1429,1
DA:1430,1
DA:1431,1
DA:1432,1
DA:1434,1
DA:1436,1
DA:1437,1
DA:1438,1
DA:1439,1
DA:1440,1
DA:1441,1
DA:1442,1
DA:1443,1
DA:1444,1
DA:1445,1
DA:1448,1
DA:1449,1
DA:1450,1
DA:1451,1
DA:1452,1
DA:1453,1
DA:1455,1
DA:1457,1
DA:1458,1
DA:1459,1
DA:1460,1
DA:1461,1
DA:1462,1
DA:1463,1
DA:1466,1
DA:1467,1
DA:1468,1
DA:1469,1
DA:1470,1
DA:1471,1
DA:1473,1
DA:1474,1
DA:1476,1
DA:1477,1
DA:1478,1
DA:1479,1
DA:1482,1
DA:1483,1
DA:1484,1
DA:1485,1
DA:1486,1
DA:1487,1
DA:1489,1
DA:1490,1
DA:1492,1
DA:1493,1
DA:1494,1
DA:1497,1
DA:1498,1
DA:1499,1
DA:1500,1
DA:1501,1
DA:1502,1
DA:1504,1
DA:1505,1
DA:1508,1
DA:1509,1
DA:1510,1
DA:1511,1
DA:1512,1
DA:1514,1
DA:1515,1
DA:1516,1
DA:1517,1
DA:1518,1
DA:1519,1
DA:1520,1
DA:1521,1
DA:1522,1
DA:1523,1
DA:1524,1
DA:1527,1
DA:1529,1
DA:1530,1
DA:1531,1
DA:1532,1
DA:1533,1
DA:1535,1
DA:1536,1
DA:1538,1
DA:1539,1
DA:1540,1
DA:1541,1
DA:1552,1
DA:1553,1
DA:1554,1
DA:1555,1
DA:1556,1
DA:1557,1
DA:1559,1
DA:1560,1
DA:1563,1
DA:1564,1
DA:1565,1
DA:1566,1
DA:1567,1
DA:1568,1
DA:1569,1
DA:1573,1
DA:1574,1
DA:1575,1
DA:1576,1
DA:1577,1
DA:1578,1
DA:1580,1
DA:1581,1
DA:1583,1
DA:1584,1
DA:1585,1
DA:1586,1
DA:1587,1
DA:1588,1
DA:1592,1
DA:1593,1
DA:1594,1
DA:1595,1
DA:1596,1
DA:1597,1
DA:1599,1
DA:1600,1
DA:1602,1
DA:1603,1
DA:1604,1
DA:1605,1
DA:1610,1
DA:1611,1
DA:1612,1
DA:1613,1
DA:1614,1
DA:1615,1
DA:1617,1
DA:1618,1
DA:1620,1
DA:1621,1
DA:1622,1
DA:1623,1
DA:1624,1
DA:1625,1
DA:1628,1
DA:1629,1
DA:1630,1
DA:1631,1
DA:1632,1
DA:1633,1
DA:1635,1
DA:1637,1
DA:1638,1
DA:1639,1
DA:1640,1
DA:1641,1
DA:1643,1
DA:1644,1
DA:1646,1
DA:1647,1
DA:1648,1
DA:1651,1
DA:1652,1
DA:1653,1
DA:1654,1
DA:1655,1
DA:1656,1
DA:1657,1
DA:1658,1
DA:1659,1
DA:1660,1
DA:1661,1
DA:1662,1
DA:1663,1
DA:1664,1
DA:1665,1
DA:1666,1
DA:1667,1
DA:1668,1
DA:1669,1
DA:1670,1
DA:1671,1
DA:1672,1
DA:1673,1
DA:1674,1
DA:1675,1
DA:1676,1
DA:1677,1
DA:1678,1
DA:1679,1
DA:1681,1
DA:1684,1
DA:1685,1
DA:1686,1
DA:1689,1
DA:1690,1
DA:1691,1
DA:1694,1
DA:1695,1
DA:1696,1
DA:1697,1
DA:1704,1
DA:1705,1
DA:1706,1
DA:1707,1
DA:1708,1
DA:1709,1
DA:1710,1
DA:1711,1
DA:1712,1
DA:1713,1
DA:1714,1
DA:1715,1
DA:1716,1
DA:1717,1
DA:1718,1
DA:1719,1
DA:1721,1
DA:1723,1
DA:1726,1
DA:1727,1
DA:1728,1
DA:1729,1
DA:1732,1
DA:1733,1
DA:1738,1
DA:1739,1
DA:1740,1
DA:1741,1
DA:1742,1
DA:1743,1
DA:1744,1
DA:1745,1
DA:1748,1
DA:1749,1
DA:1750,1
DA:1751,1
DA:1752,1
DA:1753,1
DA:1754,1
DA:1755,1
DA:1756,1
DA:1757,1
DA:1759,1
DA:1761,1
DA:1762,1
DA:1763,1
DA:1764,1
DA:1766,1
DA:1767,1
DA:1768,1
DA:1769,1
DA:1770,1
DA:1771,1
DA:1772,1
DA:1773,1
DA:1776,1
DA:1777,1
DA:1778,1
DA:1779,1
DA:1780,1
DA:1781,1
DA:1782,1
DA:1783,1
DA:1784,1
DA:1785,1
DA:1786,1
DA:1787,1
DA:1788,1
DA:1789,1
DA:1790,1
DA:1792,1
DA:1794,1
DA:1795,1
DA:1798,1
DA:1799,1
DA:1800,1
DA:1801,2
DA:1802,1
DA:1803,1
DA:1804,1
DA:1806,1
DA:1807,1
DA:1808,1
DA:1809,3
DA:1810,1
DA:1811,1
DA:1812,1
DA:1813,1
DA:1816,1
DA:1817,1
DA:1818,1
DA:1819,1
DA:1820,1
DA:1821,1
DA:1823,1
DA:1825,1
DA:1826,1
DA:1827,1
DA:1828,1
DA:1829,1
DA:1831,1
DA:1832,1
DA:1833,1
DA:1834,1
DA:1835,1
DA:1836,1
DA:1837,1
DA:1838,1
DA:1841,1
DA:1842,1
DA:1843,1
DA:1844,1
DA:1845,1
DA:1846,1
DA:1847,1
DA:1848,1
DA:1849,1
DA:1850,1
DA:1851,1
DA:1852,1
DA:1853,1
DA:1854,1
DA:1855,1
DA:1856,1
DA:1858,1
DA:1860,1
DA:1861,1
DA:1864,1
DA:1865,1
DA:1866,1
DA:1867,4
DA:1868,1
DA:1869,1
DA:1870,1
DA:1871,1
DA:1872,1
DA:1873,1
DA:1874,1
DA:1875,1
DA:1876,1
DA:1879,1
DA:1881,1
DA:1882,1
DA:1883,1
DA:1884,1
DA:1885,1
DA:1886,1
DA:1887,1
DA:1888,1
DA:1889,1
DA:1890,1
DA:1891,1
DA:1892,1
DA:1893,1
DA:1895,1
DA:1897,1
DA:1900,1
DA:1901,1
DA:1902,1
DA:1905,1
DA:1907,1
DA:1908,1
DA:1911,1
DA:1914,1
DA:1916,1
DA:1917,1
DA:1918,1
DA:1919,1
DA:1920,1
DA:1921,1
DA:1922,1
DA:1923,1
DA:1924,1
DA:1926,1
DA:1928,1
DA:1929,1
DA:1930,1
DA:1931,1
DA:1932,1
DA:1933,1
DA:1936,1
BRF:0
BRH:0
LF:1392
LH:1332
end_of_record
SF:/home/irahardianto/works/projects/pathfinder/crates/pathfinder-treesitter/src/treesitter_surgeon.rs
FN:306,_RNCNCNCNvXs0_NtCs8udefrGgaFn_21pathfinder_treesitter18treesitter_surgeonNtBb_17TreeSitterSurgeonNtNtBd_7surgeon7Surgeon16read_source_file000Bd_
FN:253,_RNCNCNCNvXs0_NtCs8udefrGgaFn_21pathfinder_treesitter18treesitter_surgeonNtBb_17TreeSitterSurgeonNtNtBd_7surgeon7Surgeon17read_symbol_scope000Bd_
FN:274,_RNCNCNCNvXs0_NtCs8udefrGgaFn_21pathfinder_treesitter18treesitter_surgeonNtBb_17TreeSitterSurgeonNtNtBd_7surgeon7Surgeon17read_symbol_scope00s0_0Bd_
FN:279,_RNCNCNCNvXs0_NtCs8udefrGgaFn_21pathfinder_treesitter18treesitter_surgeonNtBb_17TreeSitterSurgeonNtNtBd_7surgeon7Surgeon17read_symbol_scope00s1_0Bd_
FN:266,_RNCNCNCNvXs0_NtCs8udefrGgaFn_21pathfinder_treesitter18treesitter_surgeonNtBb_17TreeSitterSurgeonNtNtBd_7surgeon7Surgeon17read_symbol_scope00s_0Bd_
FN:396,_RNCNCNCNvXs0_NtCs8udefrGgaFn_21pathfinder_treesitter18treesitter_surgeonNtBb_17TreeSitterSurgeonNtNtBd_7surgeon7Surgeon18resolve_body_range000Bd_
FN:415,_RNCNCNCNvXs0_NtCs8udefrGgaFn_21pathfinder_treesitter18treesitter_surgeonNtBb_17TreeSitterSurgeonNtNtBd_7surgeon7Surgeon18resolve_body_range00s0_0Bd_
FN:416,_RNCNCNCNvXs0_NtCs8udefrGgaFn_21pathfinder_treesitter18treesitter_surgeonNtBb_17TreeSitterSurgeonNtNtBd_7surgeon7Surgeon18resolve_body_range00s1_0Bd_
FN:407,_RNCNCNCNvXs0_NtCs8udefrGgaFn_21pathfinder_treesitter18treesitter_surgeonNtBb_17TreeSitterSurgeonNtNtBd_7surgeon7Surgeon18resolve_body_range00s_0Bd_
FN:460,_RNCNCNCNvXs0_NtCs8udefrGgaFn_21pathfinder_treesitter18treesitter_surgeonNtBb_17TreeSitterSurgeonNtNtBd_7surgeon7Surgeon18resolve_full_range000Bd_
FN:481,_RNCNCNCNvXs0_NtCs8udefrGgaFn_21pathfinder_treesitter18treesitter_surgeonNtBb_17TreeSitterSurgeonNtNtBd_7surgeon7Surgeon18resolve_full_range00s0_0Bd_
FN:482,_RNCNCNCNvXs0_NtCs8udefrGgaFn_21pathfinder_treesitter18treesitter_surgeonNtBb_17TreeSitterSurgeonNtNtBd_7surgeon7Surgeon18resolve_full_range00s1_0Bd_
FN:470,_RNCNCNCNvXs0_NtCs8udefrGgaFn_21pathfinder_treesitter18treesitter_surgeonNtBb_17TreeSitterSurgeonNtNtBd_7surgeon7Surgeon18resolve_full_range00s_0Bd_
FN:48,_RNCNCNvMNtCs8udefrGgaFn_21pathfinder_treesitter18treesitter_surgeonNtB6_17TreeSitterSurgeon12cached_parse00B8_
FN:106,_RNCNCNvMNtCs8udefrGgaFn_21pathfinder_treesitter18treesitter_surgeonNtB6_17TreeSitterSurgeon15find_body_bytess_00B8_
FN:46,_RNCNvMNtCs8udefrGgaFn_21pathfinder_treesitter18treesitter_surgeonNtB4_17TreeSitterSurgeon12cached_parse0B6_
FN:95,_RNCNvMNtCs8udefrGgaFn_21pathfinder_treesitter18treesitter_surgeonNtB4_17TreeSitterSurgeon15find_body_bytes0B6_
FN:127,_RNCNvMNtCs8udefrGgaFn_21pathfinder_treesitter18treesitter_surgeonNtB4_17TreeSitterSurgeon15find_body_bytess0_0B6_
FN:103,_RNCNvMNtCs8udefrGgaFn_21pathfinder_treesitter18treesitter_surgeonNtB4_17TreeSitterSurgeon15find_body_bytess_0B6_
FN:161,_RNCNvMNtCs8udefrGgaFn_21pathfinder_treesitter18treesitter_surgeonNtB4_17TreeSitterSurgeon18detect_body_indent0B6_
FN:162,_RNCNvMNtCs8udefrGgaFn_21pathfinder_treesitter18treesitter_surgeonNtB4_17TreeSitterSurgeon18detect_body_indents_0B6_
FN:203,_RNCNvMNtCs8udefrGgaFn_21pathfinder_treesitter18treesitter_surgeonNtB4_17TreeSitterSurgeon25expand_to_full_start_byte0B6_
FN:217,_RNCNvMNtCs8udefrGgaFn_21pathfinder_treesitter18treesitter_surgeonNtB4_17TreeSitterSurgeon25expand_to_full_start_bytes0_0B6_
FN:218,_RNCNvMNtCs8udefrGgaFn_21pathfinder_treesitter18treesitter_surgeonNtB4_17TreeSitterSurgeon25expand_to_full_start_bytes1_0B6_
FN:204,_RNCNvMNtCs8udefrGgaFn_21pathfinder_treesitter18treesitter_surgeonNtB4_17TreeSitterSurgeon25expand_to_full_start_bytes_0B6_
FN:33,_RNvMNtCs8udefrGgaFn_21pathfinder_treesitter18treesitter_surgeonNtB2_17TreeSitterSurgeon12cached_parse
FN:83,_RNvMNtCs8udefrGgaFn_21pathfinder_treesitter18treesitter_surgeonNtB2_17TreeSitterSurgeon15find_body_bytes
FN:148,_RNvMNtCs8udefrGgaFn_21pathfinder_treesitter18treesitter_surgeonNtB2_17TreeSitterSurgeon18detect_body_indent
FN:197,_RNvMNtCs8udefrGgaFn_21pathfinder_treesitter18treesitter_surgeonNtB2_17TreeSitterSurgeon25expand_to_full_start_byte
FN:22,_RNvMNtCs8udefrGgaFn_21pathfinder_treesitter18treesitter_surgeonNtB2_17TreeSitterSurgeon3new
FN:545,_RNvNtCs8udefrGgaFn_21pathfinder_treesitter18treesitter_surgeon14is_string_node
FN:529,_RNvNtCs8udefrGgaFn_21pathfinder_treesitter18treesitter_surgeon15is_comment_node
FN:517,_RNvXs0_NtCs8udefrGgaFn_21pathfinder_treesitter18treesitter_surgeonNtB5_17TreeSitterSurgeonNtNtB7_7surgeon7Surgeon16invalidate_cache
FN:517,_RNvXs0_NtCsc3IEwSMbWof_21pathfinder_treesitter18treesitter_surgeonNtB5_17TreeSitterSurgeonNtNtB7_7surgeon7Surgeon16invalidate_cache
FN:33,_RNvMNtCsc3IEwSMbWof_21pathfinder_treesitter18treesitter_surgeonNtB2_17TreeSitterSurgeon12cached_parse
FN:83,_RNvMNtCsc3IEwSMbWof_21pathfinder_treesitter18treesitter_surgeonNtB2_17TreeSitterSurgeon15find_body_bytes
FN:148,_RNvMNtCsc3IEwSMbWof_21pathfinder_treesitter18treesitter_surgeonNtB2_17TreeSitterSurgeon18detect_body_indent
FN:197,_RNvMNtCsc3IEwSMbWof_21pathfinder_treesitter18treesitter_surgeonNtB2_17TreeSitterSurgeon25expand_to_full_start_byte
FN:22,_RNvMNtCsc3IEwSMbWof_21pathfinder_treesitter18treesitter_surgeonNtB2_17TreeSitterSurgeon3new
FN:545,_RNvNtCsc3IEwSMbWof_21pathfinder_treesitter18treesitter_surgeon14is_string_node
FN:529,_RNvNtCsc3IEwSMbWof_21pathfinder_treesitter18treesitter_surgeon15is_comment_node
FN:722,_RNCNCNvNtNtCsc3IEwSMbWof_21pathfinder_treesitter18treesitter_surgeon5testss_43test_read_source_file_vue_returns_all_zones00B9_
FN:735,_RNCNCNvNtNtCsc3IEwSMbWof_21pathfinder_treesitter18treesitter_surgeon5testss_43test_read_source_file_vue_returns_all_zones0s0_0B9_
FN:730,_RNCNCNvNtNtCsc3IEwSMbWof_21pathfinder_treesitter18treesitter_surgeon5testss_43test_read_source_file_vue_returns_all_zones0s1_0B9_
FN:739,_RNCNCNvNtNtCsc3IEwSMbWof_21pathfinder_treesitter18treesitter_surgeon5testss_43test_read_source_file_vue_returns_all_zones0s2_0B9_
FN:726,_RNCNCNvNtNtCsc3IEwSMbWof_21pathfinder_treesitter18treesitter_surgeon5testss_43test_read_source_file_vue_returns_all_zones0s_0B9_
FN:573,_RNCNvNtNtCsc3IEwSMbWof_21pathfinder_treesitter18treesitter_surgeon5testss_25test_read_symbol_scope_go0B7_
FN:920,_RNCNvNtNtCsc3IEwSMbWof_21pathfinder_treesitter18treesitter_surgeon5testss_30test_extract_nested_impl_block0B7_
FN:871,_RNCNvNtNtCsc3IEwSMbWof_21pathfinder_treesitter18treesitter_surgeon5testss_32test_extract_empty_function_body0B7_
FN:599,_RNCNvNtNtCsc3IEwSMbWof_21pathfinder_treesitter18treesitter_surgeon5testss_32test_read_symbol_scope_not_found0B7_
FN:799,_RNCNvNtNtCsc3IEwSMbWof_21pathfinder_treesitter18treesitter_surgeon5testss_36test_extract_typescript_class_method0B7_
FN:624,_RNCNvNtNtCsc3IEwSMbWof_21pathfinder_treesitter18treesitter_surgeon5testss_36test_node_type_at_position_code_line0B7_
FN:848,_RNCNvNtNtCsc3IEwSMbWof_21pathfinder_treesitter18treesitter_surgeon5testss_38test_extract_python_decorator_function0B7_
FN:826,_RNCNvNtNtCsc3IEwSMbWof_21pathfinder_treesitter18treesitter_surgeon5testss_38test_extract_typescript_arrow_function0B7_
FN:642,_RNCNvNtNtCsc3IEwSMbWof_21pathfinder_treesitter18treesitter_surgeon5testss_39test_node_type_at_position_comment_line0B7_
FN:663,_RNCNvNtNtCsc3IEwSMbWof_21pathfinder_treesitter18treesitter_surgeon5testss_41test_node_type_at_position_string_literal0B7_
FN:970,_RNCNvNtNtCsc3IEwSMbWof_21pathfinder_treesitter18treesitter_surgeon5testss_41test_typescript_insert_after_class_method0B7_
FN:745,_RNCNvNtNtCsc3IEwSMbWof_21pathfinder_treesitter18treesitter_surgeon5testss_42test_enclosing_symbol_inside_template_zone0B7_
FN:947,_RNCNvNtNtCsc3IEwSMbWof_21pathfinder_treesitter18treesitter_surgeon5testss_42test_go_insert_before_respects_indentation0B7_
FN:893,_RNCNvNtNtCsc3IEwSMbWof_21pathfinder_treesitter18treesitter_surgeon5testss_43test_extract_bare_file_unsupported_language0B7_
FN:706,_RNCNvNtNtCsc3IEwSMbWof_21pathfinder_treesitter18treesitter_surgeon5testss_43test_read_source_file_vue_returns_all_zones0B7_
FN:772,_RNCNvNtNtCsc3IEwSMbWof_21pathfinder_treesitter18treesitter_surgeon5testss_49test_extract_go_method_with_receiver_as_top_level0B7_
FN:306,_RNCNCNCNvXs0_NtCsc3IEwSMbWof_21pathfinder_treesitter18treesitter_surgeonNtBb_17TreeSitterSurgeonNtNtBd_7surgeon7Surgeon16read_source_file000Bd_
FN:253,_RNCNCNCNvXs0_NtCsc3IEwSMbWof_21pathfinder_treesitter18treesitter_surgeonNtBb_17TreeSitterSurgeonNtNtBd_7surgeon7Surgeon17read_symbol_scope000Bd_
FN:274,_RNCNCNCNvXs0_NtCsc3IEwSMbWof_21pathfinder_treesitter18treesitter_surgeonNtBb_17TreeSitterSurgeonNtNtBd_7surgeon7Surgeon17read_symbol_scope00s0_0Bd_
FN:279,_RNCNCNCNvXs0_NtCsc3IEwSMbWof_21pathfinder_treesitter18treesitter_surgeonNtBb_17TreeSitterSurgeonNtNtBd_7surgeon7Surgeon17read_symbol_scope00s1_0Bd_
FN:266,_RNCNCNCNvXs0_NtCsc3IEwSMbWof_21pathfinder_treesitter18treesitter_surgeonNtBb_17TreeSitterSurgeonNtNtBd_7surgeon7Surgeon17read_symbol_scope00s_0Bd_
FN:396,_RNCNCNCNvXs0_NtCsc3IEwSMbWof_21pathfinder_treesitter18treesitter_surgeonNtBb_17TreeSitterSurgeonNtNtBd_7surgeon7Surgeon18resolve_body_range000Bd_
FN:415,_RNCNCNCNvXs0_NtCsc3IEwSMbWof_21pathfinder_treesitter18treesitter_surgeonNtBb_17TreeSitterSurgeonNtNtBd_7surgeon7Surgeon18resolve_body_range00s0_0Bd_
FN:416,_RNCNCNCNvXs0_NtCsc3IEwSMbWof_21pathfinder_treesitter18treesitter_surgeonNtBb_17TreeSitterSurgeonNtNtBd_7surgeon7Surgeon18resolve_body_range00s1_0Bd_
FN:407,_RNCNCNCNvXs0_NtCsc3IEwSMbWof_21pathfinder_treesitter18treesitter_surgeonNtBb_17TreeSitterSurgeonNtNtBd_7surgeon7Surgeon18resolve_body_range00s_0Bd_
FN:460,_RNCNCNCNvXs0_NtCsc3IEwSMbWof_21pathfinder_treesitter18treesitter_surgeonNtBb_17TreeSitterSurgeonNtNtBd_7surgeon7Surgeon18resolve_full_range000Bd_
FN:481,_RNCNCNCNvXs0_NtCsc3IEwSMbWof_21pathfinder_treesitter18treesitter_surgeonNtBb_17TreeSitterSurgeonNtNtBd_7surgeon7Surgeon18resolve_full_range00s0_0Bd_
FN:482,_RNCNCNCNvXs0_NtCsc3IEwSMbWof_21pathfinder_treesitter18treesitter_surgeonNtBb_17TreeSitterSurgeonNtNtBd_7surgeon7Surgeon18resolve_full_range00s1_0Bd_
FN:470,_RNCNCNCNvXs0_NtCsc3IEwSMbWof_21pathfinder_treesitter18treesitter_surgeonNtBb_17TreeSitterSurgeonNtNtBd_7surgeon7Surgeon18resolve_full_range00s_0Bd_
FN:48,_RNCNCNvMNtCsc3IEwSMbWof_21pathfinder_treesitter18treesitter_surgeonNtB6_17TreeSitterSurgeon12cached_parse00B8_
FN:106,_RNCNCNvMNtCsc3IEwSMbWof_21pathfinder_treesitter18treesitter_surgeonNtB6_17TreeSitterSurgeon15find_body_bytess_00B8_
FN:46,_RNCNvMNtCsc3IEwSMbWof_21pathfinder_treesitter18treesitter_surgeonNtB4_17TreeSitterSurgeon12cached_parse0B6_
FN:95,_RNCNvMNtCsc3IEwSMbWof_21pathfinder_treesitter18treesitter_surgeonNtB4_17TreeSitterSurgeon15find_body_bytes0B6_
FN:127,_RNCNvMNtCsc3IEwSMbWof_21pathfinder_treesitter18treesitter_surgeonNtB4_17TreeSitterSurgeon15find_body_bytess0_0B6_
FN:103,_RNCNvMNtCsc3IEwSMbWof_21pathfinder_treesitter18treesitter_surgeonNtB4_17TreeSitterSurgeon15find_body_bytess_0B6_
FN:161,_RNCNvMNtCsc3IEwSMbWof_21pathfinder_treesitter18treesitter_surgeonNtB4_17TreeSitterSurgeon18detect_body_indent0B6_
FN:162,_RNCNvMNtCsc3IEwSMbWof_21pathfinder_treesitter18treesitter_surgeonNtB4_17TreeSitterSurgeon18detect_body_indents_0B6_
FN:203,_RNCNvMNtCsc3IEwSMbWof_21pathfinder_treesitter18treesitter_surgeonNtB4_17TreeSitterSurgeon25expand_to_full_start_byte0B6_
FN:217,_RNCNvMNtCsc3IEwSMbWof_21pathfinder_treesitter18treesitter_surgeonNtB4_17TreeSitterSurgeon25expand_to_full_start_bytes0_0B6_
FN:218,_RNCNvMNtCsc3IEwSMbWof_21pathfinder_treesitter18treesitter_surgeonNtB4_17TreeSitterSurgeon25expand_to_full_start_bytes1_0B6_
FN:204,_RNCNvMNtCsc3IEwSMbWof_21pathfinder_treesitter18treesitter_surgeonNtB4_17TreeSitterSurgeon25expand_to_full_start_bytes_0B6_
FN:573,_RNvNtNtCsc3IEwSMbWof_21pathfinder_treesitter18treesitter_surgeon5testss_25test_read_symbol_scope_go
FN:920,_RNvNtNtCsc3IEwSMbWof_21pathfinder_treesitter18treesitter_surgeon5testss_30test_extract_nested_impl_block
FN:871,_RNvNtNtCsc3IEwSMbWof_21pathfinder_treesitter18treesitter_surgeon5testss_32test_extract_empty_function_body
FN:599,_RNvNtNtCsc3IEwSMbWof_21pathfinder_treesitter18treesitter_surgeon5testss_32test_read_symbol_scope_not_found
FN:799,_RNvNtNtCsc3IEwSMbWof_21pathfinder_treesitter18treesitter_surgeon5testss_36test_extract_typescript_class_method
FN:624,_RNvNtNtCsc3IEwSMbWof_21pathfinder_treesitter18treesitter_surgeon5testss_36test_node_type_at_position_code_line
FN:848,_RNvNtNtCsc3IEwSMbWof_21pathfinder_treesitter18treesitter_surgeon5testss_38test_extract_python_decorator_function
FN:826,_RNvNtNtCsc3IEwSMbWof_21pathfinder_treesitter18treesitter_surgeon5testss_38test_extract_typescript_arrow_function
FN:642,_RNvNtNtCsc3IEwSMbWof_21pathfinder_treesitter18treesitter_surgeon5testss_39test_node_type_at_position_comment_line
FN:663,_RNvNtNtCsc3IEwSMbWof_21pathfinder_treesitter18treesitter_surgeon5testss_41test_node_type_at_position_string_literal
FN:970,_RNvNtNtCsc3IEwSMbWof_21pathfinder_treesitter18treesitter_surgeon5testss_41test_typescript_insert_after_class_method
FN:745,_RNvNtNtCsc3IEwSMbWof_21pathfinder_treesitter18treesitter_surgeon5testss_42test_enclosing_symbol_inside_template_zone
FN:947,_RNvNtNtCsc3IEwSMbWof_21pathfinder_treesitter18treesitter_surgeon5testss_42test_go_insert_before_respects_indentation
FN:893,_RNvNtNtCsc3IEwSMbWof_21pathfinder_treesitter18treesitter_surgeon5testss_43test_extract_bare_file_unsupported_language
FN:706,_RNvNtNtCsc3IEwSMbWof_21pathfinder_treesitter18treesitter_surgeon5testss_43test_read_source_file_vue_returns_all_zones
FN:772,_RNvNtNtCsc3IEwSMbWof_21pathfinder_treesitter18treesitter_surgeon5testss_49test_extract_go_method_with_receiver_as_top_level
FNDA:0,_RNCNCNCNvXs0_NtCs8udefrGgaFn_21pathfinder_treesitter18treesitter_surgeonNtBb_17TreeSitterSurgeonNtNtBd_7surgeon7Surgeon16read_source_file000Bd_
FNDA:0,_RNCNCNCNvXs0_NtCs8udefrGgaFn_21pathfinder_treesitter18treesitter_surgeonNtBb_17TreeSitterSurgeonNtNtBd_7surgeon7Surgeon17read_symbol_scope000Bd_
FNDA:0,_RNCNCNCNvXs0_NtCs8udefrGgaFn_21pathfinder_treesitter18treesitter_surgeonNtBb_17TreeSitterSurgeonNtNtBd_7surgeon7Surgeon17read_symbol_scope00s0_0Bd_
FNDA:0,_RNCNCNCNvXs0_NtCs8udefrGgaFn_21pathfinder_treesitter18treesitter_surgeonNtBb_17TreeSitterSurgeonNtNtBd_7surgeon7Surgeon17read_symbol_scope00s1_0Bd_
FNDA:0,_RNCNCNCNvXs0_NtCs8udefrGgaFn_21pathfinder_treesitter18treesitter_surgeonNtBb_17TreeSitterSurgeonNtNtBd_7surgeon7Surgeon17read_symbol_scope00s_0Bd_
FNDA:0,_RNCNCNCNvXs0_NtCs8udefrGgaFn_21pathfinder_treesitter18treesitter_surgeonNtBb_17TreeSitterSurgeonNtNtBd_7surgeon7Surgeon18resolve_body_range000Bd_
FNDA:2,_RNCNCNCNvXs0_NtCs8udefrGgaFn_21pathfinder_treesitter18treesitter_surgeonNtBb_17TreeSitterSurgeonNtNtBd_7surgeon7Surgeon18resolve_body_range00s0_0Bd_
FNDA:2,_RNCNCNCNvXs0_NtCs8udefrGgaFn_21pathfinder_treesitter18treesitter_surgeonNtBb_17TreeSitterSurgeonNtNtBd_7surgeon7Surgeon18resolve_body_range00s1_0Bd_
FNDA:0,_RNCNCNCNvXs0_NtCs8udefrGgaFn_21pathfinder_treesitter18treesitter_surgeonNtBb_17TreeSitterSurgeonNtNtBd_7surgeon7Surgeon18resolve_body_range00s_0Bd_
FNDA:0,_RNCNCNCNvXs0_NtCs8udefrGgaFn_21pathfinder_treesitter18treesitter_surgeonNtBb_17TreeSitterSurgeonNtNtBd_7surgeon7Surgeon18resolve_full_range000Bd_
FNDA:10,_RNCNCNCNvXs0_NtCs8udefrGgaFn_21pathfinder_treesitter18treesitter_surgeonNtBb_17TreeSitterSurgeonNtNtBd_7surgeon7Surgeon18resolve_full_range00s0_0Bd_
FNDA:10,_RNCNCNCNvXs0_NtCs8udefrGgaFn_21pathfinder_treesitter18treesitter_surgeonNtBb_17TreeSitterSurgeonNtNtBd_7surgeon7Surgeon18resolve_full_range00s1_0Bd_
FNDA:0,_RNCNCNCNvXs0_NtCs8udefrGgaFn_21pathfinder_treesitter18treesitter_surgeonNtBb_17TreeSitterSurgeonNtNtBd_7surgeon7Surgeon18resolve_full_range00s_0Bd_
FNDA:0,_RNCNCNvMNtCs8udefrGgaFn_21pathfinder_treesitter18treesitter_surgeonNtB6_17TreeSitterSurgeon12cached_parse00B8_
FNDA:0,_RNCNCNvMNtCs8udefrGgaFn_21pathfinder_treesitter18treesitter_surgeonNtB6_17TreeSitterSurgeon15find_body_bytess_00B8_
FNDA:15,_RNCNvMNtCs8udefrGgaFn_21pathfinder_treesitter18treesitter_surgeonNtB4_17TreeSitterSurgeon12cached_parse0B6_
FNDA:0,_RNCNvMNtCs8udefrGgaFn_21pathfinder_treesitter18treesitter_surgeonNtB4_17TreeSitterSurgeon15find_body_bytes0B6_
FNDA:0,_RNCNvMNtCs8udefrGgaFn_21pathfinder_treesitter18treesitter_surgeonNtB4_17TreeSitterSurgeon15find_body_bytess0_0B6_
FNDA:0,_RNCNvMNtCs8udefrGgaFn_21pathfinder_treesitter18treesitter_surgeonNtB4_17TreeSitterSurgeon15find_body_bytess_0B6_
FNDA:10,_RNCNvMNtCs8udefrGgaFn_21pathfinder_treesitter18treesitter_surgeonNtB4_17TreeSitterSurgeon18detect_body_indent0B6_
FNDA:2,_RNCNvMNtCs8udefrGgaFn_21pathfinder_treesitter18treesitter_surgeonNtB4_17TreeSitterSurgeon18detect_body_indents_0B6_
FNDA:14,_RNCNvMNtCs8udefrGgaFn_21pathfinder_treesitter18treesitter_surgeonNtB4_17TreeSitterSurgeon25expand_to_full_start_byte0B6_
FNDA:38,_RNCNvMNtCs8udefrGgaFn_21pathfinder_treesitter18treesitter_surgeonNtB4_17TreeSitterSurgeon25expand_to_full_start_bytes0_0B6_
FNDA:14,_RNCNvMNtCs8udefrGgaFn_21pathfinder_treesitter18treesitter_surgeonNtB4_17TreeSitterSurgeon25expand_to_full_start_bytes1_0B6_
FNDA:14,_RNCNvMNtCs8udefrGgaFn_21pathfinder_treesitter18treesitter_surgeonNtB4_17TreeSitterSurgeon25expand_to_full_start_bytes_0B6_
FNDA:15,_RNvMNtCs8udefrGgaFn_21pathfinder_treesitter18treesitter_surgeonNtB2_17TreeSitterSurgeon12cached_parse
FNDA:4,_RNvMNtCs8udefrGgaFn_21pathfinder_treesitter18treesitter_surgeonNtB2_17TreeSitterSurgeon15find_body_bytes
FNDA:4,_RNvMNtCs8udefrGgaFn_21pathfinder_treesitter18treesitter_surgeonNtB2_17TreeSitterSurgeon18detect_body_indent
FNDA:10,_RNvMNtCs8udefrGgaFn_21pathfinder_treesitter18treesitter_surgeonNtB2_17TreeSitterSurgeon25expand_to_full_start_byte
FNDA:13,_RNvMNtCs8udefrGgaFn_21pathfinder_treesitter18treesitter_surgeonNtB2_17TreeSitterSurgeon3new
FNDA:0,_RNvNtCs8udefrGgaFn_21pathfinder_treesitter18treesitter_surgeon14is_string_node
FNDA:0,_RNvNtCs8udefrGgaFn_21pathfinder_treesitter18treesitter_surgeon15is_comment_node
FNDA:10,_RNvXs0_NtCs8udefrGgaFn_21pathfinder_treesitter18treesitter_surgeonNtB5_17TreeSitterSurgeonNtNtB7_7surgeon7Surgeon16invalidate_cache
FNDA:0,_RNvXs0_NtCsc3IEwSMbWof_21pathfinder_treesitter18treesitter_surgeonNtB5_17TreeSitterSurgeonNtNtB7_7surgeon7Surgeon16invalidate_cache
FNDA:16,_RNvMNtCsc3IEwSMbWof_21pathfinder_treesitter18treesitter_surgeonNtB2_17TreeSitterSurgeon12cached_parse
FNDA:1,_RNvMNtCsc3IEwSMbWof_21pathfinder_treesitter18treesitter_surgeonNtB2_17TreeSitterSurgeon15find_body_bytes
FNDA:1,_RNvMNtCsc3IEwSMbWof_21pathfinder_treesitter18treesitter_surgeonNtB2_17TreeSitterSurgeon18detect_body_indent
FNDA:1,_RNvMNtCsc3IEwSMbWof_21pathfinder_treesitter18treesitter_surgeonNtB2_17TreeSitterSurgeon25expand_to_full_start_byte
FNDA:16,_RNvMNtCsc3IEwSMbWof_21pathfinder_treesitter18treesitter_surgeonNtB2_17TreeSitterSurgeon3new
FNDA:5,_RNvNtCsc3IEwSMbWof_21pathfinder_treesitter18treesitter_surgeon14is_string_node
FNDA:6,_RNvNtCsc3IEwSMbWof_21pathfinder_treesitter18treesitter_surgeon15is_comment_node
FNDA:2,_RNCNCNvNtNtCsc3IEwSMbWof_21pathfinder_treesitter18treesitter_surgeon5testss_43test_read_source_file_vue_returns_all_zones00B9_
FNDA:4,_RNCNCNvNtNtCsc3IEwSMbWof_21pathfinder_treesitter18treesitter_surgeon5testss_43test_read_source_file_vue_returns_all_zones0s0_0B9_
FNDA:2,_RNCNCNvNtNtCsc3IEwSMbWof_21pathfinder_treesitter18treesitter_surgeon5testss_43test_read_source_file_vue_returns_all_zones0s1_0B9_
FNDA:1,_RNCNCNvNtNtCsc3IEwSMbWof_21pathfinder_treesitter18treesitter_surgeon5testss_43test_read_source_file_vue_returns_all_zones0s2_0B9_
FNDA:3,_RNCNCNvNtNtCsc3IEwSMbWof_21pathfinder_treesitter18treesitter_surgeon5testss_43test_read_source_file_vue_returns_all_zones0s_0B9_
FNDA:1,_RNCNvNtNtCsc3IEwSMbWof_21pathfinder_treesitter18treesitter_surgeon5testss_25test_read_symbol_scope_go0B7_
FNDA:1,_RNCNvNtNtCsc3IEwSMbWof_21pathfinder_treesitter18treesitter_surgeon5testss_30test_extract_nested_impl_block0B7_
FNDA:1,_RNCNvNtNtCsc3IEwSMbWof_21pathfinder_treesitter18treesitter_surgeon5testss_32test_extract_empty_function_body0B7_
FNDA:1,_RNCNvNtNtCsc3IEwSMbWof_21pathfinder_treesitter18treesitter_surgeon5testss_32test_read_symbol_scope_not_found0B7_
FNDA:1,_RNCNvNtNtCsc3IEwSMbWof_21pathfinder_treesitter18treesitter_surgeon5testss_36test_extract_typescript_class_method0B7_
FNDA:1,_RNCNvNtNtCsc3IEwSMbWof_21pathfinder_treesitter18treesitter_surgeon5testss_36test_node_type_at_position_code_line0B7_
FNDA:1,_RNCNvNtNtCsc3IEwSMbWof_21pathfinder_treesitter18treesitter_surgeon5testss_38test_extract_python_decorator_function0B7_
FNDA:1,_RNCNvNtNtCsc3IEwSMbWof_21pathfinder_treesitter18treesitter_surgeon5testss_38test_extract_typescript_arrow_function0B7_
FNDA:1,_RNCNvNtNtCsc3IEwSMbWof_21pathfinder_treesitter18treesitter_surgeon5testss_39test_node_type_at_position_comment_line0B7_
FNDA:1,_RNCNvNtNtCsc3IEwSMbWof_21pathfinder_treesitter18treesitter_surgeon5testss_41test_node_type_at_position_string_literal0B7_
FNDA:1,_RNCNvNtNtCsc3IEwSMbWof_21pathfinder_treesitter18treesitter_surgeon5testss_41test_typescript_insert_after_class_method0B7_
FNDA:1,_RNCNvNtNtCsc3IEwSMbWof_21pathfinder_treesitter18treesitter_surgeon5testss_42test_enclosing_symbol_inside_template_zone0B7_
FNDA:1,_RNCNvNtNtCsc3IEwSMbWof_21pathfinder_treesitter18treesitter_surgeon5testss_42test_go_insert_before_respects_indentation0B7_
FNDA:1,_RNCNvNtNtCsc3IEwSMbWof_21pathfinder_treesitter18treesitter_surgeon5testss_43test_extract_bare_file_unsupported_language0B7_
FNDA:1,_RNCNvNtNtCsc3IEwSMbWof_21pathfinder_treesitter18treesitter_surgeon5testss_43test_read_source_file_vue_returns_all_zones0B7_
FNDA:1,_RNCNvNtNtCsc3IEwSMbWof_21pathfinder_treesitter18treesitter_surgeon5testss_49test_extract_go_method_with_receiver_as_top_level0B7_
FNDA:0,_RNCNCNCNvXs0_NtCsc3IEwSMbWof_21pathfinder_treesitter18treesitter_surgeonNtBb_17TreeSitterSurgeonNtNtBd_7surgeon7Surgeon16read_source_file000Bd_
FNDA:0,_RNCNCNCNvXs0_NtCsc3IEwSMbWof_21pathfinder_treesitter18treesitter_surgeonNtBb_17TreeSitterSurgeonNtNtBd_7surgeon7Surgeon17read_symbol_scope000Bd_
FNDA:0,_RNCNCNCNvXs0_NtCsc3IEwSMbWof_21pathfinder_treesitter18treesitter_surgeonNtBb_17TreeSitterSurgeonNtNtBd_7surgeon7Surgeon17read_symbol_scope00s0_0Bd_
FNDA:0,_RNCNCNCNvXs0_NtCsc3IEwSMbWof_21pathfinder_treesitter18treesitter_surgeonNtBb_17TreeSitterSurgeonNtNtBd_7surgeon7Surgeon17read_symbol_scope00s1_0Bd_
FNDA:1,_RNCNCNCNvXs0_NtCsc3IEwSMbWof_21pathfinder_treesitter18treesitter_surgeonNtBb_17TreeSitterSurgeonNtNtBd_7surgeon7Surgeon17read_symbol_scope00s_0Bd_
FNDA:0,_RNCNCNCNvXs0_NtCsc3IEwSMbWof_21pathfinder_treesitter18treesitter_surgeonNtBb_17TreeSitterSurgeonNtNtBd_7surgeon7Surgeon18resolve_body_range000Bd_
FNDA:1,_RNCNCNCNvXs0_NtCsc3IEwSMbWof_21pathfinder_treesitter18treesitter_surgeonNtBb_17TreeSitterSurgeonNtNtBd_7surgeon7Surgeon18resolve_body_range00s0_0Bd_
FNDA:1,_RNCNCNCNvXs0_NtCsc3IEwSMbWof_21pathfinder_treesitter18treesitter_surgeonNtBb_17TreeSitterSurgeonNtNtBd_7surgeon7Surgeon18resolve_body_range00s1_0Bd_
FNDA:0,_RNCNCNCNvXs0_NtCsc3IEwSMbWof_21pathfinder_treesitter18treesitter_surgeonNtBb_17TreeSitterSurgeonNtNtBd_7surgeon7Surgeon18resolve_body_range00s_0Bd_
FNDA:0,_RNCNCNCNvXs0_NtCsc3IEwSMbWof_21pathfinder_treesitter18treesitter_surgeonNtBb_17TreeSitterSurgeonNtNtBd_7surgeon7Surgeon18resolve_full_range000Bd_
FNDA:3,_RNCNCNCNvXs0_NtCsc3IEwSMbWof_21pathfinder_treesitter18treesitter_surgeonNtBb_17TreeSitterSurgeonNtNtBd_7surgeon7Surgeon18resolve_full_range00s0_0Bd_
FNDA:1,_RNCNCNCNvXs0_NtCsc3IEwSMbWof_21pathfinder_treesitter18treesitter_surgeonNtBb_17TreeSitterSurgeonNtNtBd_7surgeon7Surgeon18resolve_full_range00s1_0Bd_
FNDA:0,_RNCNCNCNvXs0_NtCsc3IEwSMbWof_21pathfinder_treesitter18treesitter_surgeonNtBb_17TreeSitterSurgeonNtNtBd_7surgeon7Surgeon18resolve_full_range00s_0Bd_
FNDA:1,_RNCNCNvMNtCsc3IEwSMbWof_21pathfinder_treesitter18treesitter_surgeonNtB6_17TreeSitterSurgeon12cached_parse00B8_
FNDA:0,_RNCNCNvMNtCsc3IEwSMbWof_21pathfinder_treesitter18treesitter_surgeonNtB6_17TreeSitterSurgeon15find_body_bytess_00B8_
FNDA:16,_RNCNvMNtCsc3IEwSMbWof_21pathfinder_treesitter18treesitter_surgeonNtB4_17TreeSitterSurgeon12cached_parse0B6_
FNDA:0,_RNCNvMNtCsc3IEwSMbWof_21pathfinder_treesitter18treesitter_surgeonNtB4_17TreeSitterSurgeon15find_body_bytes0B6_
FNDA:0,_RNCNvMNtCsc3IEwSMbWof_21pathfinder_treesitter18treesitter_surgeonNtB4_17TreeSitterSurgeon15find_body_bytess0_0B6_
FNDA:0,_RNCNvMNtCsc3IEwSMbWof_21pathfinder_treesitter18treesitter_surgeonNtB4_17TreeSitterSurgeon15find_body_bytess_0B6_
FNDA:0,_RNCNvMNtCsc3IEwSMbWof_21pathfinder_treesitter18treesitter_surgeonNtB4_17TreeSitterSurgeon18detect_body_indent0B6_
FNDA:0,_RNCNvMNtCsc3IEwSMbWof_21pathfinder_treesitter18treesitter_surgeonNtB4_17TreeSitterSurgeon18detect_body_indents_0B6_
FNDA:3,_RNCNvMNtCsc3IEwSMbWof_21pathfinder_treesitter18treesitter_surgeonNtB4_17TreeSitterSurgeon25expand_to_full_start_byte0B6_
FNDA:11,_RNCNvMNtCsc3IEwSMbWof_21pathfinder_treesitter18treesitter_surgeonNtB4_17TreeSitterSurgeon25expand_to_full_start_bytes0_0B6_
FNDA:0,_RNCNvMNtCsc3IEwSMbWof_21pathfinder_treesitter18treesitter_surgeonNtB4_17TreeSitterSurgeon25expand_to_full_start_bytes1_0B6_
FNDA:1,_RNCNvMNtCsc3IEwSMbWof_21pathfinder_treesitter18treesitter_surgeonNtB4_17TreeSitterSurgeon25expand_to_full_start_bytes_0B6_
FNDA:1,_RNvNtNtCsc3IEwSMbWof_21pathfinder_treesitter18treesitter_surgeon5testss_25test_read_symbol_scope_go
FNDA:1,_RNvNtNtCsc3IEwSMbWof_21pathfinder_treesitter18treesitter_surgeon5testss_30test_extract_nested_impl_block
FNDA:1,_RNvNtNtCsc3IEwSMbWof_21pathfinder_treesitter18treesitter_surgeon5testss_32test_extract_empty_function_body
FNDA:1,_RNvNtNtCsc3IEwSMbWof_21pathfinder_treesitter18treesitter_surgeon5testss_32test_read_symbol_scope_not_found
FNDA:1,_RNvNtNtCsc3IEwSMbWof_21pathfinder_treesitter18treesitter_surgeon5testss_36test_extract_typescript_class_method
FNDA:1,_RNvNtNtCsc3IEwSMbWof_21pathfinder_treesitter18treesitter_surgeon5testss_36test_node_type_at_position_code_line
FNDA:1,_RNvNtNtCsc3IEwSMbWof_21pathfinder_treesitter18treesitter_surgeon5testss_38test_extract_python_decorator_function
FNDA:1,_RNvNtNtCsc3IEwSMbWof_21pathfinder_treesitter18treesitter_surgeon5testss_38test_extract_typescript_arrow_function
FNDA:1,_RNvNtNtCsc3IEwSMbWof_21pathfinder_treesitter18treesitter_surgeon5testss_39test_node_type_at_position_comment_line
FNDA:1,_RNvNtNtCsc3IEwSMbWof_21pathfinder_treesitter18treesitter_surgeon5testss_41test_node_type_at_position_string_literal
FNDA:1,_RNvNtNtCsc3IEwSMbWof_21pathfinder_treesitter18treesitter_surgeon5testss_41test_typescript_insert_after_class_method
FNDA:1,_RNvNtNtCsc3IEwSMbWof_21pathfinder_treesitter18treesitter_surgeon5testss_42test_enclosing_symbol_inside_template_zone
FNDA:1,_RNvNtNtCsc3IEwSMbWof_21pathfinder_treesitter18treesitter_surgeon5testss_42test_go_insert_before_respects_indentation
FNDA:1,_RNvNtNtCsc3IEwSMbWof_21pathfinder_treesitter18treesitter_surgeon5testss_43test_extract_bare_file_unsupported_language
FNDA:1,_RNvNtNtCsc3IEwSMbWof_21pathfinder_treesitter18treesitter_surgeon5testss_43test_read_source_file_vue_returns_all_zones
FNDA:1,_RNvNtNtCsc3IEwSMbWof_21pathfinder_treesitter18treesitter_surgeon5testss_49test_extract_go_method_with_receiver_as_top_level
FNF:70
FNH:58
DA:22,29
DA:23,29
DA:24,29
DA:25,29
DA:26,29
DA:33,31
DA:34,31
DA:35,31
DA:36,31
DA:37,31
DA:38,31
DA:39,31
DA:40,31
DA:41,31
DA:42,31
DA:43,31
DA:44,31
DA:45,31
DA:46,31
DA:47,31
DA:48,31
DA:50,30
DA:53,30
DA:54,2
DA:55,2
DA:60,2
DA:61,2
DA:65,0
DA:66,0
DA:68,2
DA:69,28
DA:72,28
DA:73,28
DA:74,28
DA:75,28
DA:76,31
DA:83,5
DA:84,5
DA:85,5
DA:86,5
DA:87,5
DA:88,5
DA:89,5
DA:92,5
DA:93,5
DA:94,5
DA:95,0
DA:96,0
DA:97,0
DA:100,5
DA:101,5
DA:103,5
DA:104,0
DA:106,0
DA:107,0
DA:108,0
DA:109,0
DA:110,0
DA:111,0
DA:112,0
DA:113,0
DA:115,0
DA:116,0
DA:117,0
DA:119,5
DA:122,5
DA:125,0
DA:126,0
DA:127,0
DA:128,0
DA:129,0
DA:130,0
DA:131,0
DA:133,0
DA:134,0
DA:135,0
DA:136,0
DA:137,0
DA:138,0
DA:139,0
DA:141,5
DA:148,5
DA:149,5
DA:150,5
DA:151,5
DA:152,5
DA:153,5
DA:154,5
DA:155,5
DA:157,2
DA:158,2
DA:159,2
DA:160,2
DA:161,10
DA:162,2
DA:164,2
DA:165,2
DA:166,2
DA:167,2
DA:168,0
DA:169,0
DA:170,0
DA:171,0
DA:172,3
DA:175,3
DA:176,3
DA:177,3
DA:178,3
DA:179,0
DA:181,0
DA:185,3
DA:186,3
DA:188,3
DA:189,2
DA:190,2
DA:191,0
DA:194,1
DA:195,5
DA:197,11
DA:199,15
DA:200,15
DA:201,15
DA:202,15
DA:203,17
DA:204,15
DA:206,15
DA:207,0
DA:208,0
DA:209,0
DA:210,0
DA:212,15
DA:213,15
DA:214,15
DA:215,15
DA:216,15
DA:217,49
DA:218,15
DA:219,15
DA:222,15
DA:223,15
DA:224,15
DA:226,15
DA:227,10
DA:228,5
DA:230,5
DA:231,1
DA:232,1
DA:233,1
DA:234,1
DA:235,4
DA:236,4
DA:237,4
DA:238,1
DA:241,11
DA:242,11
DA:253,0
DA:254,0
DA:255,0
DA:256,0
DA:257,0
DA:258,0
DA:266,1
DA:267,1
DA:268,1
DA:274,0
DA:275,0
DA:276,0
DA:279,0
DA:280,0
DA:281,0
DA:306,0
DA:307,0
DA:308,0
DA:396,0
DA:397,0
DA:398,0
DA:407,0
DA:408,0
DA:409,0
DA:415,3
DA:416,3
DA:460,0
DA:461,0
DA:462,0
DA:470,0
DA:471,0
DA:472,0
DA:481,13
DA:482,11
DA:517,10
DA:518,10
DA:519,10
DA:529,6
DA:530,1
DA:531,6
DA:533,6
DA:534,5
DA:535,5
DA:536,5
DA:537,5
DA:539,6
DA:545,5
DA:546,1
DA:547,5
DA:549,5
DA:550,5
DA:551,5
DA:552,5
DA:553,4
DA:554,4
DA:555,4
DA:556,4
DA:557,4
DA:558,4
DA:559,4
DA:560,4
DA:562,5
DA:573,1
DA:574,1
DA:575,1
DA:576,1
DA:577,1
DA:580,1
DA:583,1
DA:585,1
DA:587,1
DA:588,1
DA:589,1
DA:590,1
DA:592,1
DA:593,1
DA:594,1
DA:595,1
DA:596,1
DA:599,1
DA:600,1
DA:601,1
DA:602,1
DA:603,1
DA:604,1
DA:605,1
DA:607,1
DA:609,1
DA:610,1
DA:611,1
DA:612,1
DA:613,1
DA:614,1
DA:615,1
DA:616,1
DA:617,1
DA:618,1
DA:619,1
DA:624,1
DA:625,1
DA:626,1
DA:628,1
DA:629,1
DA:630,1
DA:631,1
DA:633,1
DA:634,1
DA:635,1
DA:636,1
DA:638,1
DA:639,1
DA:642,1
DA:643,1
DA:644,1
DA:646,1
DA:647,1
DA:648,1
DA:649,1
DA:651,1
DA:652,1
DA:653,1
DA:654,1
DA:656,1
DA:657,1
DA:658,1
DA:659,1
DA:660,1
DA:663,1
DA:664,1
DA:665,1
DA:667,1
DA:668,1
DA:671,1
DA:672,1
DA:673,1
DA:674,1
DA:677,1
DA:678,1
DA:679,1
DA:680,1
DA:682,1
DA:683,1
DA:684,1
DA:685,1
DA:686,1
DA:706,1
DA:707,1
DA:708,1
DA:709,1
DA:710,1
DA:711,1
DA:713,1
DA:714,1
DA:715,1
DA:716,1
DA:718,1
DA:719,1
DA:722,2
DA:723,1
DA:726,3
DA:727,1
DA:728,1
DA:729,1
DA:730,2
DA:735,4
DA:736,1
DA:737,1
DA:738,1
DA:739,1
DA:740,1
DA:741,1
DA:742,1
DA:745,1
DA:746,1
DA:747,1
DA:748,1
DA:749,1
DA:750,1
DA:753,1
DA:754,1
DA:755,1
DA:756,1
DA:758,1
DA:759,1
DA:760,1
DA:761,1
DA:762,1
DA:763,1
DA:764,1
DA:772,1
DA:773,1
DA:774,1
DA:775,1
DA:776,1
DA:779,1
DA:780,1
DA:781,1
DA:782,1
DA:785,1
DA:787,1
DA:788,1
DA:789,1
DA:790,1
DA:792,1
DA:793,1
DA:794,1
DA:799,1
DA:800,1
DA:801,1
DA:802,1
DA:803,1
DA:806,1
DA:807,1
DA:808,1
DA:809,1
DA:812,1
DA:814,1
DA:815,1
DA:816,1
DA:817,1
DA:819,1
DA:820,1
DA:821,1
DA:826,1
DA:827,1
DA:828,1
DA:829,1
DA:830,1
DA:831,1
DA:832,1
DA:834,1
DA:836,1
DA:837,1
DA:838,1
DA:839,1
DA:841,1
DA:842,1
DA:843,1
DA:848,1
DA:849,1
DA:850,1
DA:851,1
DA:852,1
DA:853,1
DA:854,1
DA:856,1
DA:858,1
DA:859,1
DA:860,1
DA:861,1
DA:863,1
DA:865,1
DA:866,1
DA:871,1
DA:872,1
DA:873,1
DA:874,1
DA:875,1
DA:876,1
DA:877,1
DA:879,1
DA:881,1
DA:882,1
DA:883,1
DA:884,1
DA:886,1
DA:887,1
DA:888,1
DA:893,1
DA:894,1
DA:895,1
DA:896,1
DA:897,1
DA:898,1
DA:899,1
DA:902,1
DA:904,1
DA:905,1
DA:906,1
DA:907,1
DA:909,1
DA:910,1
DA:911,1
DA:912,1
DA:913,1
DA:914,1
DA:915,1
DA:920,1
DA:921,1
DA:922,1
DA:923,1
DA:924,1
DA:927,1
DA:928,1
DA:929,1
DA:930,1
DA:933,1
DA:935,1
DA:936,1
DA:937,1
DA:938,1
DA:940,1
DA:941,1
DA:942,1
DA:947,1
DA:948,1
DA:949,1
DA:950,1
DA:951,1
DA:952,1
DA:953,1
DA:955,1
DA:957,1
DA:958,1
DA:959,1
DA:960,1
DA:963,1
DA:964,1
DA:965,1
DA:970,1
DA:971,1
DA:972,1
DA:973,1
DA:974,1
DA:977,1
DA:978,1
DA:979,1
DA:980,1
DA:983,1
DA:985,1
DA:986,1
DA:987,1
DA:988,1
DA:991,1
DA:992,1
DA:993,1
BRF:0
BRH:0
LF:549
LH:469
end_of_record
SF:/home/irahardianto/works/projects/pathfinder/crates/pathfinder-treesitter/src/vue_zones.rs
FN:77,_RNvNtCs8udefrGgaFn_21pathfinder_treesitter9vue_zones13byte_to_point
FN:148,_RNvNtCs8udefrGgaFn_21pathfinder_treesitter9vue_zones14scan_vue_zones
FN:173,_RNvNtCs8udefrGgaFn_21pathfinder_treesitter9vue_zones19parse_vue_multizone
FN:221,_RNvNtCs8udefrGgaFn_21pathfinder_treesitter9vue_zones23parse_zone_with_grammar
FN:93,_RNvNtCs8udefrGgaFn_21pathfinder_treesitter9vue_zones9find_zone
FN:81,_RNCNvNtCs8udefrGgaFn_21pathfinder_treesitter9vue_zones13byte_to_point0B5_
FN:85,_RNCNvNtCs8udefrGgaFn_21pathfinder_treesitter9vue_zones13byte_to_points0_0B5_
FN:84,_RNCNvNtCs8udefrGgaFn_21pathfinder_treesitter9vue_zones13byte_to_points_0B5_
FN:245,_RNCNvNtCs8udefrGgaFn_21pathfinder_treesitter9vue_zones23parse_zone_with_grammar0B5_
FN:451,_RNvNtNtCsc3IEwSMbWof_21pathfinder_treesitter9vue_zones5testss_27test_byte_to_point_mid_line
FN:443,_RNvNtNtCsc3IEwSMbWof_21pathfinder_treesitter9vue_zones5testss_30test_byte_to_point_second_line
FN:436,_RNvNtNtCsc3IEwSMbWof_21pathfinder_treesitter9vue_zones5testss_32test_byte_to_point_start_of_file
FN:367,_RNvNtNtCsc3IEwSMbWof_21pathfinder_treesitter9vue_zones5testss_32test_scan_vue_zones_empty_source
FN:334,_RNvNtNtCsc3IEwSMbWof_21pathfinder_treesitter9vue_zones5testss_33test_scan_vue_zones_template_only
FN:299,_RNvNtNtCsc3IEwSMbWof_21pathfinder_treesitter9vue_zones5testss_37test_scan_vue_zones_all_three_present
FN:397,_RNvNtNtCsc3IEwSMbWof_21pathfinder_treesitter9vue_zones5testss_40test_parse_vue_multizone_no_script_block
FN:406,_RNvNtNtCsc3IEwSMbWof_21pathfinder_treesitter9vue_zones5testss_41test_parse_vue_multizone_source_preserved
FN:307,_RNvNtNtCsc3IEwSMbWof_21pathfinder_treesitter9vue_zones5testss_41test_scan_vue_zones_content_bytes_correct
FN:377,_RNvNtNtCsc3IEwSMbWof_21pathfinder_treesitter9vue_zones5testss_43test_parse_vue_multizone_produces_all_trees
FN:343,_RNvNtNtCsc3IEwSMbWof_21pathfinder_treesitter9vue_zones5testss_46test_scan_vue_zones_does_not_match_partial_tag
FN:386,_RNvNtNtCsc3IEwSMbWof_21pathfinder_treesitter9vue_zones5testss_47test_parse_vue_multizone_script_root_is_program
FN:355,_RNvNtNtCsc3IEwSMbWof_21pathfinder_treesitter9vue_zones5testss_50test_scan_vue_zones_byte_to_point_newline_accuracy
FN:416,_RNvNtNtCsc3IEwSMbWof_21pathfinder_treesitter9vue_zones5testss_62test_parse_vue_multizone_script_node_has_correct_global_offset
FN:81,_RNCNvNtCsc3IEwSMbWof_21pathfinder_treesitter9vue_zones13byte_to_point0B5_
FN:85,_RNCNvNtCsc3IEwSMbWof_21pathfinder_treesitter9vue_zones13byte_to_points0_0B5_
FN:84,_RNCNvNtCsc3IEwSMbWof_21pathfinder_treesitter9vue_zones13byte_to_points_0B5_
FN:245,_RNCNvNtCsc3IEwSMbWof_21pathfinder_treesitter9vue_zones23parse_zone_with_grammar0B5_
FN:77,_RNvNtCsc3IEwSMbWof_21pathfinder_treesitter9vue_zones13byte_to_point
FN:148,_RNvNtCsc3IEwSMbWof_21pathfinder_treesitter9vue_zones14scan_vue_zones
FN:173,_RNvNtCsc3IEwSMbWof_21pathfinder_treesitter9vue_zones19parse_vue_multizone
FN:221,_RNvNtCsc3IEwSMbWof_21pathfinder_treesitter9vue_zones23parse_zone_with_grammar
FN:93,_RNvNtCsc3IEwSMbWof_21pathfinder_treesitter9vue_zones9find_zone
FNDA:0,_RNvNtCs8udefrGgaFn_21pathfinder_treesitter9vue_zones13byte_to_point
FNDA:0,_RNvNtCs8udefrGgaFn_21pathfinder_treesitter9vue_zones14scan_vue_zones
FNDA:0,_RNvNtCs8udefrGgaFn_21pathfinder_treesitter9vue_zones19parse_vue_multizone
FNDA:0,_RNvNtCs8udefrGgaFn_21pathfinder_treesitter9vue_zones23parse_zone_with_grammar
FNDA:0,_RNvNtCs8udefrGgaFn_21pathfinder_treesitter9vue_zones9find_zone
FNDA:0,_RNCNvNtCs8udefrGgaFn_21pathfinder_treesitter9vue_zones13byte_to_point0B5_
FNDA:0,_RNCNvNtCs8udefrGgaFn_21pathfinder_treesitter9vue_zones13byte_to_points0_0B5_
FNDA:0,_RNCNvNtCs8udefrGgaFn_21pathfinder_treesitter9vue_zones13byte_to_points_0B5_
FNDA:0,_RNCNvNtCs8udefrGgaFn_21pathfinder_treesitter9vue_zones23parse_zone_with_grammar0B5_
FNDA:1,_RNvNtNtCsc3IEwSMbWof_21pathfinder_treesitter9vue_zones5testss_27test_byte_to_point_mid_line
FNDA:1,_RNvNtNtCsc3IEwSMbWof_21pathfinder_treesitter9vue_zones5testss_30test_byte_to_point_second_line
FNDA:1,_RNvNtNtCsc3IEwSMbWof_21pathfinder_treesitter9vue_zones5testss_32test_byte_to_point_start_of_file
FNDA:1,_RNvNtNtCsc3IEwSMbWof_21pathfinder_treesitter9vue_zones5testss_32test_scan_vue_zones_empty_source
FNDA:1,_RNvNtNtCsc3IEwSMbWof_21pathfinder_treesitter9vue_zones5testss_33test_scan_vue_zones_template_only
FNDA:1,_RNvNtNtCsc3IEwSMbWof_21pathfinder_treesitter9vue_zones5testss_37test_scan_vue_zones_all_three_present
FNDA:1,_RNvNtNtCsc3IEwSMbWof_21pathfinder_treesitter9vue_zones5testss_40test_parse_vue_multizone_no_script_block
FNDA:1,_RNvNtNtCsc3IEwSMbWof_21pathfinder_treesitter9vue_zones5testss_41test_parse_vue_multizone_source_preserved
FNDA:1,_RNvNtNtCsc3IEwSMbWof_21pathfinder_treesitter9vue_zones5testss_41test_scan_vue_zones_content_bytes_correct
FNDA:1,_RNvNtNtCsc3IEwSMbWof_21pathfinder_treesitter9vue_zones5testss_43test_parse_vue_multizone_produces_all_trees
FNDA:1,_RNvNtNtCsc3IEwSMbWof_21pathfinder_treesitter9vue_zones5testss_46test_scan_vue_zones_does_not_match_partial_tag
FNDA:1,_RNvNtNtCsc3IEwSMbWof_21pathfinder_treesitter9vue_zones5testss_47test_parse_vue_multizone_script_root_is_program
FNDA:1,_RNvNtNtCsc3IEwSMbWof_21pathfinder_treesitter9vue_zones5testss_50test_scan_vue_zones_byte_to_point_newline_accuracy
FNDA:1,_RNvNtNtCsc3IEwSMbWof_21pathfinder_treesitter9vue_zones5testss_62test_parse_vue_multizone_script_node_has_correct_global_offset
FNDA:19146,_RNCNvNtCsc3IEwSMbWof_21pathfinder_treesitter9vue_zones13byte_to_point0B5_
FNDA:93,_RNCNvNtCsc3IEwSMbWof_21pathfinder_treesitter9vue_zones13byte_to_points0_0B5_
FNDA:1179,_RNCNvNtCsc3IEwSMbWof_21pathfinder_treesitter9vue_zones13byte_to_points_0B5_
FNDA:52,_RNCNvNtCsc3IEwSMbWof_21pathfinder_treesitter9vue_zones23parse_zone_with_grammar0B5_
FNDA:125,_RNvNtCsc3IEwSMbWof_21pathfinder_treesitter9vue_zones13byte_to_point
FNDA:26,_RNvNtCsc3IEwSMbWof_21pathfinder_treesitter9vue_zones14scan_vue_zones
FNDA:20,_RNvNtCsc3IEwSMbWof_21pathfinder_treesitter9vue_zones19parse_vue_multizone
FNDA:60,_RNvNtCsc3IEwSMbWof_21pathfinder_treesitter9vue_zones23parse_zone_with_grammar
FNDA:78,_RNvNtCsc3IEwSMbWof_21pathfinder_treesitter9vue_zones9find_zone
FNF:23
FNH:23
DA:77,125
DA:78,125
DA:79,125
DA:81,19146
DA:82,125
DA:83,125
DA:84,1179
DA:85,125
DA:86,125
DA:87,125
DA:93,78
DA:94,78
DA:95,78
DA:97,78
DA:98,78
DA:100,78
DA:103,79
DA:104,62
DA:108,62
DA:109,62
DA:110,62
DA:111,1
DA:112,1
DA:113,61
DA:116,61
DA:117,0
DA:118,0
DA:119,61
DA:122,61
DA:123,61
DA:126,61
DA:127,61
DA:129,61
DA:130,61
DA:131,61
DA:132,61
DA:133,61
DA:134,61
DA:136,78
DA:148,26
DA:149,26
DA:150,26
DA:151,26
DA:152,26
DA:153,26
DA:154,26
DA:173,20
DA:174,20
DA:175,20
DA:178,20
DA:179,20
DA:180,20
DA:181,20
DA:182,20
DA:184,20
DA:185,0
DA:188,20
DA:189,20
DA:190,20
DA:191,20
DA:192,20
DA:194,20
DA:195,0
DA:198,20
DA:199,20
DA:200,20
DA:201,20
DA:202,20
DA:204,20
DA:205,0
DA:207,20
DA:208,20
DA:209,20
DA:210,20
DA:211,20
DA:212,20
DA:213,20
DA:214,20
DA:215,20
DA:221,60
DA:222,60
DA:223,60
DA:224,60
DA:225,60
DA:226,60
DA:227,60
DA:228,60
DA:229,60
DA:230,8
DA:233,52
DA:234,52
DA:235,52
DA:236,52
DA:237,52
DA:238,52
DA:240,52
DA:242,52
DA:243,52
DA:244,52
DA:245,52
DA:247,52
DA:248,0
DA:249,0
DA:250,0
DA:251,0
DA:252,0
DA:253,0
DA:254,0
DA:255,0
DA:256,52
DA:258,52
DA:259,52
DA:260,0
DA:261,0
DA:262,0
DA:263,0
DA:264,52
DA:265,52
DA:266,0
DA:267,52
DA:268,52
DA:269,60
DA:299,1
DA:300,1
DA:301,1
DA:302,1
DA:303,1
DA:304,1
DA:307,1
DA:308,1
DA:309,1
DA:311,1
DA:312,1
DA:313,1
DA:314,1
DA:318,1
DA:319,1
DA:320,1
DA:321,1
DA:325,1
DA:326,1
DA:327,1
DA:328,1
DA:331,1
DA:334,1
DA:335,1
DA:336,1
DA:337,1
DA:338,1
DA:339,1
DA:340,1
DA:343,1
DA:345,1
DA:346,1
DA:347,1
DA:348,1
DA:351,1
DA:352,1
DA:355,1
DA:358,1
DA:359,1
DA:360,1
DA:361,1
DA:362,1
DA:363,1
DA:364,1
DA:367,1
DA:368,1
DA:369,1
DA:370,1
DA:371,1
DA:372,1
DA:377,1
DA:378,1
DA:379,1
DA:380,1
DA:381,1
DA:382,1
DA:383,1
DA:386,1
DA:387,1
DA:388,1
DA:389,1
DA:390,1
DA:394,1
DA:397,1
DA:398,1
DA:399,1
DA:400,1
DA:401,1
DA:402,1
DA:403,1
DA:406,1
DA:407,1
DA:408,1
DA:410,1
DA:413,1
DA:416,1
DA:419,1
DA:420,1
DA:421,1
DA:425,1
DA:426,1
DA:427,1
DA:428,1
DA:431,1
DA:436,1
DA:437,1
DA:438,1
DA:439,1
DA:440,1
DA:443,1
DA:445,1
DA:446,1
DA:447,1
DA:448,1
DA:451,1
DA:453,1
DA:454,1
DA:455,1
DA:456,1
BRF:0
BRH:0
LF:225
LH:207
end_of_record
SF:/home/irahardianto/works/projects/pathfinder/crates/pathfinder/src/main.rs
FN:34,_RNvCs7Fw43FPylcK_14pathfinder_mcp3run
FN:84,_RNvCs7Fw43FPylcK_14pathfinder_mcp4main
FN:35,_RNCNCNvCs7Fw43FPylcK_14pathfinder_mcp3run00B5_
FN:58,_RNCNCNvCs7Fw43FPylcK_14pathfinder_mcp3run0s_0B5_
FN:34,_RNCNvCs7Fw43FPylcK_14pathfinder_mcp3run0B3_
FN:84,_RNCNvCs7Fw43FPylcK_14pathfinder_mcp4main0B3_
FN:34,_RNvCsaBz7PZGcJGm_14pathfinder_mcp3run
FN:84,_RNCNvCsaBz7PZGcJGm_14pathfinder_mcp4main0B3_
FN:84,_RNvCsaBz7PZGcJGm_14pathfinder_mcp4main
FN:115,_RNCNvNtCsaBz7PZGcJGm_14pathfinder_mcp5testss_31test_run_invalid_workspace_path0B5_
FN:35,_RNCNCNvCsaBz7PZGcJGm_14pathfinder_mcp3run00B5_
FN:58,_RNCNCNvCsaBz7PZGcJGm_14pathfinder_mcp3run0s_0B5_
FN:34,_RNCNvCsaBz7PZGcJGm_14pathfinder_mcp3run0B3_
FN:103,_RNvNtCsaBz7PZGcJGm_14pathfinder_mcp5testss_29test_cli_parse_lsp_trace_flag
FN:96,_RNvNtCsaBz7PZGcJGm_14pathfinder_mcp5testss_29test_cli_parse_workspace_path
FN:115,_RNvNtCsaBz7PZGcJGm_14pathfinder_mcp5testss_31test_run_invalid_workspace_path
FN:109,_RNvNtCsaBz7PZGcJGm_14pathfinder_mcp5testss_38test_cli_parse_missing_workspace_fails
FNDA:0,_RNvCs7Fw43FPylcK_14pathfinder_mcp3run
FNDA:0,_RNvCs7Fw43FPylcK_14pathfinder_mcp4main
FNDA:0,_RNCNCNvCs7Fw43FPylcK_14pathfinder_mcp3run00B5_
FNDA:0,_RNCNCNvCs7Fw43FPylcK_14pathfinder_mcp3run0s_0B5_
FNDA:0,_RNCNvCs7Fw43FPylcK_14pathfinder_mcp3run0B3_
FNDA:0,_RNCNvCs7Fw43FPylcK_14pathfinder_mcp4main0B3_
FNDA:1,_RNvCsaBz7PZGcJGm_14pathfinder_mcp3run
FNDA:0,_RNCNvCsaBz7PZGcJGm_14pathfinder_mcp4main0B3_
FNDA:0,_RNvCsaBz7PZGcJGm_14pathfinder_mcp4main
FNDA:1,_RNCNvNtCsaBz7PZGcJGm_14pathfinder_mcp5testss_31test_run_invalid_workspace_path0B5_
FNDA:1,_RNCNCNvCsaBz7PZGcJGm_14pathfinder_mcp3run00B5_
FNDA:1,_RNCNCNvCsaBz7PZGcJGm_14pathfinder_mcp3run0s_0B5_
FNDA:1,_RNCNvCsaBz7PZGcJGm_14pathfinder_mcp3run0B3_
FNDA:1,_RNvNtCsaBz7PZGcJGm_14pathfinder_mcp5testss_29test_cli_parse_lsp_trace_flag
FNDA:1,_RNvNtCsaBz7PZGcJGm_14pathfinder_mcp5testss_29test_cli_parse_workspace_path
FNDA:1,_RNvNtCsaBz7PZGcJGm_14pathfinder_mcp5testss_31test_run_invalid_workspace_path
FNDA:1,_RNvNtCsaBz7PZGcJGm_14pathfinder_mcp5testss_38test_cli_parse_missing_workspace_fails
FNF:11
FNH:9
DA:34,1
DA:35,1
DA:36,1
DA:37,0
DA:38,0
DA:39,0
DA:40,1
DA:43,1
DA:44,1
DA:45,1
DA:46,1
DA:47,1
DA:48,1
DA:50,1
DA:51,1
DA:57,1
DA:58,1
DA:61,0
DA:62,0
DA:63,0
DA:66,0
DA:68,0
DA:71,0
DA:72,0
DA:73,0
DA:74,0
DA:77,0
DA:79,0
DA:80,0
DA:81,1
DA:84,0
DA:85,0
DA:86,0
DA:87,0
DA:96,1
DA:97,1
DA:98,1
DA:99,1
DA:100,1
DA:103,1
DA:104,1
DA:105,1
DA:106,1
DA:109,1
DA:110,1
DA:111,1
DA:112,1
DA:115,1
DA:117,1
DA:118,1
DA:119,1
DA:120,1
DA:121,1
DA:124,1
DA:125,1
DA:126,1
DA:127,1
DA:128,1
DA:129,1
BRF:0
BRH:0
LF:69
LH:47
end_of_record
SF:/home/irahardianto/works/projects/pathfinder/crates/pathfinder/src/server.rs
FN:64,_RNCNvMNtCsb2XMseC3SKs_14pathfinder_lib6serverNtB4_16PathfinderServer3new0B6_
FN:64,_RNvMNtCsb2XMseC3SKs_14pathfinder_lib6serverNtB2_16PathfinderServer3new
FN:1781,_RNCNCNvNtNtCsb2XMseC3SKs_14pathfinder_lib6server5testss_24test_read_file_not_found00B9_
FN:1782,_RNCNCNvNtNtCsb2XMseC3SKs_14pathfinder_lib6server5testss_24test_read_file_not_found0s_0B9_
FN:961,_RNCNCNvNtNtCsb2XMseC3SKs_14pathfinder_lib6server5testss_25test_read_file_pagination00B9_
FN:1019,_RNCNCNvNtNtCsb2XMseC3SKs_14pathfinder_lib6server5testss_25test_read_file_pagination0s0_0B9_
FN:1018,_RNCNCNvNtNtCsb2XMseC3SKs_14pathfinder_lib6server5testss_25test_read_file_pagination0s_0B9_
FN:1747,_RNCNCNvNtNtCsb2XMseC3SKs_14pathfinder_lib6server5testss_26test_delete_file_not_found00B9_
FN:1748,_RNCNCNvNtNtCsb2XMseC3SKs_14pathfinder_lib6server5testss_26test_delete_file_not_found0s_0B9_
FN:1183,_RNCNCNvNtNtCsb2XMseC3SKs_14pathfinder_lib6server5testss_32test_write_file_full_replacement00B9_
FN:1184,_RNCNCNvNtNtCsb2XMseC3SKs_14pathfinder_lib6server5testss_32test_write_file_full_replacement0s_0B9_
FN:1521,_RNCNCNvNtNtCsb2XMseC3SKs_14pathfinder_lib6server5testss_34test_search_codebase_group_by_file00B9_
FN:1534,_RNCNCNvNtNtCsb2XMseC3SKs_14pathfinder_lib6server5testss_34test_search_codebase_group_by_file0s_0B9_
FN:1248,_RNCNCNvNtNtCsb2XMseC3SKs_14pathfinder_lib6server5testss_34test_write_file_search_and_replace00B9_
FN:1275,_RNCNCNvNtNtCsb2XMseC3SKs_14pathfinder_lib6server5testss_34test_write_file_search_and_replace0s0_0B9_
FN:1276,_RNCNCNvNtNtCsb2XMseC3SKs_14pathfinder_lib6server5testss_34test_write_file_search_and_replace0s1_0B9_
FN:1249,_RNCNCNvNtNtCsb2XMseC3SKs_14pathfinder_lib6server5testss_34test_write_file_search_and_replace0s_0B9_
FN:898,_RNCNCNvNtNtCsb2XMseC3SKs_14pathfinder_lib6server5testss_40test_delete_file_success_and_occ_failure00B9_
FN:918,_RNCNCNvNtNtCsb2XMseC3SKs_14pathfinder_lib6server5testss_40test_delete_file_success_and_occ_failure0s0_0B9_
FN:919,_RNCNCNvNtNtCsb2XMseC3SKs_14pathfinder_lib6server5testss_40test_delete_file_success_and_occ_failure0s1_0B9_
FN:937,_RNCNCNvNtNtCsb2XMseC3SKs_14pathfinder_lib6server5testss_40test_delete_file_success_and_occ_failure0s2_0B9_
FN:938,_RNCNCNvNtNtCsb2XMseC3SKs_14pathfinder_lib6server5testss_40test_delete_file_success_and_occ_failure0s3_0B9_
FN:899,_RNCNCNvNtNtCsb2XMseC3SKs_14pathfinder_lib6server5testss_40test_delete_file_success_and_occ_failure0s_0B9_
FN:548,_RNCNCNvNtNtCsb2XMseC3SKs_14pathfinder_lib6server5testss_43test_create_file_success_and_already_exists00B9_
FN:567,_RNCNCNvNtNtCsb2XMseC3SKs_14pathfinder_lib6server5testss_43test_create_file_success_and_already_exists0s0_0B9_
FN:568,_RNCNCNvNtNtCsb2XMseC3SKs_14pathfinder_lib6server5testss_43test_create_file_success_and_already_exists0s1_0B9_
FN:549,_RNCNCNvNtNtCsb2XMseC3SKs_14pathfinder_lib6server5testss_43test_create_file_success_and_already_exists0s_0B9_
FN:1350,_RNCNCNvNtNtCsb2XMseC3SKs_14pathfinder_lib6server5testss_51test_search_codebase_known_files_suppresses_context00B9_
FN:1374,_RNCNCNvNtNtCsb2XMseC3SKs_14pathfinder_lib6server5testss_51test_search_codebase_known_files_suppresses_context0s_0B9_
FN:1754,_RNCNvNtNtCsb2XMseC3SKs_14pathfinder_lib6server5testss_24test_read_file_not_found0B7_
FN:371,_RNCNvNtNtCsb2XMseC3SKs_14pathfinder_lib6server5testss_25test_get_repo_map_success0B7_
FN:946,_RNCNvNtNtCsb2XMseC3SKs_14pathfinder_lib6server5testss_25test_read_file_pagination0B7_
FN:1721,_RNCNvNtNtCsb2XMseC3SKs_14pathfinder_lib6server5testss_26test_delete_file_not_found0B7_
FN:477,_RNCNvNtNtCsb2XMseC3SKs_14pathfinder_lib6server5testss_31test_get_repo_map_access_denied0B7_
FN:1129,_RNCNvNtNtCsb2XMseC3SKs_14pathfinder_lib6server5testss_32test_write_file_full_replacement0B7_
FN:1444,_RNCNvNtNtCsb2XMseC3SKs_14pathfinder_lib6server5testss_34test_search_codebase_group_by_file0B7_
FN:1190,_RNCNvNtNtCsb2XMseC3SKs_14pathfinder_lib6server5testss_34test_write_file_search_and_replace0B7_
FN:1608,_RNCNvNtNtCsb2XMseC3SKs_14pathfinder_lib6server5testss_35test_with_engines_uses_no_op_lawyer0B7_
FN:854,_RNCNvNtNtCsb2XMseC3SKs_14pathfinder_lib6server5testss_40test_delete_file_success_and_occ_failure0B7_
FN:645,_RNCNvNtNtCsb2XMseC3SKs_14pathfinder_lib6server5testss_40test_search_codebase_handles_scout_error0B7_
FN:429,_RNCNvNtNtCsb2XMseC3SKs_14pathfinder_lib6server5testss_41test_get_repo_map_visibility_not_degraded0B7_
FN:1828,_RNCNvNtNtCsb2XMseC3SKs_14pathfinder_lib6server5testss_41test_write_file_invalid_params_both_modes0B7_
FN:504,_RNCNvNtNtCsb2XMseC3SKs_14pathfinder_lib6server5testss_43test_create_file_success_and_already_exists0B7_
FN:1861,_RNCNvNtNtCsb2XMseC3SKs_14pathfinder_lib6server5testss_43test_write_file_invalid_params_neither_mode0B7_
FN:1082,_RNCNvNtNtCsb2XMseC3SKs_14pathfinder_lib6server5testss_44test_read_symbol_scope_handles_surgeon_error0B7_
FN:1788,_RNCNvNtNtCsb2XMseC3SKs_14pathfinder_lib6server5testss_45test_write_file_broadcasts_watched_file_event0B7_
FN:1651,_RNCNvNtNtCsb2XMseC3SKs_14pathfinder_lib6server5testss_46test_create_file_broadcasts_watched_file_event0B7_
FN:1684,_RNCNvNtNtCsb2XMseC3SKs_14pathfinder_lib6server5testss_46test_delete_file_broadcasts_watched_file_event0B7_
FN:1587,_RNCNvNtNtCsb2XMseC3SKs_14pathfinder_lib6server5testss_50test_with_all_engines_constructs_functional_server0B7_
FN:1387,_RNCNvNtNtCsb2XMseC3SKs_14pathfinder_lib6server5testss_51test_search_codebase_known_files_path_normalisation0B7_
FN:1286,_RNCNvNtNtCsb2XMseC3SKs_14pathfinder_lib6server5testss_51test_search_codebase_known_files_suppresses_context0B7_
FN:1545,_RNCNvNtNtCsb2XMseC3SKs_14pathfinder_lib6server5testss_52test_search_codebase_exclude_glob_forwarded_to_scout0B7_
FN:804,_RNCNvNtNtCsb2XMseC3SKs_14pathfinder_lib6server5testss_55test_search_codebase_filter_mode_all_returns_everything0B7_
FN:577,_RNCNvNtNtCsb2XMseC3SKs_14pathfinder_lib6server5testss_56test_search_codebase_routes_to_scout_and_handles_success0B7_
FN:688,_RNCNvNtNtCsb2XMseC3SKs_14pathfinder_lib6server5testss_57test_search_codebase_filter_mode_code_only_drops_comments0B7_
FN:1027,_RNCNvNtNtCsb2XMseC3SKs_14pathfinder_lib6server5testss_60test_read_symbol_scope_routes_to_surgeon_and_handles_success0B7_
FN:749,_RNCNvNtNtCsb2XMseC3SKs_14pathfinder_lib6server5testss_61test_search_codebase_filter_mode_comments_only_keeps_comments0B7_
FN:342,_RNCNvMs0_NtCsb2XMseC3SKs_14pathfinder_lib6serverNtB7_16PathfinderServer10write_file0B9_
FN:309,_RNCNvMs0_NtCsb2XMseC3SKs_14pathfinder_lib6serverNtB7_16PathfinderServer11create_file0B9_
FN:320,_RNCNvMs0_NtCsb2XMseC3SKs_14pathfinder_lib6serverNtB7_16PathfinderServer11delete_file0B9_
FN:166,_RNCNvMs0_NtCsb2XMseC3SKs_14pathfinder_lib6serverNtB7_16PathfinderServer12get_repo_map0B9_
FN:276,_RNCNvMs0_NtCsb2XMseC3SKs_14pathfinder_lib6serverNtB7_16PathfinderServer12insert_after0B9_
FN:243,_RNCNvMs0_NtCsb2XMseC3SKs_14pathfinder_lib6serverNtB7_16PathfinderServer12replace_body0B9_
FN:254,_RNCNvMs0_NtCsb2XMseC3SKs_14pathfinder_lib6serverNtB7_16PathfinderServer12replace_full0B9_
FN:287,_RNCNvMs0_NtCsb2XMseC3SKs_14pathfinder_lib6serverNtB7_16PathfinderServer13delete_symbol0B9_
FN:265,_RNCNvMs0_NtCsb2XMseC3SKs_14pathfinder_lib6serverNtB7_16PathfinderServer13insert_before0B9_
FN:199,_RNCNvMs0_NtCsb2XMseC3SKs_14pathfinder_lib6serverNtB7_16PathfinderServer13replace_batch0B9_
FN:298,_RNCNvMs0_NtCsb2XMseC3SKs_14pathfinder_lib6serverNtB7_16PathfinderServer13validate_only0B9_
FN:232,_RNCNvMs0_NtCsb2XMseC3SKs_14pathfinder_lib6serverNtB7_16PathfinderServer14analyze_impact0B9_
FN:221,_RNCNvMs0_NtCsb2XMseC3SKs_14pathfinder_lib6serverNtB7_16PathfinderServer14get_definition0B9_
FN:154,_RNCNvMs0_NtCsb2XMseC3SKs_14pathfinder_lib6serverNtB7_16PathfinderServer15search_codebase0B9_
FN:188,_RNCNvMs0_NtCsb2XMseC3SKs_14pathfinder_lib6serverNtB7_16PathfinderServer16read_source_file0B9_
FN:177,_RNCNvMs0_NtCsb2XMseC3SKs_14pathfinder_lib6serverNtB7_16PathfinderServer17read_symbol_scope0B9_
FN:210,_RNCNvMs0_NtCsb2XMseC3SKs_14pathfinder_lib6serverNtB7_16PathfinderServer22read_with_deep_context0B9_
FN:331,_RNCNvMs0_NtCsb2XMseC3SKs_14pathfinder_lib6serverNtB7_16PathfinderServer9read_file0B9_
FN:104,_RNvMNtCsb2XMseC3SKs_14pathfinder_lib6serverNtB2_16PathfinderServer12with_engines
FN:123,_RNvMNtCsb2XMseC3SKs_14pathfinder_lib6serverNtB2_16PathfinderServer16with_all_engines
FN:351,_RNvXs1_NtCsb2XMseC3SKs_14pathfinder_lib6serverNtB5_16PathfinderServerNtNtNtCs6FjSQE8Y285_4rmcp7handler6server13ServerHandler8get_info
FN:673,_RNvNtNtCsb2XMseC3SKs_14pathfinder_lib6server5tests17make_search_match
FN:1754,_RNvNtNtCsb2XMseC3SKs_14pathfinder_lib6server5testss_24test_read_file_not_found
FN:371,_RNvNtNtCsb2XMseC3SKs_14pathfinder_lib6server5testss_25test_get_repo_map_success
FN:946,_RNvNtNtCsb2XMseC3SKs_14pathfinder_lib6server5testss_25test_read_file_pagination
FN:1721,_RNvNtNtCsb2XMseC3SKs_14pathfinder_lib6server5testss_26test_delete_file_not_found
FN:477,_RNvNtNtCsb2XMseC3SKs_14pathfinder_lib6server5testss_31test_get_repo_map_access_denied
FN:1129,_RNvNtNtCsb2XMseC3SKs_14pathfinder_lib6server5testss_32test_write_file_full_replacement
FN:1444,_RNvNtNtCsb2XMseC3SKs_14pathfinder_lib6server5testss_34test_search_codebase_group_by_file
FN:1190,_RNvNtNtCsb2XMseC3SKs_14pathfinder_lib6server5testss_34test_write_file_search_and_replace
FN:1608,_RNvNtNtCsb2XMseC3SKs_14pathfinder_lib6server5testss_35test_with_engines_uses_no_op_lawyer
FN:854,_RNvNtNtCsb2XMseC3SKs_14pathfinder_lib6server5testss_40test_delete_file_success_and_occ_failure
FN:645,_RNvNtNtCsb2XMseC3SKs_14pathfinder_lib6server5testss_40test_search_codebase_handles_scout_error
FN:429,_RNvNtNtCsb2XMseC3SKs_14pathfinder_lib6server5testss_41test_get_repo_map_visibility_not_degraded
FN:1828,_RNvNtNtCsb2XMseC3SKs_14pathfinder_lib6server5testss_41test_write_file_invalid_params_both_modes
FN:504,_RNvNtNtCsb2XMseC3SKs_14pathfinder_lib6server5testss_43test_create_file_success_and_already_exists
FN:1861,_RNvNtNtCsb2XMseC3SKs_14pathfinder_lib6server5testss_43test_write_file_invalid_params_neither_mode
FN:1082,_RNvNtNtCsb2XMseC3SKs_14pathfinder_lib6server5testss_44test_read_symbol_scope_handles_surgeon_error
FN:1788,_RNvNtNtCsb2XMseC3SKs_14pathfinder_lib6server5testss_45test_write_file_broadcasts_watched_file_event
FN:1651,_RNvNtNtCsb2XMseC3SKs_14pathfinder_lib6server5testss_46test_create_file_broadcasts_watched_file_event
FN:1684,_RNvNtNtCsb2XMseC3SKs_14pathfinder_lib6server5testss_46test_delete_file_broadcasts_watched_file_event
FN:1587,_RNvNtNtCsb2XMseC3SKs_14pathfinder_lib6server5testss_50test_with_all_engines_constructs_functional_server
FN:1387,_RNvNtNtCsb2XMseC3SKs_14pathfinder_lib6server5testss_51test_search_codebase_known_files_path_normalisation
FN:1286,_RNvNtNtCsb2XMseC3SKs_14pathfinder_lib6server5testss_51test_search_codebase_known_files_suppresses_context
FN:1545,_RNvNtNtCsb2XMseC3SKs_14pathfinder_lib6server5testss_52test_search_codebase_exclude_glob_forwarded_to_scout
FN:804,_RNvNtNtCsb2XMseC3SKs_14pathfinder_lib6server5testss_55test_search_codebase_filter_mode_all_returns_everything
FN:577,_RNvNtNtCsb2XMseC3SKs_14pathfinder_lib6server5testss_56test_search_codebase_routes_to_scout_and_handles_success
FN:688,_RNvNtNtCsb2XMseC3SKs_14pathfinder_lib6server5testss_57test_search_codebase_filter_mode_code_only_drops_comments
FN:1027,_RNvNtNtCsb2XMseC3SKs_14pathfinder_lib6server5testss_60test_read_symbol_scope_routes_to_surgeon_and_handles_success
FN:749,_RNvNtNtCsb2XMseC3SKs_14pathfinder_lib6server5testss_61test_search_codebase_filter_mode_comments_only_keeps_comments
FN:104,_RNvMNtCs7Fw43FPylcK_14pathfinder_mcp6serverNtB2_16PathfinderServer12with_engines
FN:123,_RNvMNtCs7Fw43FPylcK_14pathfinder_mcp6serverNtB2_16PathfinderServer16with_all_engines
FN:64,_RNvMNtCs7Fw43FPylcK_14pathfinder_mcp6serverNtB2_16PathfinderServer3new
FN:351,_RNvXs1_NtCs7Fw43FPylcK_14pathfinder_mcp6serverNtB5_16PathfinderServerNtNtNtCs6FjSQE8Y285_4rmcp7handler6server13ServerHandler8get_info
FN:64,_RNCNvMNtCs7Fw43FPylcK_14pathfinder_mcp6serverNtB4_16PathfinderServer3new0B6_
FN:342,_RNCNvMs0_NtCs7Fw43FPylcK_14pathfinder_mcp6serverNtB7_16PathfinderServer10write_file0B9_
FN:309,_RNCNvMs0_NtCs7Fw43FPylcK_14pathfinder_mcp6serverNtB7_16PathfinderServer11create_file0B9_
FN:320,_RNCNvMs0_NtCs7Fw43FPylcK_14pathfinder_mcp6serverNtB7_16PathfinderServer11delete_file0B9_
FN:166,_RNCNvMs0_NtCs7Fw43FPylcK_14pathfinder_mcp6serverNtB7_16PathfinderServer12get_repo_map0B9_
FN:276,_RNCNvMs0_NtCs7Fw43FPylcK_14pathfinder_mcp6serverNtB7_16PathfinderServer12insert_after0B9_
FN:243,_RNCNvMs0_NtCs7Fw43FPylcK_14pathfinder_mcp6serverNtB7_16PathfinderServer12replace_body0B9_
FN:254,_RNCNvMs0_NtCs7Fw43FPylcK_14pathfinder_mcp6serverNtB7_16PathfinderServer12replace_full0B9_
FN:287,_RNCNvMs0_NtCs7Fw43FPylcK_14pathfinder_mcp6serverNtB7_16PathfinderServer13delete_symbol0B9_
FN:265,_RNCNvMs0_NtCs7Fw43FPylcK_14pathfinder_mcp6serverNtB7_16PathfinderServer13insert_before0B9_
FN:199,_RNCNvMs0_NtCs7Fw43FPylcK_14pathfinder_mcp6serverNtB7_16PathfinderServer13replace_batch0B9_
FN:298,_RNCNvMs0_NtCs7Fw43FPylcK_14pathfinder_mcp6serverNtB7_16PathfinderServer13validate_only0B9_
FN:232,_RNCNvMs0_NtCs7Fw43FPylcK_14pathfinder_mcp6serverNtB7_16PathfinderServer14analyze_impact0B9_
FN:221,_RNCNvMs0_NtCs7Fw43FPylcK_14pathfinder_mcp6serverNtB7_16PathfinderServer14get_definition0B9_
FN:154,_RNCNvMs0_NtCs7Fw43FPylcK_14pathfinder_mcp6serverNtB7_16PathfinderServer15search_codebase0B9_
FN:188,_RNCNvMs0_NtCs7Fw43FPylcK_14pathfinder_mcp6serverNtB7_16PathfinderServer16read_source_file0B9_
FN:177,_RNCNvMs0_NtCs7Fw43FPylcK_14pathfinder_mcp6serverNtB7_16PathfinderServer17read_symbol_scope0B9_
FN:210,_RNCNvMs0_NtCs7Fw43FPylcK_14pathfinder_mcp6serverNtB7_16PathfinderServer22read_with_deep_context0B9_
FN:331,_RNCNvMs0_NtCs7Fw43FPylcK_14pathfinder_mcp6serverNtB7_16PathfinderServer9read_file0B9_
FN:64,_RNCNvMNtCsaBz7PZGcJGm_14pathfinder_mcp6serverNtB4_16PathfinderServer3new0B6_
FN:342,_RNCNvMs0_NtCsaBz7PZGcJGm_14pathfinder_mcp6serverNtB7_16PathfinderServer10write_file0B9_
FN:309,_RNCNvMs0_NtCsaBz7PZGcJGm_14pathfinder_mcp6serverNtB7_16PathfinderServer11create_file0B9_
FN:320,_RNCNvMs0_NtCsaBz7PZGcJGm_14pathfinder_mcp6serverNtB7_16PathfinderServer11delete_file0B9_
FN:166,_RNCNvMs0_NtCsaBz7PZGcJGm_14pathfinder_mcp6serverNtB7_16PathfinderServer12get_repo_map0B9_
FN:276,_RNCNvMs0_NtCsaBz7PZGcJGm_14pathfinder_mcp6serverNtB7_16PathfinderServer12insert_after0B9_
FN:243,_RNCNvMs0_NtCsaBz7PZGcJGm_14pathfinder_mcp6serverNtB7_16PathfinderServer12replace_body0B9_
FN:254,_RNCNvMs0_NtCsaBz7PZGcJGm_14pathfinder_mcp6serverNtB7_16PathfinderServer12replace_full0B9_
FN:287,_RNCNvMs0_NtCsaBz7PZGcJGm_14pathfinder_mcp6serverNtB7_16PathfinderServer13delete_symbol0B9_
FN:265,_RNCNvMs0_NtCsaBz7PZGcJGm_14pathfinder_mcp6serverNtB7_16PathfinderServer13insert_before0B9_
FN:199,_RNCNvMs0_NtCsaBz7PZGcJGm_14pathfinder_mcp6serverNtB7_16PathfinderServer13replace_batch0B9_
FN:298,_RNCNvMs0_NtCsaBz7PZGcJGm_14pathfinder_mcp6serverNtB7_16PathfinderServer13validate_only0B9_
FN:232,_RNCNvMs0_NtCsaBz7PZGcJGm_14pathfinder_mcp6serverNtB7_16PathfinderServer14analyze_impact0B9_
FN:221,_RNCNvMs0_NtCsaBz7PZGcJGm_14pathfinder_mcp6serverNtB7_16PathfinderServer14get_definition0B9_
FN:154,_RNCNvMs0_NtCsaBz7PZGcJGm_14pathfinder_mcp6serverNtB7_16PathfinderServer15search_codebase0B9_
FN:188,_RNCNvMs0_NtCsaBz7PZGcJGm_14pathfinder_mcp6serverNtB7_16PathfinderServer16read_source_file0B9_
FN:177,_RNCNvMs0_NtCsaBz7PZGcJGm_14pathfinder_mcp6serverNtB7_16PathfinderServer17read_symbol_scope0B9_
FN:210,_RNCNvMs0_NtCsaBz7PZGcJGm_14pathfinder_mcp6serverNtB7_16PathfinderServer22read_with_deep_context0B9_
FN:331,_RNCNvMs0_NtCsaBz7PZGcJGm_14pathfinder_mcp6serverNtB7_16PathfinderServer9read_file0B9_
FN:1781,_RNCNCNvNtNtCsaBz7PZGcJGm_14pathfinder_mcp6server5testss_24test_read_file_not_found00B9_
FN:1782,_RNCNCNvNtNtCsaBz7PZGcJGm_14pathfinder_mcp6server5testss_24test_read_file_not_found0s_0B9_
FN:961,_RNCNCNvNtNtCsaBz7PZGcJGm_14pathfinder_mcp6server5testss_25test_read_file_pagination00B9_
FN:1019,_RNCNCNvNtNtCsaBz7PZGcJGm_14pathfinder_mcp6server5testss_25test_read_file_pagination0s0_0B9_
FN:1018,_RNCNCNvNtNtCsaBz7PZGcJGm_14pathfinder_mcp6server5testss_25test_read_file_pagination0s_0B9_
FN:1747,_RNCNCNvNtNtCsaBz7PZGcJGm_14pathfinder_mcp6server5testss_26test_delete_file_not_found00B9_
FN:1748,_RNCNCNvNtNtCsaBz7PZGcJGm_14pathfinder_mcp6server5testss_26test_delete_file_not_found0s_0B9_
FN:1183,_RNCNCNvNtNtCsaBz7PZGcJGm_14pathfinder_mcp6server5testss_32test_write_file_full_replacement00B9_
FN:1184,_RNCNCNvNtNtCsaBz7PZGcJGm_14pathfinder_mcp6server5testss_32test_write_file_full_replacement0s_0B9_
FN:1521,_RNCNCNvNtNtCsaBz7PZGcJGm_14pathfinder_mcp6server5testss_34test_search_codebase_group_by_file00B9_
FN:1534,_RNCNCNvNtNtCsaBz7PZGcJGm_14pathfinder_mcp6server5testss_34test_search_codebase_group_by_file0s_0B9_
FN:1248,_RNCNCNvNtNtCsaBz7PZGcJGm_14pathfinder_mcp6server5testss_34test_write_file_search_and_replace00B9_
FN:1275,_RNCNCNvNtNtCsaBz7PZGcJGm_14pathfinder_mcp6server5testss_34test_write_file_search_and_replace0s0_0B9_
FN:1276,_RNCNCNvNtNtCsaBz7PZGcJGm_14pathfinder_mcp6server5testss_34test_write_file_search_and_replace0s1_0B9_
FN:1249,_RNCNCNvNtNtCsaBz7PZGcJGm_14pathfinder_mcp6server5testss_34test_write_file_search_and_replace0s_0B9_
FN:898,_RNCNCNvNtNtCsaBz7PZGcJGm_14pathfinder_mcp6server5testss_40test_delete_file_success_and_occ_failure00B9_
FN:918,_RNCNCNvNtNtCsaBz7PZGcJGm_14pathfinder_mcp6server5testss_40test_delete_file_success_and_occ_failure0s0_0B9_
FN:919,_RNCNCNvNtNtCsaBz7PZGcJGm_14pathfinder_mcp6server5testss_40test_delete_file_success_and_occ_failure0s1_0B9_
FN:937,_RNCNCNvNtNtCsaBz7PZGcJGm_14pathfinder_mcp6server5testss_40test_delete_file_success_and_occ_failure0s2_0B9_
FN:938,_RNCNCNvNtNtCsaBz7PZGcJGm_14pathfinder_mcp6server5testss_40test_delete_file_success_and_occ_failure0s3_0B9_
FN:899,_RNCNCNvNtNtCsaBz7PZGcJGm_14pathfinder_mcp6server5testss_40test_delete_file_success_and_occ_failure0s_0B9_
FN:548,_RNCNCNvNtNtCsaBz7PZGcJGm_14pathfinder_mcp6server5testss_43test_create_file_success_and_already_exists00B9_
FN:567,_RNCNCNvNtNtCsaBz7PZGcJGm_14pathfinder_mcp6server5testss_43test_create_file_success_and_already_exists0s0_0B9_
FN:568,_RNCNCNvNtNtCsaBz7PZGcJGm_14pathfinder_mcp6server5testss_43test_create_file_success_and_already_exists0s1_0B9_
FN:549,_RNCNCNvNtNtCsaBz7PZGcJGm_14pathfinder_mcp6server5testss_43test_create_file_success_and_already_exists0s_0B9_
FN:1350,_RNCNCNvNtNtCsaBz7PZGcJGm_14pathfinder_mcp6server5testss_51test_search_codebase_known_files_suppresses_context00B9_
FN:1374,_RNCNCNvNtNtCsaBz7PZGcJGm_14pathfinder_mcp6server5testss_51test_search_codebase_known_files_suppresses_context0s_0B9_
FN:1754,_RNCNvNtNtCsaBz7PZGcJGm_14pathfinder_mcp6server5testss_24test_read_file_not_found0B7_
FN:371,_RNCNvNtNtCsaBz7PZGcJGm_14pathfinder_mcp6server5testss_25test_get_repo_map_success0B7_
FN:946,_RNCNvNtNtCsaBz7PZGcJGm_14pathfinder_mcp6server5testss_25test_read_file_pagination0B7_
FN:1721,_RNCNvNtNtCsaBz7PZGcJGm_14pathfinder_mcp6server5testss_26test_delete_file_not_found0B7_
FN:477,_RNCNvNtNtCsaBz7PZGcJGm_14pathfinder_mcp6server5testss_31test_get_repo_map_access_denied0B7_
FN:1129,_RNCNvNtNtCsaBz7PZGcJGm_14pathfinder_mcp6server5testss_32test_write_file_full_replacement0B7_
FN:1444,_RNCNvNtNtCsaBz7PZGcJGm_14pathfinder_mcp6server5testss_34test_search_codebase_group_by_file0B7_
FN:1190,_RNCNvNtNtCsaBz7PZGcJGm_14pathfinder_mcp6server5testss_34test_write_file_search_and_replace0B7_
FN:1608,_RNCNvNtNtCsaBz7PZGcJGm_14pathfinder_mcp6server5testss_35test_with_engines_uses_no_op_lawyer0B7_
FN:854,_RNCNvNtNtCsaBz7PZGcJGm_14pathfinder_mcp6server5testss_40test_delete_file_success_and_occ_failure0B7_
FN:645,_RNCNvNtNtCsaBz7PZGcJGm_14pathfinder_mcp6server5testss_40test_search_codebase_handles_scout_error0B7_
FN:429,_RNCNvNtNtCsaBz7PZGcJGm_14pathfinder_mcp6server5testss_41test_get_repo_map_visibility_not_degraded0B7_
FN:1828,_RNCNvNtNtCsaBz7PZGcJGm_14pathfinder_mcp6server5testss_41test_write_file_invalid_params_both_modes0B7_
FN:504,_RNCNvNtNtCsaBz7PZGcJGm_14pathfinder_mcp6server5testss_43test_create_file_success_and_already_exists0B7_
FN:1861,_RNCNvNtNtCsaBz7PZGcJGm_14pathfinder_mcp6server5testss_43test_write_file_invalid_params_neither_mode0B7_
FN:1082,_RNCNvNtNtCsaBz7PZGcJGm_14pathfinder_mcp6server5testss_44test_read_symbol_scope_handles_surgeon_error0B7_
FN:1788,_RNCNvNtNtCsaBz7PZGcJGm_14pathfinder_mcp6server5testss_45test_write_file_broadcasts_watched_file_event0B7_
FN:1651,_RNCNvNtNtCsaBz7PZGcJGm_14pathfinder_mcp6server5testss_46test_create_file_broadcasts_watched_file_event0B7_
FN:1684,_RNCNvNtNtCsaBz7PZGcJGm_14pathfinder_mcp6server5testss_46test_delete_file_broadcasts_watched_file_event0B7_
FN:1587,_RNCNvNtNtCsaBz7PZGcJGm_14pathfinder_mcp6server5testss_50test_with_all_engines_constructs_functional_server0B7_
FN:1387,_RNCNvNtNtCsaBz7PZGcJGm_14pathfinder_mcp6server5testss_51test_search_codebase_known_files_path_normalisation0B7_
FN:1286,_RNCNvNtNtCsaBz7PZGcJGm_14pathfinder_mcp6server5testss_51test_search_codebase_known_files_suppresses_context0B7_
FN:1545,_RNCNvNtNtCsaBz7PZGcJGm_14pathfinder_mcp6server5testss_52test_search_codebase_exclude_glob_forwarded_to_scout0B7_
FN:804,_RNCNvNtNtCsaBz7PZGcJGm_14pathfinder_mcp6server5testss_55test_search_codebase_filter_mode_all_returns_everything0B7_
FN:577,_RNCNvNtNtCsaBz7PZGcJGm_14pathfinder_mcp6server5testss_56test_search_codebase_routes_to_scout_and_handles_success0B7_
FN:688,_RNCNvNtNtCsaBz7PZGcJGm_14pathfinder_mcp6server5testss_57test_search_codebase_filter_mode_code_only_drops_comments0B7_
FN:1027,_RNCNvNtNtCsaBz7PZGcJGm_14pathfinder_mcp6server5testss_60test_read_symbol_scope_routes_to_surgeon_and_handles_success0B7_
FN:749,_RNCNvNtNtCsaBz7PZGcJGm_14pathfinder_mcp6server5testss_61test_search_codebase_filter_mode_comments_only_keeps_comments0B7_
FN:104,_RNvMNtCsaBz7PZGcJGm_14pathfinder_mcp6serverNtB2_16PathfinderServer12with_engines
FN:123,_RNvMNtCsaBz7PZGcJGm_14pathfinder_mcp6serverNtB2_16PathfinderServer16with_all_engines
FN:64,_RNvMNtCsaBz7PZGcJGm_14pathfinder_mcp6serverNtB2_16PathfinderServer3new
FN:351,_RNvXs1_NtCsaBz7PZGcJGm_14pathfinder_mcp6serverNtB5_16PathfinderServerNtNtNtCs6FjSQE8Y285_4rmcp7handler6server13ServerHandler8get_info
FN:673,_RNvNtNtCsaBz7PZGcJGm_14pathfinder_mcp6server5tests17make_search_match
FN:1754,_RNvNtNtCsaBz7PZGcJGm_14pathfinder_mcp6server5testss_24test_read_file_not_found
FN:371,_RNvNtNtCsaBz7PZGcJGm_14pathfinder_mcp6server5testss_25test_get_repo_map_success
FN:946,_RNvNtNtCsaBz7PZGcJGm_14pathfinder_mcp6server5testss_25test_read_file_pagination
FN:1721,_RNvNtNtCsaBz7PZGcJGm_14pathfinder_mcp6server5testss_26test_delete_file_not_found
FN:477,_RNvNtNtCsaBz7PZGcJGm_14pathfinder_mcp6server5testss_31test_get_repo_map_access_denied
FN:1129,_RNvNtNtCsaBz7PZGcJGm_14pathfinder_mcp6server5testss_32test_write_file_full_replacement
FN:1444,_RNvNtNtCsaBz7PZGcJGm_14pathfinder_mcp6server5testss_34test_search_codebase_group_by_file
FN:1190,_RNvNtNtCsaBz7PZGcJGm_14pathfinder_mcp6server5testss_34test_write_file_search_and_replace
FN:1608,_RNvNtNtCsaBz7PZGcJGm_14pathfinder_mcp6server5testss_35test_with_engines_uses_no_op_lawyer
FN:854,_RNvNtNtCsaBz7PZGcJGm_14pathfinder_mcp6server5testss_40test_delete_file_success_and_occ_failure
FN:645,_RNvNtNtCsaBz7PZGcJGm_14pathfinder_mcp6server5testss_40test_search_codebase_handles_scout_error
FN:429,_RNvNtNtCsaBz7PZGcJGm_14pathfinder_mcp6server5testss_41test_get_repo_map_visibility_not_degraded
FN:1828,_RNvNtNtCsaBz7PZGcJGm_14pathfinder_mcp6server5testss_41test_write_file_invalid_params_both_modes
FN:504,_RNvNtNtCsaBz7PZGcJGm_14pathfinder_mcp6server5testss_43test_create_file_success_and_already_exists
FN:1861,_RNvNtNtCsaBz7PZGcJGm_14pathfinder_mcp6server5testss_43test_write_file_invalid_params_neither_mode
FN:1082,_RNvNtNtCsaBz7PZGcJGm_14pathfinder_mcp6server5testss_44test_read_symbol_scope_handles_surgeon_error
FN:1788,_RNvNtNtCsaBz7PZGcJGm_14pathfinder_mcp6server5testss_45test_write_file_broadcasts_watched_file_event
FN:1651,_RNvNtNtCsaBz7PZGcJGm_14pathfinder_mcp6server5testss_46test_create_file_broadcasts_watched_file_event
FN:1684,_RNvNtNtCsaBz7PZGcJGm_14pathfinder_mcp6server5testss_46test_delete_file_broadcasts_watched_file_event
FN:1587,_RNvNtNtCsaBz7PZGcJGm_14pathfinder_mcp6server5testss_50test_with_all_engines_constructs_functional_server
FN:1387,_RNvNtNtCsaBz7PZGcJGm_14pathfinder_mcp6server5testss_51test_search_codebase_known_files_path_normalisation
FN:1286,_RNvNtNtCsaBz7PZGcJGm_14pathfinder_mcp6server5testss_51test_search_codebase_known_files_suppresses_context
FN:1545,_RNvNtNtCsaBz7PZGcJGm_14pathfinder_mcp6server5testss_52test_search_codebase_exclude_glob_forwarded_to_scout
FN:804,_RNvNtNtCsaBz7PZGcJGm_14pathfinder_mcp6server5testss_55test_search_codebase_filter_mode_all_returns_everything
FN:577,_RNvNtNtCsaBz7PZGcJGm_14pathfinder_mcp6server5testss_56test_search_codebase_routes_to_scout_and_handles_success
FN:688,_RNvNtNtCsaBz7PZGcJGm_14pathfinder_mcp6server5testss_57test_search_codebase_filter_mode_code_only_drops_comments
FN:1027,_RNvNtNtCsaBz7PZGcJGm_14pathfinder_mcp6server5testss_60test_read_symbol_scope_routes_to_surgeon_and_handles_success
FN:749,_RNvNtNtCsaBz7PZGcJGm_14pathfinder_mcp6server5testss_61test_search_codebase_filter_mode_comments_only_keeps_comments
FN:104,_RNvMNtCs1vjPnMfgdgZ_14pathfinder_lib6serverNtB2_16PathfinderServer12with_engines
FN:123,_RNvMNtCs1vjPnMfgdgZ_14pathfinder_lib6serverNtB2_16PathfinderServer16with_all_engines
FN:64,_RNvMNtCs1vjPnMfgdgZ_14pathfinder_lib6serverNtB2_16PathfinderServer3new
FN:351,_RNvXs1_NtCs1vjPnMfgdgZ_14pathfinder_lib6serverNtB5_16PathfinderServerNtNtNtCs6FjSQE8Y285_4rmcp7handler6server13ServerHandler8get_info
FN:342,_RNCNvMs0_NtCs1vjPnMfgdgZ_14pathfinder_lib6serverNtB7_16PathfinderServer10write_file0B9_
FN:309,_RNCNvMs0_NtCs1vjPnMfgdgZ_14pathfinder_lib6serverNtB7_16PathfinderServer11create_file0B9_
FN:320,_RNCNvMs0_NtCs1vjPnMfgdgZ_14pathfinder_lib6serverNtB7_16PathfinderServer11delete_file0B9_
FN:166,_RNCNvMs0_NtCs1vjPnMfgdgZ_14pathfinder_lib6serverNtB7_16PathfinderServer12get_repo_map0B9_
FN:276,_RNCNvMs0_NtCs1vjPnMfgdgZ_14pathfinder_lib6serverNtB7_16PathfinderServer12insert_after0B9_
FN:243,_RNCNvMs0_NtCs1vjPnMfgdgZ_14pathfinder_lib6serverNtB7_16PathfinderServer12replace_body0B9_
FN:254,_RNCNvMs0_NtCs1vjPnMfgdgZ_14pathfinder_lib6serverNtB7_16PathfinderServer12replace_full0B9_
FN:287,_RNCNvMs0_NtCs1vjPnMfgdgZ_14pathfinder_lib6serverNtB7_16PathfinderServer13delete_symbol0B9_
FN:265,_RNCNvMs0_NtCs1vjPnMfgdgZ_14pathfinder_lib6serverNtB7_16PathfinderServer13insert_before0B9_
FN:199,_RNCNvMs0_NtCs1vjPnMfgdgZ_14pathfinder_lib6serverNtB7_16PathfinderServer13replace_batch0B9_
FN:298,_RNCNvMs0_NtCs1vjPnMfgdgZ_14pathfinder_lib6serverNtB7_16PathfinderServer13validate_only0B9_
FN:232,_RNCNvMs0_NtCs1vjPnMfgdgZ_14pathfinder_lib6serverNtB7_16PathfinderServer14analyze_impact0B9_
FN:221,_RNCNvMs0_NtCs1vjPnMfgdgZ_14pathfinder_lib6serverNtB7_16PathfinderServer14get_definition0B9_
FN:154,_RNCNvMs0_NtCs1vjPnMfgdgZ_14pathfinder_lib6serverNtB7_16PathfinderServer15search_codebase0B9_
FN:188,_RNCNvMs0_NtCs1vjPnMfgdgZ_14pathfinder_lib6serverNtB7_16PathfinderServer16read_source_file0B9_
FN:177,_RNCNvMs0_NtCs1vjPnMfgdgZ_14pathfinder_lib6serverNtB7_16PathfinderServer17read_symbol_scope0B9_
FN:210,_RNCNvMs0_NtCs1vjPnMfgdgZ_14pathfinder_lib6serverNtB7_16PathfinderServer22read_with_deep_context0B9_
FN:331,_RNCNvMs0_NtCs1vjPnMfgdgZ_14pathfinder_lib6serverNtB7_16PathfinderServer9read_file0B9_
FNDA:0,_RNCNvMNtCsb2XMseC3SKs_14pathfinder_lib6serverNtB4_16PathfinderServer3new0B6_
FNDA:0,_RNvMNtCsb2XMseC3SKs_14pathfinder_lib6serverNtB2_16PathfinderServer3new
FNDA:1,_RNCNCNvNtNtCsb2XMseC3SKs_14pathfinder_lib6server5testss_24test_read_file_not_found00B9_
FNDA:1,_RNCNCNvNtNtCsb2XMseC3SKs_14pathfinder_lib6server5testss_24test_read_file_not_found0s_0B9_
FNDA:10,_RNCNCNvNtNtCsb2XMseC3SKs_14pathfinder_lib6server5testss_25test_read_file_pagination00B9_
FNDA:1,_RNCNCNvNtNtCsb2XMseC3SKs_14pathfinder_lib6server5testss_25test_read_file_pagination0s0_0B9_
FNDA:1,_RNCNCNvNtNtCsb2XMseC3SKs_14pathfinder_lib6server5testss_25test_read_file_pagination0s_0B9_
FNDA:1,_RNCNCNvNtNtCsb2XMseC3SKs_14pathfinder_lib6server5testss_26test_delete_file_not_found00B9_
FNDA:1,_RNCNCNvNtNtCsb2XMseC3SKs_14pathfinder_lib6server5testss_26test_delete_file_not_found0s_0B9_
FNDA:1,_RNCNCNvNtNtCsb2XMseC3SKs_14pathfinder_lib6server5testss_32test_write_file_full_replacement00B9_
FNDA:1,_RNCNCNvNtNtCsb2XMseC3SKs_14pathfinder_lib6server5testss_32test_write_file_full_replacement0s_0B9_
FNDA:1,_RNCNCNvNtNtCsb2XMseC3SKs_14pathfinder_lib6server5testss_34test_search_codebase_group_by_file00B9_
FNDA:2,_RNCNCNvNtNtCsb2XMseC3SKs_14pathfinder_lib6server5testss_34test_search_codebase_group_by_file0s_0B9_
FNDA:1,_RNCNCNvNtNtCsb2XMseC3SKs_14pathfinder_lib6server5testss_34test_write_file_search_and_replace00B9_
FNDA:1,_RNCNCNvNtNtCsb2XMseC3SKs_14pathfinder_lib6server5testss_34test_write_file_search_and_replace0s0_0B9_
FNDA:1,_RNCNCNvNtNtCsb2XMseC3SKs_14pathfinder_lib6server5testss_34test_write_file_search_and_replace0s1_0B9_
FNDA:1,_RNCNCNvNtNtCsb2XMseC3SKs_14pathfinder_lib6server5testss_34test_write_file_search_and_replace0s_0B9_
FNDA:1,_RNCNCNvNtNtCsb2XMseC3SKs_14pathfinder_lib6server5testss_40test_delete_file_success_and_occ_failure00B9_
FNDA:1,_RNCNCNvNtNtCsb2XMseC3SKs_14pathfinder_lib6server5testss_40test_delete_file_success_and_occ_failure0s0_0B9_
FNDA:1,_RNCNCNvNtNtCsb2XMseC3SKs_14pathfinder_lib6server5testss_40test_delete_file_success_and_occ_failure0s1_0B9_
FNDA:1,_RNCNCNvNtNtCsb2XMseC3SKs_14pathfinder_lib6server5testss_40test_delete_file_success_and_occ_failure0s2_0B9_
FNDA:1,_RNCNCNvNtNtCsb2XMseC3SKs_14pathfinder_lib6server5testss_40test_delete_file_success_and_occ_failure0s3_0B9_
FNDA:1,_RNCNCNvNtNtCsb2XMseC3SKs_14pathfinder_lib6server5testss_40test_delete_file_success_and_occ_failure0s_0B9_
FNDA:1,_RNCNCNvNtNtCsb2XMseC3SKs_14pathfinder_lib6server5testss_43test_create_file_success_and_already_exists00B9_
FNDA:1,_RNCNCNvNtNtCsb2XMseC3SKs_14pathfinder_lib6server5testss_43test_create_file_success_and_already_exists0s0_0B9_
FNDA:1,_RNCNCNvNtNtCsb2XMseC3SKs_14pathfinder_lib6server5testss_43test_create_file_success_and_already_exists0s1_0B9_
FNDA:1,_RNCNCNvNtNtCsb2XMseC3SKs_14pathfinder_lib6server5testss_43test_create_file_success_and_already_exists0s_0B9_
FNDA:1,_RNCNCNvNtNtCsb2XMseC3SKs_14pathfinder_lib6server5testss_51test_search_codebase_known_files_suppresses_context00B9_
FNDA:2,_RNCNCNvNtNtCsb2XMseC3SKs_14pathfinder_lib6server5testss_51test_search_codebase_known_files_suppresses_context0s_0B9_
FNDA:1,_RNCNvNtNtCsb2XMseC3SKs_14pathfinder_lib6server5testss_24test_read_file_not_found0B7_
FNDA:1,_RNCNvNtNtCsb2XMseC3SKs_14pathfinder_lib6server5testss_25test_get_repo_map_success0B7_
FNDA:1,_RNCNvNtNtCsb2XMseC3SKs_14pathfinder_lib6server5testss_25test_read_file_pagination0B7_
FNDA:1,_RNCNvNtNtCsb2XMseC3SKs_14pathfinder_lib6server5testss_26test_delete_file_not_found0B7_
FNDA:1,_RNCNvNtNtCsb2XMseC3SKs_14pathfinder_lib6server5testss_31test_get_repo_map_access_denied0B7_
FNDA:1,_RNCNvNtNtCsb2XMseC3SKs_14pathfinder_lib6server5testss_32test_write_file_full_replacement0B7_
FNDA:1,_RNCNvNtNtCsb2XMseC3SKs_14pathfinder_lib6server5testss_34test_search_codebase_group_by_file0B7_
FNDA:1,_RNCNvNtNtCsb2XMseC3SKs_14pathfinder_lib6server5testss_34test_write_file_search_and_replace0B7_
FNDA:1,_RNCNvNtNtCsb2XMseC3SKs_14pathfinder_lib6server5testss_35test_with_engines_uses_no_op_lawyer0B7_
FNDA:1,_RNCNvNtNtCsb2XMseC3SKs_14pathfinder_lib6server5testss_40test_delete_file_success_and_occ_failure0B7_
FNDA:1,_RNCNvNtNtCsb2XMseC3SKs_14pathfinder_lib6server5testss_40test_search_codebase_handles_scout_error0B7_
FNDA:1,_RNCNvNtNtCsb2XMseC3SKs_14pathfinder_lib6server5testss_41test_get_repo_map_visibility_not_degraded0B7_
FNDA:1,_RNCNvNtNtCsb2XMseC3SKs_14pathfinder_lib6server5testss_41test_write_file_invalid_params_both_modes0B7_
FNDA:1,_RNCNvNtNtCsb2XMseC3SKs_14pathfinder_lib6server5testss_43test_create_file_success_and_already_exists0B7_
FNDA:1,_RNCNvNtNtCsb2XMseC3SKs_14pathfinder_lib6server5testss_43test_write_file_invalid_params_neither_mode0B7_
FNDA:1,_RNCNvNtNtCsb2XMseC3SKs_14pathfinder_lib6server5testss_44test_read_symbol_scope_handles_surgeon_error0B7_
FNDA:1,_RNCNvNtNtCsb2XMseC3SKs_14pathfinder_lib6server5testss_45test_write_file_broadcasts_watched_file_event0B7_
FNDA:1,_RNCNvNtNtCsb2XMseC3SKs_14pathfinder_lib6server5testss_46test_create_file_broadcasts_watched_file_event0B7_
FNDA:1,_RNCNvNtNtCsb2XMseC3SKs_14pathfinder_lib6server5testss_46test_delete_file_broadcasts_watched_file_event0B7_
FNDA:1,_RNCNvNtNtCsb2XMseC3SKs_14pathfinder_lib6server5testss_50test_with_all_engines_constructs_functional_server0B7_
FNDA:1,_RNCNvNtNtCsb2XMseC3SKs_14pathfinder_lib6server5testss_51test_search_codebase_known_files_path_normalisation0B7_
FNDA:1,_RNCNvNtNtCsb2XMseC3SKs_14pathfinder_lib6server5testss_51test_search_codebase_known_files_suppresses_context0B7_
FNDA:1,_RNCNvNtNtCsb2XMseC3SKs_14pathfinder_lib6server5testss_52test_search_codebase_exclude_glob_forwarded_to_scout0B7_
FNDA:1,_RNCNvNtNtCsb2XMseC3SKs_14pathfinder_lib6server5testss_55test_search_codebase_filter_mode_all_returns_everything0B7_
FNDA:1,_RNCNvNtNtCsb2XMseC3SKs_14pathfinder_lib6server5testss_56test_search_codebase_routes_to_scout_and_handles_success0B7_
FNDA:1,_RNCNvNtNtCsb2XMseC3SKs_14pathfinder_lib6server5testss_57test_search_codebase_filter_mode_code_only_drops_comments0B7_
FNDA:1,_RNCNvNtNtCsb2XMseC3SKs_14pathfinder_lib6server5testss_60test_read_symbol_scope_routes_to_surgeon_and_handles_success0B7_
FNDA:1,_RNCNvNtNtCsb2XMseC3SKs_14pathfinder_lib6server5testss_61test_search_codebase_filter_mode_comments_only_keeps_comments0B7_
FNDA:5,_RNCNvMs0_NtCsb2XMseC3SKs_14pathfinder_lib6serverNtB7_16PathfinderServer10write_file0B9_
FNDA:3,_RNCNvMs0_NtCsb2XMseC3SKs_14pathfinder_lib6serverNtB7_16PathfinderServer11create_file0B9_
FNDA:4,_RNCNvMs0_NtCsb2XMseC3SKs_14pathfinder_lib6serverNtB7_16PathfinderServer11delete_file0B9_
FNDA:3,_RNCNvMs0_NtCsb2XMseC3SKs_14pathfinder_lib6serverNtB7_16PathfinderServer12get_repo_map0B9_
FNDA:1,_RNCNvMs0_NtCsb2XMseC3SKs_14pathfinder_lib6serverNtB7_16PathfinderServer12insert_after0B9_
FNDA:8,_RNCNvMs0_NtCsb2XMseC3SKs_14pathfinder_lib6serverNtB7_16PathfinderServer12replace_body0B9_
FNDA:10,_RNCNvMs0_NtCsb2XMseC3SKs_14pathfinder_lib6serverNtB7_16PathfinderServer12replace_full0B9_
FNDA:4,_RNCNvMs0_NtCsb2XMseC3SKs_14pathfinder_lib6serverNtB7_16PathfinderServer13delete_symbol0B9_
FNDA:1,_RNCNvMs0_NtCsb2XMseC3SKs_14pathfinder_lib6serverNtB7_16PathfinderServer13insert_before0B9_
FNDA:17,_RNCNvMs0_NtCsb2XMseC3SKs_14pathfinder_lib6serverNtB7_16PathfinderServer13replace_batch0B9_
FNDA:5,_RNCNvMs0_NtCsb2XMseC3SKs_14pathfinder_lib6serverNtB7_16PathfinderServer13validate_only0B9_
FNDA:0,_RNCNvMs0_NtCsb2XMseC3SKs_14pathfinder_lib6serverNtB7_16PathfinderServer14analyze_impact0B9_
FNDA:0,_RNCNvMs0_NtCsb2XMseC3SKs_14pathfinder_lib6serverNtB7_16PathfinderServer14get_definition0B9_
FNDA:9,_RNCNvMs0_NtCsb2XMseC3SKs_14pathfinder_lib6serverNtB7_16PathfinderServer15search_codebase0B9_
FNDA:0,_RNCNvMs0_NtCsb2XMseC3SKs_14pathfinder_lib6serverNtB7_16PathfinderServer16read_source_file0B9_
FNDA:2,_RNCNvMs0_NtCsb2XMseC3SKs_14pathfinder_lib6serverNtB7_16PathfinderServer17read_symbol_scope0B9_
FNDA:0,_RNCNvMs0_NtCsb2XMseC3SKs_14pathfinder_lib6serverNtB7_16PathfinderServer22read_with_deep_context0B9_
FNDA:3,_RNCNvMs0_NtCsb2XMseC3SKs_14pathfinder_lib6serverNtB7_16PathfinderServer9read_file0B9_
FNDA:56,_RNvMNtCsb2XMseC3SKs_14pathfinder_lib6serverNtB2_16PathfinderServer12with_engines
FNDA:89,_RNvMNtCsb2XMseC3SKs_14pathfinder_lib6serverNtB2_16PathfinderServer16with_all_engines
FNDA:1,_RNvXs1_NtCsb2XMseC3SKs_14pathfinder_lib6serverNtB5_16PathfinderServerNtNtNtCs6FjSQE8Y285_4rmcp7handler6server13ServerHandler8get_info
FNDA:9,_RNvNtNtCsb2XMseC3SKs_14pathfinder_lib6server5tests17make_search_match
FNDA:1,_RNvNtNtCsb2XMseC3SKs_14pathfinder_lib6server5testss_24test_read_file_not_found
FNDA:1,_RNvNtNtCsb2XMseC3SKs_14pathfinder_lib6server5testss_25test_get_repo_map_success
FNDA:1,_RNvNtNtCsb2XMseC3SKs_14pathfinder_lib6server5testss_25test_read_file_pagination
FNDA:1,_RNvNtNtCsb2XMseC3SKs_14pathfinder_lib6server5testss_26test_delete_file_not_found
FNDA:1,_RNvNtNtCsb2XMseC3SKs_14pathfinder_lib6server5testss_31test_get_repo_map_access_denied
FNDA:1,_RNvNtNtCsb2XMseC3SKs_14pathfinder_lib6server5testss_32test_write_file_full_replacement
FNDA:1,_RNvNtNtCsb2XMseC3SKs_14pathfinder_lib6server5testss_34test_search_codebase_group_by_file
FNDA:1,_RNvNtNtCsb2XMseC3SKs_14pathfinder_lib6server5testss_34test_write_file_search_and_replace
FNDA:1,_RNvNtNtCsb2XMseC3SKs_14pathfinder_lib6server5testss_35test_with_engines_uses_no_op_lawyer
FNDA:1,_RNvNtNtCsb2XMseC3SKs_14pathfinder_lib6server5testss_40test_delete_file_success_and_occ_failure
FNDA:1,_RNvNtNtCsb2XMseC3SKs_14pathfinder_lib6server5testss_40test_search_codebase_handles_scout_error
FNDA:1,_RNvNtNtCsb2XMseC3SKs_14pathfinder_lib6server5testss_41test_get_repo_map_visibility_not_degraded
FNDA:1,_RNvNtNtCsb2XMseC3SKs_14pathfinder_lib6server5testss_41test_write_file_invalid_params_both_modes
FNDA:1,_RNvNtNtCsb2XMseC3SKs_14pathfinder_lib6server5testss_43test_create_file_success_and_already_exists
FNDA:1,_RNvNtNtCsb2XMseC3SKs_14pathfinder_lib6server5testss_43test_write_file_invalid_params_neither_mode
FNDA:1,_RNvNtNtCsb2XMseC3SKs_14pathfinder_lib6server5testss_44test_read_symbol_scope_handles_surgeon_error
FNDA:1,_RNvNtNtCsb2XMseC3SKs_14pathfinder_lib6server5testss_45test_write_file_broadcasts_watched_file_event
FNDA:1,_RNvNtNtCsb2XMseC3SKs_14pathfinder_lib6server5testss_46test_create_file_broadcasts_watched_file_event
FNDA:1,_RNvNtNtCsb2XMseC3SKs_14pathfinder_lib6server5testss_46test_delete_file_broadcasts_watched_file_event
FNDA:1,_RNvNtNtCsb2XMseC3SKs_14pathfinder_lib6server5testss_50test_with_all_engines_constructs_functional_server
FNDA:1,_RNvNtNtCsb2XMseC3SKs_14pathfinder_lib6server5testss_51test_search_codebase_known_files_path_normalisation
FNDA:1,_RNvNtNtCsb2XMseC3SKs_14pathfinder_lib6server5testss_51test_search_codebase_known_files_suppresses_context
FNDA:1,_RNvNtNtCsb2XMseC3SKs_14pathfinder_lib6server5testss_52test_search_codebase_exclude_glob_forwarded_to_scout
FNDA:1,_RNvNtNtCsb2XMseC3SKs_14pathfinder_lib6server5testss_55test_search_codebase_filter_mode_all_returns_everything
FNDA:1,_RNvNtNtCsb2XMseC3SKs_14pathfinder_lib6server5testss_56test_search_codebase_routes_to_scout_and_handles_success
FNDA:1,_RNvNtNtCsb2XMseC3SKs_14pathfinder_lib6server5testss_57test_search_codebase_filter_mode_code_only_drops_comments
FNDA:1,_RNvNtNtCsb2XMseC3SKs_14pathfinder_lib6server5testss_60test_read_symbol_scope_routes_to_surgeon_and_handles_success
FNDA:1,_RNvNtNtCsb2XMseC3SKs_14pathfinder_lib6server5testss_61test_search_codebase_filter_mode_comments_only_keeps_comments
FNDA:0,_RNvMNtCs7Fw43FPylcK_14pathfinder_mcp6serverNtB2_16PathfinderServer12with_engines
FNDA:0,_RNvMNtCs7Fw43FPylcK_14pathfinder_mcp6serverNtB2_16PathfinderServer16with_all_engines
FNDA:0,_RNvMNtCs7Fw43FPylcK_14pathfinder_mcp6serverNtB2_16PathfinderServer3new
FNDA:0,_RNvXs1_NtCs7Fw43FPylcK_14pathfinder_mcp6serverNtB5_16PathfinderServerNtNtNtCs6FjSQE8Y285_4rmcp7handler6server13ServerHandler8get_info
FNDA:0,_RNCNvMNtCs7Fw43FPylcK_14pathfinder_mcp6serverNtB4_16PathfinderServer3new0B6_
FNDA:0,_RNCNvMs0_NtCs7Fw43FPylcK_14pathfinder_mcp6serverNtB7_16PathfinderServer10write_file0B9_
FNDA:0,_RNCNvMs0_NtCs7Fw43FPylcK_14pathfinder_mcp6serverNtB7_16PathfinderServer11create_file0B9_
FNDA:0,_RNCNvMs0_NtCs7Fw43FPylcK_14pathfinder_mcp6serverNtB7_16PathfinderServer11delete_file0B9_
FNDA:0,_RNCNvMs0_NtCs7Fw43FPylcK_14pathfinder_mcp6serverNtB7_16PathfinderServer12get_repo_map0B9_
FNDA:0,_RNCNvMs0_NtCs7Fw43FPylcK_14pathfinder_mcp6serverNtB7_16PathfinderServer12insert_after0B9_
FNDA:0,_RNCNvMs0_NtCs7Fw43FPylcK_14pathfinder_mcp6serverNtB7_16PathfinderServer12replace_body0B9_
FNDA:0,_RNCNvMs0_NtCs7Fw43FPylcK_14pathfinder_mcp6serverNtB7_16PathfinderServer12replace_full0B9_
FNDA:0,_RNCNvMs0_NtCs7Fw43FPylcK_14pathfinder_mcp6serverNtB7_16PathfinderServer13delete_symbol0B9_
FNDA:0,_RNCNvMs0_NtCs7Fw43FPylcK_14pathfinder_mcp6serverNtB7_16PathfinderServer13insert_before0B9_
FNDA:0,_RNCNvMs0_NtCs7Fw43FPylcK_14pathfinder_mcp6serverNtB7_16PathfinderServer13replace_batch0B9_
FNDA:0,_RNCNvMs0_NtCs7Fw43FPylcK_14pathfinder_mcp6serverNtB7_16PathfinderServer13validate_only0B9_
FNDA:0,_RNCNvMs0_NtCs7Fw43FPylcK_14pathfinder_mcp6serverNtB7_16PathfinderServer14analyze_impact0B9_
FNDA:0,_RNCNvMs0_NtCs7Fw43FPylcK_14pathfinder_mcp6serverNtB7_16PathfinderServer14get_definition0B9_
FNDA:0,_RNCNvMs0_NtCs7Fw43FPylcK_14pathfinder_mcp6serverNtB7_16PathfinderServer15search_codebase0B9_
FNDA:0,_RNCNvMs0_NtCs7Fw43FPylcK_14pathfinder_mcp6serverNtB7_16PathfinderServer16read_source_file0B9_
FNDA:0,_RNCNvMs0_NtCs7Fw43FPylcK_14pathfinder_mcp6serverNtB7_16PathfinderServer17read_symbol_scope0B9_
FNDA:0,_RNCNvMs0_NtCs7Fw43FPylcK_14pathfinder_mcp6serverNtB7_16PathfinderServer22read_with_deep_context0B9_
FNDA:0,_RNCNvMs0_NtCs7Fw43FPylcK_14pathfinder_mcp6serverNtB7_16PathfinderServer9read_file0B9_
FNDA:0,_RNCNvMNtCsaBz7PZGcJGm_14pathfinder_mcp6serverNtB4_16PathfinderServer3new0B6_
FNDA:5,_RNCNvMs0_NtCsaBz7PZGcJGm_14pathfinder_mcp6serverNtB7_16PathfinderServer10write_file0B9_
FNDA:3,_RNCNvMs0_NtCsaBz7PZGcJGm_14pathfinder_mcp6serverNtB7_16PathfinderServer11create_file0B9_
FNDA:4,_RNCNvMs0_NtCsaBz7PZGcJGm_14pathfinder_mcp6serverNtB7_16PathfinderServer11delete_file0B9_
FNDA:3,_RNCNvMs0_NtCsaBz7PZGcJGm_14pathfinder_mcp6serverNtB7_16PathfinderServer12get_repo_map0B9_
FNDA:1,_RNCNvMs0_NtCsaBz7PZGcJGm_14pathfinder_mcp6serverNtB7_16PathfinderServer12insert_after0B9_
FNDA:8,_RNCNvMs0_NtCsaBz7PZGcJGm_14pathfinder_mcp6serverNtB7_16PathfinderServer12replace_body0B9_
FNDA:10,_RNCNvMs0_NtCsaBz7PZGcJGm_14pathfinder_mcp6serverNtB7_16PathfinderServer12replace_full0B9_
FNDA:4,_RNCNvMs0_NtCsaBz7PZGcJGm_14pathfinder_mcp6serverNtB7_16PathfinderServer13delete_symbol0B9_
FNDA:1,_RNCNvMs0_NtCsaBz7PZGcJGm_14pathfinder_mcp6serverNtB7_16PathfinderServer13insert_before0B9_
FNDA:17,_RNCNvMs0_NtCsaBz7PZGcJGm_14pathfinder_mcp6serverNtB7_16PathfinderServer13replace_batch0B9_
FNDA:5,_RNCNvMs0_NtCsaBz7PZGcJGm_14pathfinder_mcp6serverNtB7_16PathfinderServer13validate_only0B9_
FNDA:0,_RNCNvMs0_NtCsaBz7PZGcJGm_14pathfinder_mcp6serverNtB7_16PathfinderServer14analyze_impact0B9_
FNDA:0,_RNCNvMs0_NtCsaBz7PZGcJGm_14pathfinder_mcp6serverNtB7_16PathfinderServer14get_definition0B9_
FNDA:9,_RNCNvMs0_NtCsaBz7PZGcJGm_14pathfinder_mcp6serverNtB7_16PathfinderServer15search_codebase0B9_
FNDA:0,_RNCNvMs0_NtCsaBz7PZGcJGm_14pathfinder_mcp6serverNtB7_16PathfinderServer16read_source_file0B9_
FNDA:2,_RNCNvMs0_NtCsaBz7PZGcJGm_14pathfinder_mcp6serverNtB7_16PathfinderServer17read_symbol_scope0B9_
FNDA:0,_RNCNvMs0_NtCsaBz7PZGcJGm_14pathfinder_mcp6serverNtB7_16PathfinderServer22read_with_deep_context0B9_
FNDA:3,_RNCNvMs0_NtCsaBz7PZGcJGm_14pathfinder_mcp6serverNtB7_16PathfinderServer9read_file0B9_
FNDA:1,_RNCNCNvNtNtCsaBz7PZGcJGm_14pathfinder_mcp6server5testss_24test_read_file_not_found00B9_
FNDA:1,_RNCNCNvNtNtCsaBz7PZGcJGm_14pathfinder_mcp6server5testss_24test_read_file_not_found0s_0B9_
FNDA:10,_RNCNCNvNtNtCsaBz7PZGcJGm_14pathfinder_mcp6server5testss_25test_read_file_pagination00B9_
FNDA:1,_RNCNCNvNtNtCsaBz7PZGcJGm_14pathfinder_mcp6server5testss_25test_read_file_pagination0s0_0B9_
FNDA:1,_RNCNCNvNtNtCsaBz7PZGcJGm_14pathfinder_mcp6server5testss_25test_read_file_pagination0s_0B9_
FNDA:1,_RNCNCNvNtNtCsaBz7PZGcJGm_14pathfinder_mcp6server5testss_26test_delete_file_not_found00B9_
FNDA:1,_RNCNCNvNtNtCsaBz7PZGcJGm_14pathfinder_mcp6server5testss_26test_delete_file_not_found0s_0B9_
FNDA:1,_RNCNCNvNtNtCsaBz7PZGcJGm_14pathfinder_mcp6server5testss_32test_write_file_full_replacement00B9_
FNDA:1,_RNCNCNvNtNtCsaBz7PZGcJGm_14pathfinder_mcp6server5testss_32test_write_file_full_replacement0s_0B9_
FNDA:1,_RNCNCNvNtNtCsaBz7PZGcJGm_14pathfinder_mcp6server5testss_34test_search_codebase_group_by_file00B9_
FNDA:2,_RNCNCNvNtNtCsaBz7PZGcJGm_14pathfinder_mcp6server5testss_34test_search_codebase_group_by_file0s_0B9_
FNDA:1,_RNCNCNvNtNtCsaBz7PZGcJGm_14pathfinder_mcp6server5testss_34test_write_file_search_and_replace00B9_
FNDA:1,_RNCNCNvNtNtCsaBz7PZGcJGm_14pathfinder_mcp6server5testss_34test_write_file_search_and_replace0s0_0B9_
FNDA:1,_RNCNCNvNtNtCsaBz7PZGcJGm_14pathfinder_mcp6server5testss_34test_write_file_search_and_replace0s1_0B9_
FNDA:1,_RNCNCNvNtNtCsaBz7PZGcJGm_14pathfinder_mcp6server5testss_34test_write_file_search_and_replace0s_0B9_
FNDA:1,_RNCNCNvNtNtCsaBz7PZGcJGm_14pathfinder_mcp6server5testss_40test_delete_file_success_and_occ_failure00B9_
FNDA:1,_RNCNCNvNtNtCsaBz7PZGcJGm_14pathfinder_mcp6server5testss_40test_delete_file_success_and_occ_failure0s0_0B9_
FNDA:1,_RNCNCNvNtNtCsaBz7PZGcJGm_14pathfinder_mcp6server5testss_40test_delete_file_success_and_occ_failure0s1_0B9_
FNDA:1,_RNCNCNvNtNtCsaBz7PZGcJGm_14pathfinder_mcp6server5testss_40test_delete_file_success_and_occ_failure0s2_0B9_
FNDA:1,_RNCNCNvNtNtCsaBz7PZGcJGm_14pathfinder_mcp6server5testss_40test_delete_file_success_and_occ_failure0s3_0B9_
FNDA:1,_RNCNCNvNtNtCsaBz7PZGcJGm_14pathfinder_mcp6server5testss_40test_delete_file_success_and_occ_failure0s_0B9_
FNDA:1,_RNCNCNvNtNtCsaBz7PZGcJGm_14pathfinder_mcp6server5testss_43test_create_file_success_and_already_exists00B9_
FNDA:1,_RNCNCNvNtNtCsaBz7PZGcJGm_14pathfinder_mcp6server5testss_43test_create_file_success_and_already_exists0s0_0B9_
FNDA:1,_RNCNCNvNtNtCsaBz7PZGcJGm_14pathfinder_mcp6server5testss_43test_create_file_success_and_already_exists0s1_0B9_
FNDA:1,_RNCNCNvNtNtCsaBz7PZGcJGm_14pathfinder_mcp6server5testss_43test_create_file_success_and_already_exists0s_0B9_
FNDA:1,_RNCNCNvNtNtCsaBz7PZGcJGm_14pathfinder_mcp6server5testss_51test_search_codebase_known_files_suppresses_context00B9_
FNDA:2,_RNCNCNvNtNtCsaBz7PZGcJGm_14pathfinder_mcp6server5testss_51test_search_codebase_known_files_suppresses_context0s_0B9_
FNDA:1,_RNCNvNtNtCsaBz7PZGcJGm_14pathfinder_mcp6server5testss_24test_read_file_not_found0B7_
FNDA:1,_RNCNvNtNtCsaBz7PZGcJGm_14pathfinder_mcp6server5testss_25test_get_repo_map_success0B7_
FNDA:1,_RNCNvNtNtCsaBz7PZGcJGm_14pathfinder_mcp6server5testss_25test_read_file_pagination0B7_
FNDA:1,_RNCNvNtNtCsaBz7PZGcJGm_14pathfinder_mcp6server5testss_26test_delete_file_not_found0B7_
FNDA:1,_RNCNvNtNtCsaBz7PZGcJGm_14pathfinder_mcp6server5testss_31test_get_repo_map_access_denied0B7_
FNDA:1,_RNCNvNtNtCsaBz7PZGcJGm_14pathfinder_mcp6server5testss_32test_write_file_full_replacement0B7_
FNDA:1,_RNCNvNtNtCsaBz7PZGcJGm_14pathfinder_mcp6server5testss_34test_search_codebase_group_by_file0B7_
FNDA:1,_RNCNvNtNtCsaBz7PZGcJGm_14pathfinder_mcp6server5testss_34test_write_file_search_and_replace0B7_
FNDA:1,_RNCNvNtNtCsaBz7PZGcJGm_14pathfinder_mcp6server5testss_35test_with_engines_uses_no_op_lawyer0B7_
FNDA:1,_RNCNvNtNtCsaBz7PZGcJGm_14pathfinder_mcp6server5testss_40test_delete_file_success_and_occ_failure0B7_
FNDA:1,_RNCNvNtNtCsaBz7PZGcJGm_14pathfinder_mcp6server5testss_40test_search_codebase_handles_scout_error0B7_
FNDA:1,_RNCNvNtNtCsaBz7PZGcJGm_14pathfinder_mcp6server5testss_41test_get_repo_map_visibility_not_degraded0B7_
FNDA:1,_RNCNvNtNtCsaBz7PZGcJGm_14pathfinder_mcp6server5testss_41test_write_file_invalid_params_both_modes0B7_
FNDA:1,_RNCNvNtNtCsaBz7PZGcJGm_14pathfinder_mcp6server5testss_43test_create_file_success_and_already_exists0B7_
FNDA:1,_RNCNvNtNtCsaBz7PZGcJGm_14pathfinder_mcp6server5testss_43test_write_file_invalid_params_neither_mode0B7_
FNDA:1,_RNCNvNtNtCsaBz7PZGcJGm_14pathfinder_mcp6server5testss_44test_read_symbol_scope_handles_surgeon_error0B7_
FNDA:1,_RNCNvNtNtCsaBz7PZGcJGm_14pathfinder_mcp6server5testss_45test_write_file_broadcasts_watched_file_event0B7_
FNDA:1,_RNCNvNtNtCsaBz7PZGcJGm_14pathfinder_mcp6server5testss_46test_create_file_broadcasts_watched_file_event0B7_
FNDA:1,_RNCNvNtNtCsaBz7PZGcJGm_14pathfinder_mcp6server5testss_46test_delete_file_broadcasts_watched_file_event0B7_
FNDA:1,_RNCNvNtNtCsaBz7PZGcJGm_14pathfinder_mcp6server5testss_50test_with_all_engines_constructs_functional_server0B7_
FNDA:1,_RNCNvNtNtCsaBz7PZGcJGm_14pathfinder_mcp6server5testss_51test_search_codebase_known_files_path_normalisation0B7_
FNDA:1,_RNCNvNtNtCsaBz7PZGcJGm_14pathfinder_mcp6server5testss_51test_search_codebase_known_files_suppresses_context0B7_
FNDA:1,_RNCNvNtNtCsaBz7PZGcJGm_14pathfinder_mcp6server5testss_52test_search_codebase_exclude_glob_forwarded_to_scout0B7_
FNDA:1,_RNCNvNtNtCsaBz7PZGcJGm_14pathfinder_mcp6server5testss_55test_search_codebase_filter_mode_all_returns_everything0B7_
FNDA:1,_RNCNvNtNtCsaBz7PZGcJGm_14pathfinder_mcp6server5testss_56test_search_codebase_routes_to_scout_and_handles_success0B7_
FNDA:1,_RNCNvNtNtCsaBz7PZGcJGm_14pathfinder_mcp6server5testss_57test_search_codebase_filter_mode_code_only_drops_comments0B7_
FNDA:1,_RNCNvNtNtCsaBz7PZGcJGm_14pathfinder_mcp6server5testss_60test_read_symbol_scope_routes_to_surgeon_and_handles_success0B7_
FNDA:1,_RNCNvNtNtCsaBz7PZGcJGm_14pathfinder_mcp6server5testss_61test_search_codebase_filter_mode_comments_only_keeps_comments0B7_
FNDA:56,_RNvMNtCsaBz7PZGcJGm_14pathfinder_mcp6serverNtB2_16PathfinderServer12with_engines
FNDA:89,_RNvMNtCsaBz7PZGcJGm_14pathfinder_mcp6serverNtB2_16PathfinderServer16with_all_engines
FNDA:0,_RNvMNtCsaBz7PZGcJGm_14pathfinder_mcp6serverNtB2_16PathfinderServer3new
FNDA:1,_RNvXs1_NtCsaBz7PZGcJGm_14pathfinder_mcp6serverNtB5_16PathfinderServerNtNtNtCs6FjSQE8Y285_4rmcp7handler6server13ServerHandler8get_info
FNDA:9,_RNvNtNtCsaBz7PZGcJGm_14pathfinder_mcp6server5tests17make_search_match
FNDA:1,_RNvNtNtCsaBz7PZGcJGm_14pathfinder_mcp6server5testss_24test_read_file_not_found
FNDA:1,_RNvNtNtCsaBz7PZGcJGm_14pathfinder_mcp6server5testss_25test_get_repo_map_success
FNDA:1,_RNvNtNtCsaBz7PZGcJGm_14pathfinder_mcp6server5testss_25test_read_file_pagination
FNDA:1,_RNvNtNtCsaBz7PZGcJGm_14pathfinder_mcp6server5testss_26test_delete_file_not_found
FNDA:1,_RNvNtNtCsaBz7PZGcJGm_14pathfinder_mcp6server5testss_31test_get_repo_map_access_denied
FNDA:1,_RNvNtNtCsaBz7PZGcJGm_14pathfinder_mcp6server5testss_32test_write_file_full_replacement
FNDA:1,_RNvNtNtCsaBz7PZGcJGm_14pathfinder_mcp6server5testss_34test_search_codebase_group_by_file
FNDA:1,_RNvNtNtCsaBz7PZGcJGm_14pathfinder_mcp6server5testss_34test_write_file_search_and_replace
FNDA:1,_RNvNtNtCsaBz7PZGcJGm_14pathfinder_mcp6server5testss_35test_with_engines_uses_no_op_lawyer
FNDA:1,_RNvNtNtCsaBz7PZGcJGm_14pathfinder_mcp6server5testss_40test_delete_file_success_and_occ_failure
FNDA:1,_RNvNtNtCsaBz7PZGcJGm_14pathfinder_mcp6server5testss_40test_search_codebase_handles_scout_error
FNDA:1,_RNvNtNtCsaBz7PZGcJGm_14pathfinder_mcp6server5testss_41test_get_repo_map_visibility_not_degraded
FNDA:1,_RNvNtNtCsaBz7PZGcJGm_14pathfinder_mcp6server5testss_41test_write_file_invalid_params_both_modes
FNDA:1,_RNvNtNtCsaBz7PZGcJGm_14pathfinder_mcp6server5testss_43test_create_file_success_and_already_exists
FNDA:1,_RNvNtNtCsaBz7PZGcJGm_14pathfinder_mcp6server5testss_43test_write_file_invalid_params_neither_mode
FNDA:1,_RNvNtNtCsaBz7PZGcJGm_14pathfinder_mcp6server5testss_44test_read_symbol_scope_handles_surgeon_error
FNDA:1,_RNvNtNtCsaBz7PZGcJGm_14pathfinder_mcp6server5testss_45test_write_file_broadcasts_watched_file_event
FNDA:1,_RNvNtNtCsaBz7PZGcJGm_14pathfinder_mcp6server5testss_46test_create_file_broadcasts_watched_file_event
FNDA:1,_RNvNtNtCsaBz7PZGcJGm_14pathfinder_mcp6server5testss_46test_delete_file_broadcasts_watched_file_event
FNDA:1,_RNvNtNtCsaBz7PZGcJGm_14pathfinder_mcp6server5testss_50test_with_all_engines_constructs_functional_server
FNDA:1,_RNvNtNtCsaBz7PZGcJGm_14pathfinder_mcp6server5testss_51test_search_codebase_known_files_path_normalisation
FNDA:1,_RNvNtNtCsaBz7PZGcJGm_14pathfinder_mcp6server5testss_51test_search_codebase_known_files_suppresses_context
FNDA:1,_RNvNtNtCsaBz7PZGcJGm_14pathfinder_mcp6server5testss_52test_search_codebase_exclude_glob_forwarded_to_scout
FNDA:1,_RNvNtNtCsaBz7PZGcJGm_14pathfinder_mcp6server5testss_55test_search_codebase_filter_mode_all_returns_everything
FNDA:1,_RNvNtNtCsaBz7PZGcJGm_14pathfinder_mcp6server5testss_56test_search_codebase_routes_to_scout_and_handles_success
FNDA:1,_RNvNtNtCsaBz7PZGcJGm_14pathfinder_mcp6server5testss_57test_search_codebase_filter_mode_code_only_drops_comments
FNDA:1,_RNvNtNtCsaBz7PZGcJGm_14pathfinder_mcp6server5testss_60test_read_symbol_scope_routes_to_surgeon_and_handles_success
FNDA:1,_RNvNtNtCsaBz7PZGcJGm_14pathfinder_mcp6server5testss_61test_search_codebase_filter_mode_comments_only_keeps_comments
FNDA:0,_RNvMNtCs1vjPnMfgdgZ_14pathfinder_lib6serverNtB2_16PathfinderServer12with_engines
FNDA:0,_RNvMNtCs1vjPnMfgdgZ_14pathfinder_lib6serverNtB2_16PathfinderServer16with_all_engines
FNDA:0,_RNvMNtCs1vjPnMfgdgZ_14pathfinder_lib6serverNtB2_16PathfinderServer3new
FNDA:0,_RNvXs1_NtCs1vjPnMfgdgZ_14pathfinder_lib6serverNtB5_16PathfinderServerNtNtNtCs6FjSQE8Y285_4rmcp7handler6server13ServerHandler8get_info
FNDA:0,_RNCNvMs0_NtCs1vjPnMfgdgZ_14pathfinder_lib6serverNtB7_16PathfinderServer10write_file0B9_
FNDA:0,_RNCNvMs0_NtCs1vjPnMfgdgZ_14pathfinder_lib6serverNtB7_16PathfinderServer11create_file0B9_
FNDA:0,_RNCNvMs0_NtCs1vjPnMfgdgZ_14pathfinder_lib6serverNtB7_16PathfinderServer11delete_file0B9_
FNDA:0,_RNCNvMs0_NtCs1vjPnMfgdgZ_14pathfinder_lib6serverNtB7_16PathfinderServer12get_repo_map0B9_
FNDA:0,_RNCNvMs0_NtCs1vjPnMfgdgZ_14pathfinder_lib6serverNtB7_16PathfinderServer12insert_after0B9_
FNDA:0,_RNCNvMs0_NtCs1vjPnMfgdgZ_14pathfinder_lib6serverNtB7_16PathfinderServer12replace_body0B9_
FNDA:0,_RNCNvMs0_NtCs1vjPnMfgdgZ_14pathfinder_lib6serverNtB7_16PathfinderServer12replace_full0B9_
FNDA:0,_RNCNvMs0_NtCs1vjPnMfgdgZ_14pathfinder_lib6serverNtB7_16PathfinderServer13delete_symbol0B9_
FNDA:0,_RNCNvMs0_NtCs1vjPnMfgdgZ_14pathfinder_lib6serverNtB7_16PathfinderServer13insert_before0B9_
FNDA:0,_RNCNvMs0_NtCs1vjPnMfgdgZ_14pathfinder_lib6serverNtB7_16PathfinderServer13replace_batch0B9_
FNDA:0,_RNCNvMs0_NtCs1vjPnMfgdgZ_14pathfinder_lib6serverNtB7_16PathfinderServer13validate_only0B9_
FNDA:0,_RNCNvMs0_NtCs1vjPnMfgdgZ_14pathfinder_lib6serverNtB7_16PathfinderServer14analyze_impact0B9_
FNDA:0,_RNCNvMs0_NtCs1vjPnMfgdgZ_14pathfinder_lib6serverNtB7_16PathfinderServer14get_definition0B9_
FNDA:0,_RNCNvMs0_NtCs1vjPnMfgdgZ_14pathfinder_lib6serverNtB7_16PathfinderServer15search_codebase0B9_
FNDA:0,_RNCNvMs0_NtCs1vjPnMfgdgZ_14pathfinder_lib6serverNtB7_16PathfinderServer16read_source_file0B9_
FNDA:0,_RNCNvMs0_NtCs1vjPnMfgdgZ_14pathfinder_lib6serverNtB7_16PathfinderServer17read_symbol_scope0B9_
FNDA:0,_RNCNvMs0_NtCs1vjPnMfgdgZ_14pathfinder_lib6serverNtB7_16PathfinderServer22read_with_deep_context0B9_
FNDA:0,_RNCNvMs0_NtCs1vjPnMfgdgZ_14pathfinder_lib6serverNtB7_16PathfinderServer9read_file0B9_
FNF:107
FNH:101
DA:64,0
DA:65,0
DA:67,0
DA:68,0
DA:69,0
DA:73,0
DA:74,0
DA:75,0
DA:78,0
DA:80,0
DA:81,0
DA:85,0
DA:89,0
DA:90,0
DA:91,0
DA:92,0
DA:93,0
DA:94,0
DA:95,0
DA:97,0
DA:104,112
DA:105,112
DA:106,112
DA:107,112
DA:108,112
DA:109,112
DA:110,112
DA:111,112
DA:112,112
DA:113,112
DA:114,112
DA:115,112
DA:116,112
DA:117,112
DA:119,112
DA:123,178
DA:124,178
DA:125,178
DA:126,178
DA:127,178
DA:128,178
DA:129,178
DA:130,178
DA:131,178
DA:132,178
DA:133,178
DA:134,178
DA:135,178
DA:136,178
DA:137,178
DA:138,178
DA:139,178
DA:140,178
DA:154,18
DA:155,18
DA:166,6
DA:167,6
DA:177,4
DA:178,4
DA:188,0
DA:189,0
DA:199,34
DA:200,34
DA:210,0
DA:211,0
DA:221,0
DA:222,0
DA:232,0
DA:233,0
DA:243,16
DA:244,16
DA:254,20
DA:255,20
DA:265,2
DA:266,2
DA:276,2
DA:277,2
DA:287,8
DA:288,8
DA:298,10
DA:299,10
DA:309,6
DA:310,6
DA:320,8
DA:321,8
DA:331,6
DA:332,6
DA:342,10
DA:343,10
DA:351,2
DA:352,2
DA:353,2
DA:354,2
DA:371,2
DA:372,2
DA:373,2
DA:374,2
DA:375,2
DA:377,2
DA:378,2
DA:379,2
DA:380,2
DA:381,2
DA:382,2
DA:383,2
DA:384,2
DA:385,2
DA:386,2
DA:387,2
DA:388,2
DA:389,2
DA:390,2
DA:392,2
DA:393,2
DA:394,2
DA:395,2
DA:396,2
DA:397,2
DA:400,2
DA:401,2
DA:402,2
DA:403,2
DA:404,2
DA:405,2
DA:406,2
DA:407,2
DA:408,2
DA:409,2
DA:410,2
DA:412,2
DA:413,2
DA:414,2
DA:415,2
DA:416,2
DA:417,0
DA:419,2
DA:420,2
DA:421,2
DA:422,2
DA:423,2
DA:425,2
DA:426,2
DA:429,2
DA:432,2
DA:433,2
DA:434,2
DA:435,2
DA:437,2
DA:438,2
DA:439,2
DA:440,2
DA:441,2
DA:442,2
DA:443,2
DA:444,2
DA:445,2
DA:446,2
DA:447,2
DA:448,2
DA:449,2
DA:450,2
DA:452,2
DA:453,2
DA:454,2
DA:455,2
DA:456,2
DA:457,2
DA:460,2
DA:461,2
DA:462,2
DA:463,2
DA:464,2
DA:465,2
DA:466,2
DA:467,2
DA:468,2
DA:469,2
DA:470,2
DA:471,2
DA:472,2
DA:473,2
DA:474,2
DA:477,2
DA:478,2
DA:479,2
DA:480,2
DA:481,2
DA:483,2
DA:484,2
DA:485,2
DA:486,2
DA:487,2
DA:488,2
DA:489,2
DA:492,2
DA:493,2
DA:494,2
DA:495,2
DA:497,2
DA:498,0
DA:500,2
DA:501,2
DA:504,2
DA:505,2
DA:506,2
DA:507,2
DA:508,2
DA:509,2
DA:510,2
DA:511,2
DA:512,2
DA:513,2
DA:514,2
DA:515,2
DA:518,2
DA:519,2
DA:520,2
DA:521,2
DA:522,2
DA:523,2
DA:526,2
DA:527,2
DA:528,2
DA:529,2
DA:530,2
DA:532,2
DA:533,2
DA:536,2
DA:537,2
DA:538,2
DA:539,2
DA:542,2
DA:543,2
DA:544,2
DA:545,2
DA:546,2
DA:547,2
DA:548,2
DA:549,2
DA:550,2
DA:551,2
DA:553,0
DA:557,2
DA:558,2
DA:559,2
DA:560,2
DA:561,2
DA:562,2
DA:563,2
DA:564,2
DA:565,2
DA:566,2
DA:567,2
DA:568,2
DA:569,2
DA:570,2
DA:571,2
DA:572,2
DA:573,2
DA:574,2
DA:577,2
DA:578,2
DA:579,2
DA:580,2
DA:582,2
DA:583,2
DA:584,2
DA:585,2
DA:586,2
DA:587,2
DA:588,2
DA:589,2
DA:590,2
DA:591,2
DA:592,2
DA:593,2
DA:594,2
DA:595,2
DA:596,2
DA:597,2
DA:599,2
DA:600,2
DA:601,2
DA:602,2
DA:603,2
DA:604,2
DA:606,2
DA:607,2
DA:608,2
DA:609,2
DA:610,2
DA:611,2
DA:613,2
DA:614,2
DA:615,2
DA:616,2
DA:617,2
DA:619,2
DA:621,2
DA:623,2
DA:624,2
DA:625,2
DA:626,2
DA:627,2
DA:628,2
DA:629,2
DA:633,2
DA:634,2
DA:635,2
DA:636,2
DA:638,2
DA:639,2
DA:640,2
DA:641,2
DA:642,2
DA:645,2
DA:646,2
DA:647,2
DA:648,2
DA:650,2
DA:651,2
DA:653,2
DA:654,2
DA:655,2
DA:656,2
DA:657,2
DA:658,2
DA:660,2
DA:662,2
DA:664,2
DA:665,2
DA:666,2
DA:667,2
DA:668,2
DA:669,2
DA:673,18
DA:674,18
DA:675,18
DA:676,18
DA:677,18
DA:678,18
DA:679,18
DA:680,18
DA:681,18
DA:682,18
DA:683,18
DA:684,18
DA:685,18
DA:688,2
DA:689,2
DA:690,2
DA:691,2
DA:693,2
DA:694,2
DA:695,2
DA:696,2
DA:697,2
DA:698,2
DA:699,2
DA:700,2
DA:701,2
DA:702,2
DA:704,2
DA:708,2
DA:709,2
DA:710,2
DA:711,2
DA:712,2
DA:713,2
DA:714,2
DA:715,2
DA:716,2
DA:717,2
DA:718,2
DA:719,2
DA:720,2
DA:721,2
DA:723,2
DA:724,2
DA:726,2
DA:727,2
DA:728,2
DA:729,2
DA:730,2
DA:732,2
DA:733,2
DA:734,2
DA:735,2
DA:739,2
DA:740,2
DA:741,2
DA:743,2
DA:745,2
DA:746,2
DA:749,2
DA:750,2
DA:751,2
DA:752,2
DA:754,2
DA:755,2
DA:756,2
DA:757,2
DA:758,2
DA:759,2
DA:760,2
DA:761,2
DA:762,2
DA:763,2
DA:765,2
DA:766,2
DA:767,2
DA:768,2
DA:769,2
DA:770,2
DA:771,2
DA:772,2
DA:773,2
DA:774,2
DA:775,2
DA:776,2
DA:777,2
DA:778,2
DA:779,2
DA:781,2
DA:782,2
DA:784,2
DA:785,2
DA:786,2
DA:787,2
DA:788,2
DA:790,2
DA:791,2
DA:792,2
DA:793,2
DA:797,2
DA:798,2
DA:799,2
DA:800,2
DA:801,2
DA:804,2
DA:805,2
DA:806,2
DA:807,2
DA:809,2
DA:810,2
DA:811,2
DA:812,2
DA:813,2
DA:814,2
DA:815,2
DA:816,2
DA:817,2
DA:818,2
DA:820,2
DA:822,2
DA:823,2
DA:824,2
DA:825,2
DA:826,2
DA:831,2
DA:832,2
DA:834,2
DA:835,2
DA:836,2
DA:837,2
DA:838,2
DA:840,2
DA:841,2
DA:842,2
DA:843,2
DA:847,2
DA:848,2
DA:849,2
DA:854,2
DA:855,2
DA:856,2
DA:857,2
DA:858,2
DA:859,2
DA:860,2
DA:861,2
DA:862,2
DA:863,2
DA:864,2
DA:868,2
DA:869,2
DA:870,2
DA:871,2
DA:872,2
DA:875,2
DA:876,2
DA:877,2
DA:878,2
DA:879,2
DA:880,2
DA:881,2
DA:882,2
DA:885,2
DA:886,2
DA:887,2
DA:888,2
DA:889,2
DA:890,2
DA:891,2
DA:892,2
DA:893,0
DA:895,2
DA:896,2
DA:897,2
DA:898,2
DA:899,2
DA:900,2
DA:901,2
DA:904,2
DA:905,2
DA:906,2
DA:907,2
DA:908,2
DA:909,2
DA:910,2
DA:911,2
DA:912,2
DA:913,0
DA:915,2
DA:916,2
DA:917,2
DA:918,2
DA:919,2
DA:920,2
DA:921,2
DA:924,2
DA:925,2
DA:926,2
DA:927,2
DA:928,2
DA:929,2
DA:930,2
DA:931,2
DA:932,0
DA:934,2
DA:935,2
DA:936,2
DA:937,2
DA:938,2
DA:939,2
DA:940,2
DA:941,2
DA:946,2
DA:947,2
DA:948,2
DA:949,2
DA:950,2
DA:951,2
DA:952,2
DA:953,2
DA:954,2
DA:955,2
DA:956,2
DA:960,2
DA:961,20
DA:962,2
DA:963,2
DA:966,2
DA:967,2
DA:968,2
DA:969,2
DA:970,2
DA:971,2
DA:972,2
DA:973,2
DA:974,2
DA:975,2
DA:976,2
DA:977,2
DA:978,2
DA:979,2
DA:982,2
DA:983,2
DA:984,2
DA:985,2
DA:986,2
DA:987,2
DA:988,2
DA:989,2
DA:990,2
DA:991,2
DA:992,2
DA:993,2
DA:994,2
DA:995,2
DA:996,2
DA:997,0
DA:999,2
DA:1000,2
DA:1001,2
DA:1004,2
DA:1005,2
DA:1006,2
DA:1007,2
DA:1008,2
DA:1009,2
DA:1010,2
DA:1011,2
DA:1012,2
DA:1013,0
DA:1015,2
DA:1016,2
DA:1017,2
DA:1018,2
DA:1019,2
DA:1020,2
DA:1021,2
DA:1022,2
DA:1027,2
DA:1028,2
DA:1029,2
DA:1030,2
DA:1031,2
DA:1032,2
DA:1034,2
DA:1035,2
DA:1036,2
DA:1037,2
DA:1038,2
DA:1039,2
DA:1040,2
DA:1041,2
DA:1042,2
DA:1043,2
DA:1044,2
DA:1045,2
DA:1046,2
DA:1048,2
DA:1049,2
DA:1050,2
DA:1051,2
DA:1052,2
DA:1053,2
DA:1056,2
DA:1057,2
DA:1058,2
DA:1060,2
DA:1061,2
DA:1063,2
DA:1064,0
DA:1066,2
DA:1068,2
DA:1069,2
DA:1070,2
DA:1072,2
DA:1073,2
DA:1074,2
DA:1075,2
DA:1077,2
DA:1078,2
DA:1079,2
DA:1082,2
DA:1083,2
DA:1084,2
DA:1085,2
DA:1086,2
DA:1087,2
DA:1089,2
DA:1090,2
DA:1091,2
DA:1092,2
DA:1093,2
DA:1094,2
DA:1095,2
DA:1096,2
DA:1098,2
DA:1099,2
DA:1100,2
DA:1101,2
DA:1102,2
DA:1103,2
DA:1106,2
DA:1107,2
DA:1108,2
DA:1110,2
DA:1111,0
DA:1114,2
DA:1115,2
DA:1116,2
DA:1117,2
DA:1118,2
DA:1119,2
DA:1120,2
DA:1121,2
DA:1122,2
DA:1123,2
DA:1124,2
DA:1129,2
DA:1130,2
DA:1131,2
DA:1132,2
DA:1133,2
DA:1134,2
DA:1135,2
DA:1136,2
DA:1137,2
DA:1138,2
DA:1139,2
DA:1142,2
DA:1143,2
DA:1144,2
DA:1145,2
DA:1146,2
DA:1149,2
DA:1150,2
DA:1151,2
DA:1152,2
DA:1153,2
DA:1154,2
DA:1155,2
DA:1156,2
DA:1157,2
DA:1158,2
DA:1159,2
DA:1160,2
DA:1161,2
DA:1162,2
DA:1163,2
DA:1164,2
DA:1165,2
DA:1168,2
DA:1169,2
DA:1170,2
DA:1171,2
DA:1172,2
DA:1173,2
DA:1174,2
DA:1175,2
DA:1176,2
DA:1177,2
DA:1178,0
DA:1180,2
DA:1181,2
DA:1182,2
DA:1183,2
DA:1184,2
DA:1185,2
DA:1186,2
DA:1187,2
DA:1190,2
DA:1191,2
DA:1192,2
DA:1193,2
DA:1194,2
DA:1195,2
DA:1196,2
DA:1197,2
DA:1198,2
DA:1199,2
DA:1200,2
DA:1203,2
DA:1204,2
DA:1205,2
DA:1206,2
DA:1207,2
DA:1210,2
DA:1211,2
DA:1212,2
DA:1213,2
DA:1214,2
DA:1215,2
DA:1216,2
DA:1217,2
DA:1218,2
DA:1219,2
DA:1220,2
DA:1221,2
DA:1222,2
DA:1223,2
DA:1224,2
DA:1225,2
DA:1226,2
DA:1227,2
DA:1230,2
DA:1231,2
DA:1232,2
DA:1233,2
DA:1234,2
DA:1235,2
DA:1236,2
DA:1237,2
DA:1238,2
DA:1239,2
DA:1240,2
DA:1241,2
DA:1242,2
DA:1243,0
DA:1245,2
DA:1246,2
DA:1247,2
DA:1248,2
DA:1249,2
DA:1250,2
DA:1251,2
DA:1254,2
DA:1255,2
DA:1256,2
DA:1257,2
DA:1258,2
DA:1259,2
DA:1260,2
DA:1261,2
DA:1262,2
DA:1263,2
DA:1264,2
DA:1265,2
DA:1266,2
DA:1267,2
DA:1268,2
DA:1269,2
DA:1270,0
DA:1272,2
DA:1273,2
DA:1274,2
DA:1275,2
DA:1276,2
DA:1277,2
DA:1278,2
DA:1279,2
DA:1286,2
DA:1287,2
DA:1288,2
DA:1289,2
DA:1291,2
DA:1292,2
DA:1293,2
DA:1294,2
DA:1295,2
DA:1296,2
DA:1297,2
DA:1298,2
DA:1299,2
DA:1300,2
DA:1301,2
DA:1302,2
DA:1303,2
DA:1304,2
DA:1305,2
DA:1306,2
DA:1307,2
DA:1308,2
DA:1309,2
DA:1310,2
DA:1311,2
DA:1312,2
DA:1313,2
DA:1314,2
DA:1315,2
DA:1316,2
DA:1317,2
DA:1318,2
DA:1319,2
DA:1321,2
DA:1323,2
DA:1324,2
DA:1325,2
DA:1326,2
DA:1327,2
DA:1329,2
DA:1330,2
DA:1332,2
DA:1333,2
DA:1334,2
DA:1335,2
DA:1336,2
DA:1338,2
DA:1339,2
DA:1340,2
DA:1341,2
DA:1344,2
DA:1347,2
DA:1348,2
DA:1349,2
DA:1350,2
DA:1351,2
DA:1352,2
DA:1353,2
DA:1356,2
DA:1357,2
DA:1360,2
DA:1361,2
DA:1364,2
DA:1371,2
DA:1372,2
DA:1373,2
DA:1374,4
DA:1375,2
DA:1376,2
DA:1377,2
DA:1378,2
DA:1379,2
DA:1380,2
DA:1381,2
DA:1382,2
DA:1383,2
DA:1387,2
DA:1388,2
DA:1389,2
DA:1390,2
DA:1392,2
DA:1393,2
DA:1394,2
DA:1395,2
DA:1396,2
DA:1397,2
DA:1398,2
DA:1399,2
DA:1400,2
DA:1401,2
DA:1402,2
DA:1403,2
DA:1404,2
DA:1405,2
DA:1406,2
DA:1407,2
DA:1409,2
DA:1410,2
DA:1411,2
DA:1412,2
DA:1413,2
DA:1414,2
DA:1416,2
DA:1417,2
DA:1420,2
DA:1421,2
DA:1422,2
DA:1423,2
DA:1424,2
DA:1426,2
DA:1427,2
DA:1428,2
DA:1429,2
DA:1432,2
DA:1433,2
DA:1434,2
DA:1437,2
DA:1438,2
DA:1439,2
DA:1444,2
DA:1445,2
DA:1446,2
DA:1447,2
DA:1449,2
DA:1450,2
DA:1451,2
DA:1452,2
DA:1453,2
DA:1454,2
DA:1455,2
DA:1456,2
DA:1457,2
DA:1458,2
DA:1459,2
DA:1460,2
DA:1461,2
DA:1462,2
DA:1463,2
DA:1464,2
DA:1465,2
DA:1466,2
DA:1467,2
DA:1468,2
DA:1469,2
DA:1470,2
DA:1471,2
DA:1472,2
DA:1473,2
DA:1474,2
DA:1475,2
DA:1476,2
DA:1477,2
DA:1478,2
DA:1479,2
DA:1480,2
DA:1481,2
DA:1482,2
DA:1483,2
DA:1484,2
DA:1485,2
DA:1486,2
DA:1487,2
DA:1488,2
DA:1489,2
DA:1490,2
DA:1492,2
DA:1494,2
DA:1495,2
DA:1496,2
DA:1497,2
DA:1498,2
DA:1500,2
DA:1501,2
DA:1503,2
DA:1504,2
DA:1505,2
DA:1506,2
DA:1507,2
DA:1508,2
DA:1510,2
DA:1511,2
DA:1512,2
DA:1513,2
DA:1516,2
DA:1517,2
DA:1518,2
DA:1519,2
DA:1521,2
DA:1522,2
DA:1523,2
DA:1524,2
DA:1527,2
DA:1528,2
DA:1532,2
DA:1534,4
DA:1535,2
DA:1536,2
DA:1538,2
DA:1539,2
DA:1540,2
DA:1541,2
DA:1545,2
DA:1546,2
DA:1547,2
DA:1548,2
DA:1550,2
DA:1551,2
DA:1552,2
DA:1553,2
DA:1554,2
DA:1555,2
DA:1557,2
DA:1558,2
DA:1559,2
DA:1560,2
DA:1561,2
DA:1562,2
DA:1565,2
DA:1566,2
DA:1567,2
DA:1568,2
DA:1569,2
DA:1571,2
DA:1572,2
DA:1573,2
DA:1574,2
DA:1576,2
DA:1577,2
DA:1578,2
DA:1579,2
DA:1580,2
DA:1581,2
DA:1582,2
DA:1587,2
DA:1588,2
DA:1589,2
DA:1590,2
DA:1591,2
DA:1593,2
DA:1594,2
DA:1595,2
DA:1596,2
DA:1597,2
DA:1598,2
DA:1599,2
DA:1603,2
DA:1604,2
DA:1605,2
DA:1608,2
DA:1609,2
DA:1610,2
DA:1611,2
DA:1612,2
DA:1615,2
DA:1616,2
DA:1618,2
DA:1619,2
DA:1620,2
DA:1621,2
DA:1622,2
DA:1623,2
DA:1624,2
DA:1625,2
DA:1626,2
DA:1627,2
DA:1628,2
DA:1629,2
DA:1631,2
DA:1632,2
DA:1633,2
DA:1634,2
DA:1635,2
DA:1636,2
DA:1640,2
DA:1641,2
DA:1642,2
DA:1643,2
DA:1645,2
DA:1646,2
DA:1651,2
DA:1652,2
DA:1653,2
DA:1654,2
DA:1655,2
DA:1657,2
DA:1659,2
DA:1660,2
DA:1661,2
DA:1662,2
DA:1663,2
DA:1664,2
DA:1665,2
DA:1668,2
DA:1669,2
DA:1670,2
DA:1671,2
DA:1672,2
DA:1673,2
DA:1674,2
DA:1677,2
DA:1680,2
DA:1681,2
DA:1684,2
DA:1685,2
DA:1686,2
DA:1687,2
DA:1688,2
DA:1690,2
DA:1693,2
DA:1694,2
DA:1696,2
DA:1697,2
DA:1698,2
DA:1699,2
DA:1700,2
DA:1701,2
DA:1702,2
DA:1705,2
DA:1706,2
DA:1707,2
DA:1708,2
DA:1709,2
DA:1710,2
DA:1711,2
DA:1714,2
DA:1717,2
DA:1718,2
DA:1721,2
DA:1722,2
DA:1723,2
DA:1724,2
DA:1725,2
DA:1727,2
DA:1728,2
DA:1729,2
DA:1730,2
DA:1731,2
DA:1732,2
DA:1733,2
DA:1736,2
DA:1737,2
DA:1738,2
DA:1739,2
DA:1740,2
DA:1741,2
DA:1742,0
DA:1744,2
DA:1745,2
DA:1746,2
DA:1747,2
DA:1748,2
DA:1749,2
DA:1750,2
DA:1751,2
DA:1754,2
DA:1755,2
DA:1756,2
DA:1757,2
DA:1758,2
DA:1760,2
DA:1761,2
DA:1762,2
DA:1763,2
DA:1764,2
DA:1765,2
DA:1766,2
DA:1769,2
DA:1770,2
DA:1771,2
DA:1772,2
DA:1773,2
DA:1774,2
DA:1775,2
DA:1776,0
DA:1778,2
DA:1779,2
DA:1780,2
DA:1781,2
DA:1782,2
DA:1783,2
DA:1784,2
DA:1785,2
DA:1788,2
DA:1789,2
DA:1790,2
DA:1791,2
DA:1792,2
DA:1795,2
DA:1796,2
DA:1797,2
DA:1799,2
DA:1801,2
DA:1802,2
DA:1803,2
DA:1804,2
DA:1805,2
DA:1806,2
DA:1807,2
DA:1810,2
DA:1811,2
DA:1812,2
DA:1813,2
DA:1814,2
DA:1815,2
DA:1816,2
DA:1817,2
DA:1820,2
DA:1821,2
DA:1824,2
DA:1825,2
DA:1828,2
DA:1829,2
DA:1830,2
DA:1831,2
DA:1832,2
DA:1834,2
DA:1836,2
DA:1837,2
DA:1838,2
DA:1839,2
DA:1840,2
DA:1841,2
DA:1842,2
DA:1846,2
DA:1847,2
DA:1848,2
DA:1849,2
DA:1850,2
DA:1851,2
DA:1852,2
DA:1853,2
DA:1854,2
DA:1855,2
DA:1856,2
DA:1857,2
DA:1858,2
DA:1861,2
DA:1862,2
DA:1863,2
DA:1864,2
DA:1865,2
DA:1867,2
DA:1869,2
DA:1870,2
DA:1871,2
DA:1872,2
DA:1873,2
DA:1874,2
DA:1875,2
DA:1879,2
DA:1880,2
DA:1881,2
DA:1882,2
DA:1883,2
DA:1884,2
DA:1885,2
DA:1886,2
DA:1887,2
DA:1888,2
BRF:0
BRH:0
LF:1376
LH:1331
end_of_record
SF:/home/irahardianto/works/projects/pathfinder/crates/pathfinder/src/server/helpers.rs
FN:137,_RNvNtNtCsb2XMseC3SKs_14pathfinder_lib6server7helpers18language_from_path
FN:165,_RNvNtNtCsb2XMseC3SKs_14pathfinder_lib6server7helpers19parse_semantic_path
FN:115,_RNvNtNtCsb2XMseC3SKs_14pathfinder_lib6server7helpers20check_sandbox_access
FN:178,_RNvNtNtCsb2XMseC3SKs_14pathfinder_lib6server7helpers21require_symbol_target
FN:17,_RNvNtNtCsb2XMseC3SKs_14pathfinder_lib6server7helpers24pathfinder_to_error_data
FN:78,_RNvNtNtCsb2XMseC3SKs_14pathfinder_lib6server7helpers30treesitter_error_to_error_data
FN:92,_RNvNtNtCsb2XMseC3SKs_14pathfinder_lib6server7helpers9check_occ
FN:264,_RNvNtNtNtCsb2XMseC3SKs_14pathfinder_lib6server7helpers5testss_52test_error_code_mapping_access_denied_to_custom_code
FN:202,_RNvNtNtNtCsb2XMseC3SKs_14pathfinder_lib6server7helpers5testss_55test_error_code_mapping_client_errors_to_invalid_params
FN:275,_RNvNtNtNtCsb2XMseC3SKs_14pathfinder_lib6server7helpers5testss_55test_error_code_mapping_version_mismatch_to_custom_code
FN:287,_RNvNtNtNtCsb2XMseC3SKs_14pathfinder_lib6server7helpers5testss_56test_error_code_mapping_validation_failed_to_custom_code
FN:298,_RNvNtNtNtCsb2XMseC3SKs_14pathfinder_lib6server7helpers5testss_57test_error_code_mapping_internal_errors_to_internal_error
FN:83,_RINvNtNtCsb2XMseC3SKs_14pathfinder_lib6server7helpers13io_error_dataNtNtCslNYArtu3iFV_5alloc6string6StringEB6_
FN:83,_RINvNtNtCsb2XMseC3SKs_14pathfinder_lib6server7helpers13io_error_dataReEB6_
FN:138,_RNCNvNtNtCsb2XMseC3SKs_14pathfinder_lib6server7helpers18language_from_path0B7_
FN:150,_RNCNvNtNtCsb2XMseC3SKs_14pathfinder_lib6server7helpers18language_from_paths_0B7_
FN:166,_RNCNvNtNtCsb2XMseC3SKs_14pathfinder_lib6server7helpers19parse_semantic_path0B7_
FN:137,_RNvNtNtCs7Fw43FPylcK_14pathfinder_mcp6server7helpers18language_from_path
FN:165,_RNvNtNtCs7Fw43FPylcK_14pathfinder_mcp6server7helpers19parse_semantic_path
FN:115,_RNvNtNtCs7Fw43FPylcK_14pathfinder_mcp6server7helpers20check_sandbox_access
FN:178,_RNvNtNtCs7Fw43FPylcK_14pathfinder_mcp6server7helpers21require_symbol_target
FN:17,_RNvNtNtCs7Fw43FPylcK_14pathfinder_mcp6server7helpers24pathfinder_to_error_data
FN:78,_RNvNtNtCs7Fw43FPylcK_14pathfinder_mcp6server7helpers30treesitter_error_to_error_data
FN:92,_RNvNtNtCs7Fw43FPylcK_14pathfinder_mcp6server7helpers9check_occ
FN:83,_RINvNtNtCs7Fw43FPylcK_14pathfinder_mcp6server7helpers13io_error_dataNtNtCslNYArtu3iFV_5alloc6string6StringEB6_
FN:83,_RINvNtNtCs7Fw43FPylcK_14pathfinder_mcp6server7helpers13io_error_dataReEB6_
FN:138,_RNCNvNtNtCs7Fw43FPylcK_14pathfinder_mcp6server7helpers18language_from_path0B7_
FN:150,_RNCNvNtNtCs7Fw43FPylcK_14pathfinder_mcp6server7helpers18language_from_paths_0B7_
FN:166,_RNCNvNtNtCs7Fw43FPylcK_14pathfinder_mcp6server7helpers19parse_semantic_path0B7_
FN:83,_RINvNtNtCsaBz7PZGcJGm_14pathfinder_mcp6server7helpers13io_error_dataNtNtCslNYArtu3iFV_5alloc6string6StringEB6_
FN:83,_RINvNtNtCsaBz7PZGcJGm_14pathfinder_mcp6server7helpers13io_error_dataReEB6_
FN:138,_RNCNvNtNtCsaBz7PZGcJGm_14pathfinder_mcp6server7helpers18language_from_path0B7_
FN:150,_RNCNvNtNtCsaBz7PZGcJGm_14pathfinder_mcp6server7helpers18language_from_paths_0B7_
FN:166,_RNCNvNtNtCsaBz7PZGcJGm_14pathfinder_mcp6server7helpers19parse_semantic_path0B7_
FN:137,_RNvNtNtCsaBz7PZGcJGm_14pathfinder_mcp6server7helpers18language_from_path
FN:165,_RNvNtNtCsaBz7PZGcJGm_14pathfinder_mcp6server7helpers19parse_semantic_path
FN:115,_RNvNtNtCsaBz7PZGcJGm_14pathfinder_mcp6server7helpers20check_sandbox_access
FN:178,_RNvNtNtCsaBz7PZGcJGm_14pathfinder_mcp6server7helpers21require_symbol_target
FN:17,_RNvNtNtCsaBz7PZGcJGm_14pathfinder_mcp6server7helpers24pathfinder_to_error_data
FN:78,_RNvNtNtCsaBz7PZGcJGm_14pathfinder_mcp6server7helpers30treesitter_error_to_error_data
FN:92,_RNvNtNtCsaBz7PZGcJGm_14pathfinder_mcp6server7helpers9check_occ
FN:264,_RNvNtNtNtCsaBz7PZGcJGm_14pathfinder_mcp6server7helpers5testss_52test_error_code_mapping_access_denied_to_custom_code
FN:202,_RNvNtNtNtCsaBz7PZGcJGm_14pathfinder_mcp6server7helpers5testss_55test_error_code_mapping_client_errors_to_invalid_params
FN:275,_RNvNtNtNtCsaBz7PZGcJGm_14pathfinder_mcp6server7helpers5testss_55test_error_code_mapping_version_mismatch_to_custom_code
FN:287,_RNvNtNtNtCsaBz7PZGcJGm_14pathfinder_mcp6server7helpers5testss_56test_error_code_mapping_validation_failed_to_custom_code
FN:298,_RNvNtNtNtCsaBz7PZGcJGm_14pathfinder_mcp6server7helpers5testss_57test_error_code_mapping_internal_errors_to_internal_error
FN:137,_RNvNtNtCs1vjPnMfgdgZ_14pathfinder_lib6server7helpers18language_from_path
FN:165,_RNvNtNtCs1vjPnMfgdgZ_14pathfinder_lib6server7helpers19parse_semantic_path
FN:115,_RNvNtNtCs1vjPnMfgdgZ_14pathfinder_lib6server7helpers20check_sandbox_access
FN:178,_RNvNtNtCs1vjPnMfgdgZ_14pathfinder_lib6server7helpers21require_symbol_target
FN:17,_RNvNtNtCs1vjPnMfgdgZ_14pathfinder_lib6server7helpers24pathfinder_to_error_data
FN:78,_RNvNtNtCs1vjPnMfgdgZ_14pathfinder_lib6server7helpers30treesitter_error_to_error_data
FN:92,_RNvNtNtCs1vjPnMfgdgZ_14pathfinder_lib6server7helpers9check_occ
FN:83,_RINvNtNtCs1vjPnMfgdgZ_14pathfinder_lib6server7helpers13io_error_dataNtNtCslNYArtu3iFV_5alloc6string6StringEB6_
FN:83,_RINvNtNtCs1vjPnMfgdgZ_14pathfinder_lib6server7helpers13io_error_dataReEB6_
FN:138,_RNCNvNtNtCs1vjPnMfgdgZ_14pathfinder_lib6server7helpers18language_from_path0B7_
FN:150,_RNCNvNtNtCs1vjPnMfgdgZ_14pathfinder_lib6server7helpers18language_from_paths_0B7_
FN:166,_RNCNvNtNtCs1vjPnMfgdgZ_14pathfinder_lib6server7helpers19parse_semantic_path0B7_
FNDA:2,_RNvNtNtCsb2XMseC3SKs_14pathfinder_lib6server7helpers18language_from_path
FNDA:48,_RNvNtNtCsb2XMseC3SKs_14pathfinder_lib6server7helpers19parse_semantic_path
FNDA:46,_RNvNtNtCsb2XMseC3SKs_14pathfinder_lib6server7helpers20check_sandbox_access
FNDA:32,_RNvNtNtCsb2XMseC3SKs_14pathfinder_lib6server7helpers21require_symbol_target
FNDA:54,_RNvNtNtCsb2XMseC3SKs_14pathfinder_lib6server7helpers24pathfinder_to_error_data
FNDA:2,_RNvNtNtCsb2XMseC3SKs_14pathfinder_lib6server7helpers30treesitter_error_to_error_data
FNDA:38,_RNvNtNtCsb2XMseC3SKs_14pathfinder_lib6server7helpers9check_occ
FNDA:1,_RNvNtNtNtCsb2XMseC3SKs_14pathfinder_lib6server7helpers5testss_52test_error_code_mapping_access_denied_to_custom_code
FNDA:1,_RNvNtNtNtCsb2XMseC3SKs_14pathfinder_lib6server7helpers5testss_55test_error_code_mapping_client_errors_to_invalid_params
FNDA:1,_RNvNtNtNtCsb2XMseC3SKs_14pathfinder_lib6server7helpers5testss_55test_error_code_mapping_version_mismatch_to_custom_code
FNDA:1,_RNvNtNtNtCsb2XMseC3SKs_14pathfinder_lib6server7helpers5testss_56test_error_code_mapping_validation_failed_to_custom_code
FNDA:1,_RNvNtNtNtCsb2XMseC3SKs_14pathfinder_lib6server7helpers5testss_57test_error_code_mapping_internal_errors_to_internal_error
FNDA:2,_RINvNtNtCsb2XMseC3SKs_14pathfinder_lib6server7helpers13io_error_dataNtNtCslNYArtu3iFV_5alloc6string6StringEB6_
FNDA:2,_RINvNtNtCsb2XMseC3SKs_14pathfinder_lib6server7helpers13io_error_dataReEB6_
FNDA:2,_RNCNvNtNtCsb2XMseC3SKs_14pathfinder_lib6server7helpers18language_from_path0B7_
FNDA:0,_RNCNvNtNtCsb2XMseC3SKs_14pathfinder_lib6server7helpers18language_from_paths_0B7_
FNDA:1,_RNCNvNtNtCsb2XMseC3SKs_14pathfinder_lib6server7helpers19parse_semantic_path0B7_
FNDA:0,_RNvNtNtCs7Fw43FPylcK_14pathfinder_mcp6server7helpers18language_from_path
FNDA:0,_RNvNtNtCs7Fw43FPylcK_14pathfinder_mcp6server7helpers19parse_semantic_path
FNDA:0,_RNvNtNtCs7Fw43FPylcK_14pathfinder_mcp6server7helpers20check_sandbox_access
FNDA:0,_RNvNtNtCs7Fw43FPylcK_14pathfinder_mcp6server7helpers21require_symbol_target
FNDA:0,_RNvNtNtCs7Fw43FPylcK_14pathfinder_mcp6server7helpers24pathfinder_to_error_data
FNDA:0,_RNvNtNtCs7Fw43FPylcK_14pathfinder_mcp6server7helpers30treesitter_error_to_error_data
FNDA:0,_RNvNtNtCs7Fw43FPylcK_14pathfinder_mcp6server7helpers9check_occ
FNDA:0,_RINvNtNtCs7Fw43FPylcK_14pathfinder_mcp6server7helpers13io_error_dataNtNtCslNYArtu3iFV_5alloc6string6StringEB6_
FNDA:0,_RINvNtNtCs7Fw43FPylcK_14pathfinder_mcp6server7helpers13io_error_dataReEB6_
FNDA:0,_RNCNvNtNtCs7Fw43FPylcK_14pathfinder_mcp6server7helpers18language_from_path0B7_
FNDA:0,_RNCNvNtNtCs7Fw43FPylcK_14pathfinder_mcp6server7helpers18language_from_paths_0B7_
FNDA:0,_RNCNvNtNtCs7Fw43FPylcK_14pathfinder_mcp6server7helpers19parse_semantic_path0B7_
FNDA:2,_RINvNtNtCsaBz7PZGcJGm_14pathfinder_mcp6server7helpers13io_error_dataNtNtCslNYArtu3iFV_5alloc6string6StringEB6_
FNDA:2,_RINvNtNtCsaBz7PZGcJGm_14pathfinder_mcp6server7helpers13io_error_dataReEB6_
FNDA:2,_RNCNvNtNtCsaBz7PZGcJGm_14pathfinder_mcp6server7helpers18language_from_path0B7_
FNDA:0,_RNCNvNtNtCsaBz7PZGcJGm_14pathfinder_mcp6server7helpers18language_from_paths_0B7_
FNDA:1,_RNCNvNtNtCsaBz7PZGcJGm_14pathfinder_mcp6server7helpers19parse_semantic_path0B7_
FNDA:2,_RNvNtNtCsaBz7PZGcJGm_14pathfinder_mcp6server7helpers18language_from_path
FNDA:48,_RNvNtNtCsaBz7PZGcJGm_14pathfinder_mcp6server7helpers19parse_semantic_path
FNDA:46,_RNvNtNtCsaBz7PZGcJGm_14pathfinder_mcp6server7helpers20check_sandbox_access
FNDA:32,_RNvNtNtCsaBz7PZGcJGm_14pathfinder_mcp6server7helpers21require_symbol_target
FNDA:54,_RNvNtNtCsaBz7PZGcJGm_14pathfinder_mcp6server7helpers24pathfinder_to_error_data
FNDA:2,_RNvNtNtCsaBz7PZGcJGm_14pathfinder_mcp6server7helpers30treesitter_error_to_error_data
FNDA:38,_RNvNtNtCsaBz7PZGcJGm_14pathfinder_mcp6server7helpers9check_occ
FNDA:1,_RNvNtNtNtCsaBz7PZGcJGm_14pathfinder_mcp6server7helpers5testss_52test_error_code_mapping_access_denied_to_custom_code
FNDA:1,_RNvNtNtNtCsaBz7PZGcJGm_14pathfinder_mcp6server7helpers5testss_55test_error_code_mapping_client_errors_to_invalid_params
FNDA:1,_RNvNtNtNtCsaBz7PZGcJGm_14pathfinder_mcp6server7helpers5testss_55test_error_code_mapping_version_mismatch_to_custom_code
FNDA:1,_RNvNtNtNtCsaBz7PZGcJGm_14pathfinder_mcp6server7helpers5testss_56test_error_code_mapping_validation_failed_to_custom_code
FNDA:1,_RNvNtNtNtCsaBz7PZGcJGm_14pathfinder_mcp6server7helpers5testss_57test_error_code_mapping_internal_errors_to_internal_error
FNDA:0,_RNvNtNtCs1vjPnMfgdgZ_14pathfinder_lib6server7helpers18language_from_path
FNDA:0,_RNvNtNtCs1vjPnMfgdgZ_14pathfinder_lib6server7helpers19parse_semantic_path
FNDA:0,_RNvNtNtCs1vjPnMfgdgZ_14pathfinder_lib6server7helpers20check_sandbox_access
FNDA:0,_RNvNtNtCs1vjPnMfgdgZ_14pathfinder_lib6server7helpers21require_symbol_target
FNDA:0,_RNvNtNtCs1vjPnMfgdgZ_14pathfinder_lib6server7helpers24pathfinder_to_error_data
FNDA:0,_RNvNtNtCs1vjPnMfgdgZ_14pathfinder_lib6server7helpers30treesitter_error_to_error_data
FNDA:0,_RNvNtNtCs1vjPnMfgdgZ_14pathfinder_lib6server7helpers9check_occ
FNDA:0,_RINvNtNtCs1vjPnMfgdgZ_14pathfinder_lib6server7helpers13io_error_dataNtNtCslNYArtu3iFV_5alloc6string6StringEB6_
FNDA:0,_RINvNtNtCs1vjPnMfgdgZ_14pathfinder_lib6server7helpers13io_error_dataReEB6_
FNDA:0,_RNCNvNtNtCs1vjPnMfgdgZ_14pathfinder_lib6server7helpers18language_from_path0B7_
FNDA:0,_RNCNvNtNtCs1vjPnMfgdgZ_14pathfinder_lib6server7helpers18language_from_paths_0B7_
FNDA:0,_RNCNvNtNtCs1vjPnMfgdgZ_14pathfinder_lib6server7helpers19parse_semantic_path0B7_
FNF:16
FNH:15
DA:17,108
DA:18,108
DA:19,108
DA:20,0
DA:21,0
DA:23,0
DA:26,0
DA:37,108
DA:50,60
DA:54,14
DA:57,12
DA:60,6
DA:69,16
DA:73,108
DA:74,108
DA:78,4
DA:79,4
DA:80,4
DA:83,8
DA:84,8
DA:85,8
DA:92,76
DA:93,76
DA:94,76
DA:95,76
DA:96,76
DA:97,76
DA:98,76
DA:99,6
DA:100,6
DA:101,6
DA:102,6
DA:103,6
DA:104,6
DA:105,6
DA:106,70
DA:107,70
DA:108,76
DA:115,92
DA:116,92
DA:117,92
DA:118,92
DA:119,92
DA:120,92
DA:121,92
DA:122,4
DA:128,4
DA:129,88
DA:130,88
DA:131,92
DA:137,4
DA:138,4
DA:139,4
DA:140,4
DA:141,4
DA:142,4
DA:143,4
DA:144,4
DA:145,4
DA:146,0
DA:147,0
DA:148,0
DA:149,0
DA:150,0
DA:152,0
DA:154,0
DA:156,4
DA:157,4
DA:165,96
DA:166,96
DA:167,2
DA:168,2
DA:169,2
DA:170,2
DA:171,2
DA:172,96
DA:178,64
DA:179,64
DA:180,64
DA:181,64
DA:182,64
DA:183,4
DA:184,4
DA:185,4
DA:186,4
DA:187,4
DA:188,4
DA:189,4
DA:190,60
DA:191,60
DA:192,64
DA:202,2
DA:204,2
DA:205,2
DA:206,2
DA:207,2
DA:208,2
DA:209,2
DA:210,2
DA:211,2
DA:212,2
DA:213,2
DA:214,2
DA:215,2
DA:216,2
DA:217,2
DA:218,2
DA:219,2
DA:220,2
DA:221,2
DA:222,2
DA:223,2
DA:224,2
DA:225,2
DA:226,2
DA:227,2
DA:228,2
DA:229,2
DA:230,2
DA:231,2
DA:232,2
DA:233,2
DA:234,2
DA:235,2
DA:236,2
DA:237,2
DA:238,2
DA:239,2
DA:240,2
DA:241,2
DA:242,2
DA:243,2
DA:244,2
DA:245,2
DA:246,2
DA:247,2
DA:248,2
DA:249,2
DA:252,22
DA:253,22
DA:254,22
DA:258,0
DA:261,2
DA:264,2
DA:265,2
DA:266,2
DA:267,2
DA:268,2
DA:270,2
DA:271,2
DA:272,2
DA:275,2
DA:276,2
DA:277,2
DA:278,2
DA:279,2
DA:280,2
DA:282,2
DA:283,2
DA:284,2
DA:287,2
DA:288,2
DA:289,2
DA:290,2
DA:291,2
DA:293,2
DA:294,2
DA:295,2
DA:298,2
DA:299,2
DA:300,2
DA:301,2
DA:302,2
DA:303,2
DA:304,2
DA:305,2
DA:306,2
DA:307,2
DA:308,2
DA:309,2
DA:310,2
DA:311,2
DA:312,2
DA:313,2
DA:316,10
DA:317,10
DA:318,10
DA:322,0
DA:325,2
BRF:0
BRH:0
LF:192
LH:178
end_of_record
SF:/home/irahardianto/works/projects/pathfinder/crates/pathfinder/src/server/tools/diagnostics.rs
FN:139,_RNvNtNtNtNtCsb2XMseC3SKs_14pathfinder_lib6server5tools11diagnostics5tests10make_error
FN:150,_RNvNtNtNtNtCsb2XMseC3SKs_14pathfinder_lib6server5tools11diagnostics5tests12make_warning
FN:161,_RNvNtNtNtNtCsb2XMseC3SKs_14pathfinder_lib6server5tools11diagnostics5tests13make_error_at
FN:181,_RNvNtNtNtNtCsb2XMseC3SKs_14pathfinder_lib6server5tools11diagnostics5testss_19test_diff_no_change
FN:234,_RNvNtNtNtNtCsb2XMseC3SKs_14pathfinder_lib6server5tools11diagnostics5testss_27test_diff_multiset_counting
FN:173,_RNvNtNtNtNtCsb2XMseC3SKs_14pathfinder_lib6server5tools11diagnostics5testss_28test_diff_empty_pre_and_post
FN:196,_RNvNtNtNtNtCsb2XMseC3SKs_14pathfinder_lib6server5tools11diagnostics5testss_28test_diff_new_error_detected
FN:218,_RNvNtNtNtNtCsb2XMseC3SKs_14pathfinder_lib6server5tools11diagnostics5testss_30test_diff_excludes_line_column
FN:248,_RNvNtNtNtNtCsb2XMseC3SKs_14pathfinder_lib6server5tools11diagnostics5testss_32test_diff_warning_does_not_block
FN:207,_RNvNtNtNtNtCsb2XMseC3SKs_14pathfinder_lib6server5tools11diagnostics5testss_33test_diff_resolved_error_detected
FN:258,_RNvNtNtNtNtCsb2XMseC3SKs_14pathfinder_lib6server5tools11diagnostics5testss_39test_diff_mixed_introduced_and_resolved
FN:27,_RNvMNtNtNtCsb2XMseC3SKs_14pathfinder_lib6server5tools11diagnosticsNtB2_14DiagnosticDiff14has_new_errors
FN:67,_RNvNtNtNtCsb2XMseC3SKs_14pathfinder_lib6server5tools11diagnostics12build_counts
FN:106,_RNvNtNtNtCsb2XMseC3SKs_14pathfinder_lib6server5tools11diagnostics16collect_resolved
FN:37,_RNvNtNtNtCsb2XMseC3SKs_14pathfinder_lib6server5tools11diagnostics16diff_diagnostics
FN:79,_RNvNtNtNtCsb2XMseC3SKs_14pathfinder_lib6server5tools11diagnostics18collect_introduced
FN:57,_RNvNtNtNtCsb2XMseC3SKs_14pathfinder_lib6server5tools11diagnostics8diag_key
FN:27,_RNvMNtNtNtCs7Fw43FPylcK_14pathfinder_mcp6server5tools11diagnosticsNtB2_14DiagnosticDiff14has_new_errors
FN:67,_RNvNtNtNtCs7Fw43FPylcK_14pathfinder_mcp6server5tools11diagnostics12build_counts
FN:106,_RNvNtNtNtCs7Fw43FPylcK_14pathfinder_mcp6server5tools11diagnostics16collect_resolved
FN:37,_RNvNtNtNtCs7Fw43FPylcK_14pathfinder_mcp6server5tools11diagnostics16diff_diagnostics
FN:79,_RNvNtNtNtCs7Fw43FPylcK_14pathfinder_mcp6server5tools11diagnostics18collect_introduced
FN:57,_RNvNtNtNtCs7Fw43FPylcK_14pathfinder_mcp6server5tools11diagnostics8diag_key
FN:27,_RNvMNtNtNtCsaBz7PZGcJGm_14pathfinder_mcp6server5tools11diagnosticsNtB2_14DiagnosticDiff14has_new_errors
FN:67,_RNvNtNtNtCsaBz7PZGcJGm_14pathfinder_mcp6server5tools11diagnostics12build_counts
FN:106,_RNvNtNtNtCsaBz7PZGcJGm_14pathfinder_mcp6server5tools11diagnostics16collect_resolved
FN:37,_RNvNtNtNtCsaBz7PZGcJGm_14pathfinder_mcp6server5tools11diagnostics16diff_diagnostics
FN:79,_RNvNtNtNtCsaBz7PZGcJGm_14pathfinder_mcp6server5tools11diagnostics18collect_introduced
FN:57,_RNvNtNtNtCsaBz7PZGcJGm_14pathfinder_mcp6server5tools11diagnostics8diag_key
FN:139,_RNvNtNtNtNtCsaBz7PZGcJGm_14pathfinder_mcp6server5tools11diagnostics5tests10make_error
FN:150,_RNvNtNtNtNtCsaBz7PZGcJGm_14pathfinder_mcp6server5tools11diagnostics5tests12make_warning
FN:161,_RNvNtNtNtNtCsaBz7PZGcJGm_14pathfinder_mcp6server5tools11diagnostics5tests13make_error_at
FN:181,_RNvNtNtNtNtCsaBz7PZGcJGm_14pathfinder_mcp6server5tools11diagnostics5testss_19test_diff_no_change
FN:234,_RNvNtNtNtNtCsaBz7PZGcJGm_14pathfinder_mcp6server5tools11diagnostics5testss_27test_diff_multiset_counting
FN:173,_RNvNtNtNtNtCsaBz7PZGcJGm_14pathfinder_mcp6server5tools11diagnostics5testss_28test_diff_empty_pre_and_post
FN:196,_RNvNtNtNtNtCsaBz7PZGcJGm_14pathfinder_mcp6server5tools11diagnostics5testss_28test_diff_new_error_detected
FN:218,_RNvNtNtNtNtCsaBz7PZGcJGm_14pathfinder_mcp6server5tools11diagnostics5testss_30test_diff_excludes_line_column
FN:248,_RNvNtNtNtNtCsaBz7PZGcJGm_14pathfinder_mcp6server5tools11diagnostics5testss_32test_diff_warning_does_not_block
FN:207,_RNvNtNtNtNtCsaBz7PZGcJGm_14pathfinder_mcp6server5tools11diagnostics5testss_33test_diff_resolved_error_detected
FN:258,_RNvNtNtNtNtCsaBz7PZGcJGm_14pathfinder_mcp6server5tools11diagnostics5testss_39test_diff_mixed_introduced_and_resolved
FN:27,_RNvMNtNtNtCs1vjPnMfgdgZ_14pathfinder_lib6server5tools11diagnosticsNtB2_14DiagnosticDiff14has_new_errors
FN:67,_RNvNtNtNtCs1vjPnMfgdgZ_14pathfinder_lib6server5tools11diagnostics12build_counts
FN:106,_RNvNtNtNtCs1vjPnMfgdgZ_14pathfinder_lib6server5tools11diagnostics16collect_resolved
FN:37,_RNvNtNtNtCs1vjPnMfgdgZ_14pathfinder_lib6server5tools11diagnostics16diff_diagnostics
FN:79,_RNvNtNtNtCs1vjPnMfgdgZ_14pathfinder_lib6server5tools11diagnostics18collect_introduced
FN:57,_RNvNtNtNtCs1vjPnMfgdgZ_14pathfinder_lib6server5tools11diagnostics8diag_key
FNDA:11,_RNvNtNtNtNtCsb2XMseC3SKs_14pathfinder_lib6server5tools11diagnostics5tests10make_error
FNDA:1,_RNvNtNtNtNtCsb2XMseC3SKs_14pathfinder_lib6server5tools11diagnostics5tests12make_warning
FNDA:2,_RNvNtNtNtNtCsb2XMseC3SKs_14pathfinder_lib6server5tools11diagnostics5tests13make_error_at
FNDA:1,_RNvNtNtNtNtCsb2XMseC3SKs_14pathfinder_lib6server5tools11diagnostics5testss_19test_diff_no_change
FNDA:1,_RNvNtNtNtNtCsb2XMseC3SKs_14pathfinder_lib6server5tools11diagnostics5testss_27test_diff_multiset_counting
FNDA:1,_RNvNtNtNtNtCsb2XMseC3SKs_14pathfinder_lib6server5tools11diagnostics5testss_28test_diff_empty_pre_and_post
FNDA:1,_RNvNtNtNtNtCsb2XMseC3SKs_14pathfinder_lib6server5tools11diagnostics5testss_28test_diff_new_error_detected
FNDA:1,_RNvNtNtNtNtCsb2XMseC3SKs_14pathfinder_lib6server5tools11diagnostics5testss_30test_diff_excludes_line_column
FNDA:1,_RNvNtNtNtNtCsb2XMseC3SKs_14pathfinder_lib6server5tools11diagnostics5testss_32test_diff_warning_does_not_block
FNDA:1,_RNvNtNtNtNtCsb2XMseC3SKs_14pathfinder_lib6server5tools11diagnostics5testss_33test_diff_resolved_error_detected
FNDA:1,_RNvNtNtNtNtCsb2XMseC3SKs_14pathfinder_lib6server5tools11diagnostics5testss_39test_diff_mixed_introduced_and_resolved
FNDA:9,_RNvMNtNtNtCsb2XMseC3SKs_14pathfinder_lib6server5tools11diagnosticsNtB2_14DiagnosticDiff14has_new_errors
FNDA:24,_RNvNtNtNtCsb2XMseC3SKs_14pathfinder_lib6server5tools11diagnostics12build_counts
FNDA:12,_RNvNtNtNtCsb2XMseC3SKs_14pathfinder_lib6server5tools11diagnostics16collect_resolved
FNDA:12,_RNvNtNtNtCsb2XMseC3SKs_14pathfinder_lib6server5tools11diagnostics16diff_diagnostics
FNDA:12,_RNvNtNtNtCsb2XMseC3SKs_14pathfinder_lib6server5tools11diagnostics18collect_introduced
FNDA:57,_RNvNtNtNtCsb2XMseC3SKs_14pathfinder_lib6server5tools11diagnostics8diag_key
FNDA:0,_RNvMNtNtNtCs7Fw43FPylcK_14pathfinder_mcp6server5tools11diagnosticsNtB2_14DiagnosticDiff14has_new_errors
FNDA:0,_RNvNtNtNtCs7Fw43FPylcK_14pathfinder_mcp6server5tools11diagnostics12build_counts
FNDA:0,_RNvNtNtNtCs7Fw43FPylcK_14pathfinder_mcp6server5tools11diagnostics16collect_resolved
FNDA:0,_RNvNtNtNtCs7Fw43FPylcK_14pathfinder_mcp6server5tools11diagnostics16diff_diagnostics
FNDA:0,_RNvNtNtNtCs7Fw43FPylcK_14pathfinder_mcp6server5tools11diagnostics18collect_introduced
FNDA:0,_RNvNtNtNtCs7Fw43FPylcK_14pathfinder_mcp6server5tools11diagnostics8diag_key
FNDA:9,_RNvMNtNtNtCsaBz7PZGcJGm_14pathfinder_mcp6server5tools11diagnosticsNtB2_14DiagnosticDiff14has_new_errors
FNDA:24,_RNvNtNtNtCsaBz7PZGcJGm_14pathfinder_mcp6server5tools11diagnostics12build_counts
FNDA:12,_RNvNtNtNtCsaBz7PZGcJGm_14pathfinder_mcp6server5tools11diagnostics16collect_resolved
FNDA:12,_RNvNtNtNtCsaBz7PZGcJGm_14pathfinder_mcp6server5tools11diagnostics16diff_diagnostics
FNDA:12,_RNvNtNtNtCsaBz7PZGcJGm_14pathfinder_mcp6server5tools11diagnostics18collect_introduced
FNDA:57,_RNvNtNtNtCsaBz7PZGcJGm_14pathfinder_mcp6server5tools11diagnostics8diag_key
FNDA:11,_RNvNtNtNtNtCsaBz7PZGcJGm_14pathfinder_mcp6server5tools11diagnostics5tests10make_error
FNDA:1,_RNvNtNtNtNtCsaBz7PZGcJGm_14pathfinder_mcp6server5tools11diagnostics5tests12make_warning
FNDA:2,_RNvNtNtNtNtCsaBz7PZGcJGm_14pathfinder_mcp6server5tools11diagnostics5tests13make_error_at
FNDA:1,_RNvNtNtNtNtCsaBz7PZGcJGm_14pathfinder_mcp6server5tools11diagnostics5testss_19test_diff_no_change
FNDA:1,_RNvNtNtNtNtCsaBz7PZGcJGm_14pathfinder_mcp6server5tools11diagnostics5testss_27test_diff_multiset_counting
FNDA:1,_RNvNtNtNtNtCsaBz7PZGcJGm_14pathfinder_mcp6server5tools11diagnostics5testss_28test_diff_empty_pre_and_post
FNDA:1,_RNvNtNtNtNtCsaBz7PZGcJGm_14pathfinder_mcp6server5tools11diagnostics5testss_28test_diff_new_error_detected
FNDA:1,_RNvNtNtNtNtCsaBz7PZGcJGm_14pathfinder_mcp6server5tools11diagnostics5testss_30test_diff_excludes_line_column
FNDA:1,_RNvNtNtNtNtCsaBz7PZGcJGm_14pathfinder_mcp6server5tools11diagnostics5testss_32test_diff_warning_does_not_block
FNDA:1,_RNvNtNtNtNtCsaBz7PZGcJGm_14pathfinder_mcp6server5tools11diagnostics5testss_33test_diff_resolved_error_detected
FNDA:1,_RNvNtNtNtNtCsaBz7PZGcJGm_14pathfinder_mcp6server5tools11diagnostics5testss_39test_diff_mixed_introduced_and_resolved
FNDA:0,_RNvMNtNtNtCs1vjPnMfgdgZ_14pathfinder_lib6server5tools11diagnosticsNtB2_14DiagnosticDiff14has_new_errors
FNDA:0,_RNvNtNtNtCs1vjPnMfgdgZ_14pathfinder_lib6server5tools11diagnostics12build_counts
FNDA:0,_RNvNtNtNtCs1vjPnMfgdgZ_14pathfinder_lib6server5tools11diagnostics16collect_resolved
FNDA:0,_RNvNtNtNtCs1vjPnMfgdgZ_14pathfinder_lib6server5tools11diagnostics16diff_diagnostics
FNDA:0,_RNvNtNtNtCs1vjPnMfgdgZ_14pathfinder_lib6server5tools11diagnostics18collect_introduced
FNDA:0,_RNvNtNtNtCs1vjPnMfgdgZ_14pathfinder_lib6server5tools11diagnostics8diag_key
FNF:17
FNH:17
DA:27,18
DA:28,18
DA:29,18
DA:37,24
DA:38,24
DA:39,24
DA:41,24
DA:42,24
DA:44,24
DA:45,24
DA:46,24
DA:47,24
DA:48,24
DA:57,114
DA:58,114
DA:59,114
DA:60,114
DA:61,114
DA:62,114
DA:63,114
DA:64,114
DA:67,48
DA:68,48
DA:69,48
DA:70,38
DA:71,38
DA:72,48
DA:73,48
DA:79,24
DA:80,24
DA:81,24
DA:82,24
DA:84,24
DA:85,24
DA:86,24
DA:87,24
DA:89,24
DA:90,24
DA:91,24
DA:92,24
DA:93,24
DA:94,24
DA:95,24
DA:96,24
DA:97,24
DA:98,14
DA:99,14
DA:100,14
DA:102,24
DA:103,24
DA:106,24
DA:107,24
DA:108,24
DA:109,24
DA:110,24
DA:111,24
DA:112,14
DA:113,14
DA:115,24
DA:116,24
DA:117,24
DA:118,14
DA:119,14
DA:120,14
DA:121,14
DA:122,14
DA:123,14
DA:124,4
DA:125,4
DA:126,10
DA:128,24
DA:129,24
DA:139,22
DA:140,22
DA:141,22
DA:142,22
DA:143,22
DA:144,22
DA:145,22
DA:146,22
DA:147,22
DA:148,22
DA:150,2
DA:151,2
DA:152,2
DA:153,2
DA:154,2
DA:155,2
DA:156,2
DA:157,2
DA:158,2
DA:159,2
DA:161,4
DA:162,4
DA:163,4
DA:164,4
DA:165,4
DA:166,4
DA:167,4
DA:168,4
DA:169,4
DA:170,4
DA:173,2
DA:174,2
DA:175,2
DA:176,2
DA:177,2
DA:178,2
DA:181,2
DA:182,2
